
help.elf:     file format elf32-littlenios2
help.elf
architecture: nios2:r1, flags 0x00000112:
EXEC_P, HAS_SYMS, D_PAGED
start address 0x00008020

Program Header:
    LOAD off    0x00001000 vaddr 0x00008000 paddr 0x00008000 align 2**12
         filesz 0x00000020 memsz 0x00000020 flags r-x
    LOAD off    0x00001020 vaddr 0x00008020 paddr 0x00008020 align 2**12
         filesz 0x00005e84 memsz 0x00005e84 flags r-x
    LOAD off    0x00006ea4 vaddr 0x0000dea4 paddr 0x0000e1ec align 2**12
         filesz 0x00000348 memsz 0x00000348 flags rw-
    LOAD off    0x00007534 vaddr 0x0000e534 paddr 0x0000e534 align 2**12
         filesz 0x00000000 memsz 0x0000006c flags rw-

Sections:
Idx Name          Size      VMA       LMA       File off  Algn
  0 .entry        00000020  00008000  00008000  00001000  2**5
                  CONTENTS, ALLOC, LOAD, READONLY, CODE
  1 .exceptions   00000000  00008020  00008020  000071ec  2**0
                  CONTENTS
  2 .text         000057dc  00008020  00008020  00001020  2**2
                  CONTENTS, ALLOC, LOAD, READONLY, CODE
  3 .rodata       000006a8  0000d7fc  0000d7fc  000067fc  2**2
                  CONTENTS, ALLOC, LOAD, READONLY, DATA
  4 .rwdata       00000348  0000dea4  0000e1ec  00006ea4  2**2
                  CONTENTS, ALLOC, LOAD, DATA, SMALL_DATA
  5 .bss          0000006c  0000e534  0000e534  00007534  2**2
                  ALLOC, SMALL_DATA
  6 .onchip_memory2_0 00000000  0000e5a0  0000e5a0  000071ec  2**0
                  CONTENTS
  7 .comment      00000023  00000000  00000000  000071ec  2**0
                  CONTENTS, READONLY
  8 .debug_aranges 000006c8  00000000  00000000  00007210  2**3
                  CONTENTS, READONLY, DEBUGGING
  9 .debug_info   0000d640  00000000  00000000  000078d8  2**0
                  CONTENTS, READONLY, DEBUGGING
 10 .debug_abbrev 000041fd  00000000  00000000  00014f18  2**0
                  CONTENTS, READONLY, DEBUGGING
 11 .debug_line   00004bf0  00000000  00000000  00019115  2**0
                  CONTENTS, READONLY, DEBUGGING
 12 .debug_frame  00001208  00000000  00000000  0001dd08  2**2
                  CONTENTS, READONLY, DEBUGGING
 13 .debug_str    00002a2f  00000000  00000000  0001ef10  2**0
                  CONTENTS, READONLY, DEBUGGING
 14 .debug_loc    00008347  00000000  00000000  0002193f  2**0
                  CONTENTS, READONLY, DEBUGGING
 15 .debug_alt_sim_info 00000040  00000000  00000000  00029c88  2**2
                  CONTENTS, READONLY, DEBUGGING
 16 .debug_ranges 00000808  00000000  00000000  00029cc8  2**3
                  CONTENTS, READONLY, DEBUGGING
 17 .thread_model 00000003  00000000  00000000  0002c64e  2**0
                  CONTENTS, READONLY
 18 .cpu          0000000c  00000000  00000000  0002c651  2**0
                  CONTENTS, READONLY
 19 .qsys         00000001  00000000  00000000  0002c65d  2**0
                  CONTENTS, READONLY
 20 .simulation_enabled 00000001  00000000  00000000  0002c65e  2**0
                  CONTENTS, READONLY
 21 .stderr_dev   0000000b  00000000  00000000  0002c65f  2**0
                  CONTENTS, READONLY
 22 .stdin_dev    0000000b  00000000  00000000  0002c66a  2**0
                  CONTENTS, READONLY
 23 .stdout_dev   0000000b  00000000  00000000  0002c675  2**0
                  CONTENTS, READONLY
 24 .sopc_system_name 00000004  00000000  00000000  0002c680  2**0
                  CONTENTS, READONLY
 25 .quartus_project_dir 0000003a  00000000  00000000  0002c684  2**0
                  CONTENTS, READONLY
 26 .jdi          00004c49  00000000  00000000  0002c6be  2**0
                  CONTENTS, READONLY
 27 .sopcinfo     0006e757  00000000  00000000  00031307  2**0
                  CONTENTS, READONLY
SYMBOL TABLE:
00008000 l    d  .entry	00000000 .entry
00008020 l    d  .exceptions	00000000 .exceptions
00008020 l    d  .text	00000000 .text
0000d7fc l    d  .rodata	00000000 .rodata
0000dea4 l    d  .rwdata	00000000 .rwdata
0000e534 l    d  .bss	00000000 .bss
0000e5a0 l    d  .onchip_memory2_0	00000000 .onchip_memory2_0
00000000 l    d  .comment	00000000 .comment
00000000 l    d  .debug_aranges	00000000 .debug_aranges
00000000 l    d  .debug_info	00000000 .debug_info
00000000 l    d  .debug_abbrev	00000000 .debug_abbrev
00000000 l    d  .debug_line	00000000 .debug_line
00000000 l    d  .debug_frame	00000000 .debug_frame
00000000 l    d  .debug_str	00000000 .debug_str
00000000 l    d  .debug_loc	00000000 .debug_loc
00000000 l    d  .debug_alt_sim_info	00000000 .debug_alt_sim_info
00000000 l    d  .debug_ranges	00000000 .debug_ranges
00000000 l    df *ABS*	00000000 ../help_bsp//obj/HAL/src/crt0.o
00008058 l       .text	00000000 alt_after_alt_main
00000000 l    df *ABS*	00000000 hello_world_small.c
00000000 l    df *ABS*	00000000 FatFileSystem.c
00000000 l    df *ABS*	00000000 FatInternal.c
00000000 l    df *ABS*	00000000 crc16.c
0000d80e l     O .rodata	00000200 crc16tab
00000000 l    df *ABS*	00000000 crc7.c
0000da0e l     O .rodata	00000100 crc7_syndrome_table
00000000 l    df *ABS*	00000000 debug.c
00000000 l    df *ABS*	00000000 sd_hal.c
00000000 l    df *ABS*	00000000 sd_lib.c
0000e568 l     O .bss	00000038 gSdInfo
00000000 l    df *ABS*	00000000 sd_protocol.c
00000000 l    df *ABS*	00000000 lib2-divmod.c
00000000 l    df *ABS*	00000000 lib2-mul.c
00000000 l    df *ABS*	00000000 divsf3.c
00000000 l    df *ABS*	00000000 mulsf3.c
00000000 l    df *ABS*	00000000 floatunsisf.c
00000000 l    df *ABS*	00000000 muldf3.c
00000000 l    df *ABS*	00000000 extendsfdf2.c
00000000 l    df *ABS*	00000000 truncdfsf2.c
00000000 l    df *ABS*	00000000 libgcc2.c
00000000 l    df *ABS*	00000000 libgcc2.c
00000000 l    df *ABS*	00000000 malloc.c
00000000 l    df *ABS*	00000000 memcpy.c
00000000 l    df *ABS*	00000000 memset.c
00000000 l    df *ABS*	00000000 nano-mallocr.c
00000000 l    df *ABS*	00000000 nano-mallocr.c
00000000 l    df *ABS*	00000000 printf.c
00000000 l    df *ABS*	00000000 sbrkr.c
00000000 l    df *ABS*	00000000 sprintf.c
00000000 l    df *ABS*	00000000 strcasecmp.c
00000000 l    df *ABS*	00000000 vfprintf.c
0000c5d8 l     F .text	0000006c print_repeat
00000000 l    df *ABS*	00000000 vfprintf.c
0000cb8c l     F .text	0000006c print_repeat
00000000 l    df *ABS*	00000000 vsnprintf.c
00000000 l    df *ABS*	00000000 ctype_.c
0000dd21 l     O .rodata	00000180 _ctype_b
00000000 l    df *ABS*	00000000 fvwrite_small_dev.c
00000000 l    df *ABS*	00000000 fvwrite_small_str.c
00000000 l    df *ABS*	00000000 impure.c
0000e0ec l     O .rwdata	000000e0 impure_data
00000000 l    df *ABS*	00000000 int_errno.c
00000000 l    df *ABS*	00000000 memmove.c
00000000 l    df *ABS*	00000000 strlen.c
00000000 l    df *ABS*	00000000 writer.c
00000000 l    df *ABS*	00000000 alt_load.c
00000000 l    df *ABS*	00000000 alt_main.c
00000000 l    df *ABS*	00000000 alt_sbrk.c
0000e1d8 l     O .rwdata	00000004 heap_end
00000000 l    df *ABS*	00000000 alt_tick.c
00000000 l    df *ABS*	00000000 alt_usleep.c
00000000 l    df *ABS*	00000000 alt_write.c
00000000 l    df *ABS*	00000000 alt_sys_init.c
00000000 l    df *ABS*	00000000 altera_avalon_jtag_uart_write.c
00000000 l    df *ABS*	00000000 alt_busy_sleep.c
00000000 l    df *ABS*	00000000 alt_dcache_flush_all.c
00000000 l    df *ABS*	00000000 alt_errno.c
00000000 l    df *ABS*	00000000 alt_icache_flush_all.c
00000000 l    df *ABS*	00000000 altera_nios2_gen2_irq.c
0000d544 g     F .text	0000002c alt_main
00008218 g     F .text	00000028 Fat_FileBrowseBegin
0000e1ec g       *ABS*	00000000 __flash_rwdata_start
00009d70 g     F .text	00000058 SDLIB_WriteBlock512
0000e5a0 g       *ABS*	00000000 __alt_heap_start
0000c408 g     F .text	0000004c printf
0000a97c g     F .text	000000e0 SD_CMD24
00008318 g     F .text	000002a0 Fat_FileBrowseNext
0000ac38 g     F .text	00000440 .hidden __divsf3
000095e0 g     F .text	00000008 SDHAL_IsSupport4Bits
00009464 g     F .text	00000024 crc7_byte
00008c7c g     F .text	00000060 fatIsValidDir
0000d390 g     F .text	00000060 memmove
00008080 g     F .text	00000060 grayScale
0000d7f4 g     F .text	00000008 altera_nios2_gen2_irq_init
0000d2e8 g     F .text	000000a8 __sfvwrite_small_str
00008000 g     F .entry	0000000c __reset
000096d4 g     F .text	000000e0 SDHAL_GetResponse
00008020 g       *ABS*	00000000 __flash_exceptions_start
0000e550 g     O .bss	00000004 errno
00008d80 g     F .text	00000104 fatNextCluster
0000e558 g     O .bss	00000004 alt_argv
000161cc g       *ABS*	00000000 _gp
0000d6a8 g     F .text	00000004 usleep
0000c148 g     F .text	00000028 memcpy
000089e4 g     F .text	0000007c Fat_FileExist
0000a004 g     F .text	00000108 SD_CMD2
0000c120 g     F .text	00000014 malloc
0000c3cc g     F .text	0000003c _printf_r
00008000 g       *ABS*	00000000 __alt_mem_onchip_memory2_0
0000ab54 g     F .text	00000064 .hidden __udivsi3
0000a7b0 g     F .text	000000ec SD_ACMD42
0000d1fc g     F .text	00000034 vsnprintf
0000a500 g     F .text	000000d8 SD_CMD7
0000c454 g     F .text	00000050 _sbrk_r
0000a5d8 g     F .text	000000e0 SD_CMD16
0000a3f4 g     F .text	00000020 ArrayToU32
00009200 g     F .text	00000190 fatMount
0000be04 g     F .text	00000110 .hidden __extendsfdf2
00008cdc g     F .text	0000000c fatIsUnusedDir
0000dec8 g     O .rwdata	00000024 sobel_h
0000e1d0 g     O .rwdata	00000004 _global_impure_ptr
0000e5a0 g       *ABS*	00000000 __bss_end
0000d5f0 g     F .text	000000b8 alt_tick
0000e534 g     O .bss	00000004 SWITCHES
00008b88 g     F .text	0000000c SD_ReadBlock512
00008068 g     F .text	0000000c greenFilter
00008600 g     F .text	000000c4 Fat_FileOpen
0000d5bc g     F .text	00000034 alt_alarm_stop
00008f94 g     F .text	00000154 fatDelClusterList
00009630 g     F .text	0000007c SDHAL_SendCmd
0000d7ec g     F .text	00000004 alt_dcache_flush_all
0000e538 g     O .bss	00000004 B
000097b4 g     F .text	00000298 SDHAL_ReadData
0000e1ec g       *ABS*	00000000 __ram_rwdata_end
000081d0 g     F .text	00000010 Fat_Mount
0000d6ac g     F .text	00000060 write
0000dea4 g       *ABS*	00000000 __ram_rodata_end
0000e1e4 g     O .rwdata	00000004 jtag_uart_0
000094c4 g     F .text	0000004c myprintf
0000abb8 g     F .text	00000058 .hidden __umodsi3
0000e5a0 g       *ABS*	00000000 end
00010000 g       *ABS*	00000000 __alt_stack_pointer
0000c0bc g     F .text	00000064 .hidden __clzsi2
0000d730 g     F .text	00000034 altera_avalon_jtag_uart_write
000089d8 g     F .text	0000000c Fat_FileClose
000085b8 g     F .text	00000048 Fat_FileCount
0000cbf8 g     F .text	0000052c ___vfprintf_internal_r
0000c4a4 g     F .text	00000064 _sprintf_r
0000c190 g     F .text	000000e4 _free_r
00008020 g     F .text	0000003c _start
0000e564 g     O .bss	00000004 _alt_tick_rate
0000e560 g     O .bss	00000004 _alt_nticks
00009dd0 g     F .text	00000064 SD_CMD0
0000d72c g     F .text	00000004 alt_sys_init
0000deec g     O .rwdata	00000200 buffer
000096ac g     F .text	00000028 SDHAL_DummyClock
000086c4 g     F .text	00000018 Fat_FileSize
0000941c g     F .text	00000048 crc16
00009dc8 g     F .text	00000004 SD_Init
0000ac10 g     F .text	00000028 .hidden __mulsi3
0000dea4 g       *ABS*	00000000 __ram_rwdata_start
0000d7fc g       *ABS*	00000000 __ram_rodata_start
0000c580 g     F .text	00000058 strcasecmp
0000e53c g     O .bss	00000004 G
0000d764 g     F .text	00000088 alt_busy_sleep
00008074 g     F .text	0000000c blueFilter
000086dc g     F .text	00000290 Fat_FileRead
0000e5a0 g       *ABS*	00000000 __alt_stack_base
00009158 g     F .text	000000a8 fatFindUnusedDirectory
000095e8 g     F .text	00000048 SDHAL_Init
0000805c g     F .text	0000000c redFilter
0000d140 g     F .text	000000bc _vsnprintf_r
0000b598 g     F .text	0000086c .hidden __muldf3
00008a60 g     F .text	00000128 Fat_SpeedTest
0000d570 g     F .text	0000004c sbrk
0000c644 g     F .text	0000052c ___svfprintf_internal_r
0000e540 g     O .bss	00000002 sd_fileh
0000d230 g     F .text	000000b8 __sfvwrite_small_dev
000090e8 g     F .text	00000070 fatFindDirectory
0000e534 g       *ABS*	00000000 __bss_start
0000c170 g     F .text	00000020 memset
000080e4 g     F .text	000000ec main
00008d14 g     F .text	0000006c fatReadSecter
0000e554 g     O .bss	00000004 alt_envp
00009510 g     F .text	00000068 myprintf_hexarray
00008ce8 g     F .text	00000004 fatDump
00010000 g       *ABS*	00000000 __alt_heap_limit
0000bf14 g     F .text	000001a8 .hidden __truncdfsf2
0000c274 g     F .text	00000158 _malloc_r
0000a3f0 g     F .text	00000004 SD_WriteData
0000e1e8 g     O .rwdata	00000004 alt_errno
00008c68 g     F .text	00000004 fatDumpDate
00009488 g     F .text	00000038 crc7
0000896c g     F .text	0000006c Fat_FileSeek
0000aa5c g     F .text	00000084 .hidden __divsi3
0000a6b8 g     F .text	000000f8 SD_ACMD6
0000b078 g     F .text	00000430 .hidden __mulsf3
00008b94 g     F .text	0000000c SD_WriteBlock512
0000d7fc g       *ABS*	00000000 __flash_rodata_start
00008cec g     F .text	00000028 fatArray2Value
00009dcc g     F .text	00000004 SD_IsSupport4Bits
00008bfc g     F .text	0000006c fat32ClusterType
0000d70c g     F .text	00000020 alt_irq_init
0000c508 g     F .text	00000078 sprintf
0000db20 g     O .rodata	00000100 .hidden __clz_tab
000094c0 g     F .text	00000004 debug_output
0000e544 g     O .bss	00000004 R
00009f24 g     F .text	000000e0 SD_ACMD41
0000d40c g     F .text	00000058 _write_r
00009e34 g     F .text	000000f0 SD_CMD8
00008274 g     F .text	000000a4 fatComposeShortFilename
0000e1d4 g     O .rwdata	00000004 _impure_ptr
0000e55c g     O .bss	00000004 alt_argc
000081ec g     F .text	0000002c Fat_Type
00009578 g     F .text	00000068 myprintf_dwordarray
00008ba0 g     F .text	0000005c fat16ClusterType
000080e0 g     F .text	00000004 Sobel
0000a414 g     F .text	000000ec SD_CMD55
0000cb70 g     F .text	0000001c __vfprintf_internal_unused
0000a2fc g     F .text	000000f0 SD_CMD10
00008020 g       *ABS*	00000000 __ram_exceptions_start
00008240 g     F .text	00000034 fatSameLongFilename
0000e1ec g       *ABS*	00000000 _edata
00008c6c g     F .text	00000004 fatDumpTime
0000e5a0 g       *ABS*	00000000 _end
0000a20c g     F .text	000000f0 SD_CMD9
00008020 g       *ABS*	00000000 __ram_exceptions_end
00009390 g     F .text	0000008c fatMountSdcard
0000b4a8 g     F .text	000000f0 .hidden __floatunsisf
0000aae0 g     F .text	00000074 .hidden __modsi3
0000e1cc g     O .rwdata	00000004 __ctype_ptr__
00010000 g       *ABS*	00000000 __alt_data_end
00009b2c g     F .text	000001ec SDLIB_Init
0000dc20 g     O .rodata	00000101 _ctype_
0000a89c g     F .text	000000e0 SD_CMD17
0000800c g       .entry	00000000 _exit
0000d3f0 g     F .text	0000001c strlen
0000e548 g     O .bss	00000004 __malloc_sbrk_start
0000dea4 g     O .rwdata	00000024 sobel_v
0000d7f0 g     F .text	00000004 alt_icache_flush_all
0000e54c g     O .bss	00000004 __malloc_free_list
00009a4c g     F .text	000000e0 SDHAL_WriteData
0000d124 g     F .text	0000001c __vfprintf_internal
00008e84 g     F .text	00000110 fatFindUnusedCluster
0000e1dc g     O .rwdata	00000008 alt_alarm_list
0000a3ec g     F .text	00000004 SD_ReadData
000081e0 g     F .text	0000000c Fat_Unmount
0000d464 g     F .text	000000e0 alt_load
0000c134 g     F .text	00000014 free
00008c70 g     F .text	0000000c fatIsLastDir
0000a10c g     F .text	00000100 SD_CMD3
00009d18 g     F .text	00000058 SDLIB_ReadBlock512



Disassembly of section .entry:

00008000 <__reset>:
 * Jump to the _start entry point in the .text section if reset code
 * is allowed or if optimizing for RTL simulation.
 */
#if defined(ALT_ALLOW_CODE_AT_RESET) || defined(ALT_SIM_OPTIMIZE)
    /* Jump to the _start entry point in the .text section. */
    movhi r1, %hi(_start)
    8000:	00400034 	movhi	at,0
    ori r1, r1, %lo(_start)
    8004:	08600814 	ori	at,at,32800
    jmp r1
    8008:	0800683a 	jmp	at

0000800c <_exit>:
	...

Disassembly of section .text:

00008020 <_start>:

    /*
     * Now that the caches are initialized, set up the stack pointer and global pointer.
     * The values provided by the linker are assumed to be correctly aligned.
     */
    movhi sp, %hi(__alt_stack_pointer)
    8020:	06c00074 	movhi	sp,1
    ori sp, sp, %lo(__alt_stack_pointer)
    8024:	dec00014 	ori	sp,sp,0
    movhi gp, %hi(_gp)
    8028:	06800074 	movhi	gp,1
    ori gp, gp, %lo(_gp)
    802c:	d6987314 	ori	gp,gp,25036
 */
#ifndef ALT_SIM_OPTIMIZE
    /* Log that the BSS is about to be cleared. */
    ALT_LOG_PUTS(alt_log_msg_bss)

    movhi r2, %hi(__bss_start)
    8030:	00800034 	movhi	r2,0
    ori r2, r2, %lo(__bss_start)
    8034:	10b94d14 	ori	r2,r2,58676

    movhi r3, %hi(__bss_end)
    8038:	00c00034 	movhi	r3,0
    ori r3, r3, %lo(__bss_end)
    803c:	18f96814 	ori	r3,r3,58784

    beq r2, r3, 1f
    8040:	10c00326 	beq	r2,r3,8050 <_start+0x30>

0:
    stw zero, (r2)
    8044:	10000015 	stw	zero,0(r2)
    addi r2, r2, 4
    8048:	10800104 	addi	r2,r2,4
    bltu r2, r3, 0b
    804c:	10fffd36 	bltu	r2,r3,8044 <_gp+0xffff1e78>
     * section aren't defined until alt_load() has been called).
     */
    mov   et, zero
#endif

    call alt_load
    8050:	000d4640 	call	d464 <alt_load>

    /* Log that alt_main is about to be called. */
    ALT_LOG_PUTS(alt_log_msg_alt_main)

    /* Call the C entry point. It should never return. */
    call alt_main
    8054:	000d5440 	call	d544 <alt_main>

00008058 <alt_after_alt_main>:

    /* Wait in infinite loop in case alt_main does return. */
alt_after_alt_main:
    br alt_after_alt_main
    8058:	003fff06 	br	8058 <_gp+0xffff1e8c>

0000805c <redFilter>:
    805c:	20000015 	stw	zero,0(r4)
    8060:	28000015 	stw	zero,0(r5)
    8064:	f800283a 	ret

00008068 <greenFilter>:
    8068:	20000015 	stw	zero,0(r4)
    806c:	28000015 	stw	zero,0(r5)
    8070:	f800283a 	ret

00008074 <blueFilter>:
	*B = 0;
	return;
}

void blueFilter(uint *R, uint *G){
	*R = 0;
    8074:	20000015 	stw	zero,0(r4)
	*G = 0;
    8078:	28000015 	stw	zero,0(r5)
    807c:	f800283a 	ret

00008080 <grayScale>:
	return;
}

void grayScale(uint *R, uint *G, uint *B){
    8080:	defffc04 	addi	sp,sp,-16
	/**
	 * GRAYSCALE is calculated by forming a weighted sum of the Red, Green, and Blue colour and dividing it by 3
	 * This value then replaces the old RGB value;	 *
	 */
	// Calculating Average Gray
	*R = *G = *B = (*R + *B + *G) / 3;
    8084:	28800017 	ldw	r2,0(r5)
	*R = 0;
	*G = 0;
	return;
}

void grayScale(uint *R, uint *G, uint *B){
    8088:	dc000015 	stw	r16,0(sp)
    808c:	2021883a 	mov	r16,r4
	/**
	 * GRAYSCALE is calculated by forming a weighted sum of the Red, Green, and Blue colour and dividing it by 3
	 * This value then replaces the old RGB value;	 *
	 */
	// Calculating Average Gray
	*R = *G = *B = (*R + *B + *G) / 3;
    8090:	31000017 	ldw	r4,0(r6)
	*R = 0;
	*G = 0;
	return;
}

void grayScale(uint *R, uint *G, uint *B){
    8094:	dc400115 	stw	r17,4(sp)
    8098:	2823883a 	mov	r17,r5
	/**
	 * GRAYSCALE is calculated by forming a weighted sum of the Red, Green, and Blue colour and dividing it by 3
	 * This value then replaces the old RGB value;	 *
	 */
	// Calculating Average Gray
	*R = *G = *B = (*R + *B + *G) / 3;
    809c:	2085883a 	add	r2,r4,r2
    80a0:	81000017 	ldw	r4,0(r16)
    80a4:	014000c4 	movi	r5,3
	*R = 0;
	*G = 0;
	return;
}

void grayScale(uint *R, uint *G, uint *B){
    80a8:	dc800215 	stw	r18,8(sp)
	/**
	 * GRAYSCALE is calculated by forming a weighted sum of the Red, Green, and Blue colour and dividing it by 3
	 * This value then replaces the old RGB value;	 *
	 */
	// Calculating Average Gray
	*R = *G = *B = (*R + *B + *G) / 3;
    80ac:	1109883a 	add	r4,r2,r4
	*R = 0;
	*G = 0;
	return;
}

void grayScale(uint *R, uint *G, uint *B){
    80b0:	3025883a 	mov	r18,r6
    80b4:	dfc00315 	stw	ra,12(sp)
	/**
	 * GRAYSCALE is calculated by forming a weighted sum of the Red, Green, and Blue colour and dividing it by 3
	 * This value then replaces the old RGB value;	 *
	 */
	// Calculating Average Gray
	*R = *G = *B = (*R + *B + *G) / 3;
    80b8:	000ab540 	call	ab54 <__udivsi3>
    80bc:	90800015 	stw	r2,0(r18)
    80c0:	88800015 	stw	r2,0(r17)
    80c4:	80800015 	stw	r2,0(r16)
	/* Calculating by Luminosity */
//	*R = 0.2989 * *R;
//  *G = 0.5870 * *G;
//	*B = 0.1140 * *B;
	return;
}
    80c8:	dfc00317 	ldw	ra,12(sp)
    80cc:	dc800217 	ldw	r18,8(sp)
    80d0:	dc400117 	ldw	r17,4(sp)
    80d4:	dc000017 	ldw	r16,0(sp)
    80d8:	dec00404 	addi	sp,sp,16
    80dc:	f800283a 	ret

000080e0 <Sobel>:

void Sobel(int image[640][480], int out[640][480]){
    80e0:	f800283a 	ret

000080e4 <main>:
//    return bSuccess;
//}


int main()
{
    80e4:	defffb04 	addi	sp,sp,-20
    80e8:	dcc00315 	stw	r19,12(sp)
    80ec:	dc800215 	stw	r18,8(sp)
    80f0:	dc400115 	stw	r17,4(sp)
    80f4:	dc000015 	stw	r16,0(sp)
    FAT_HANDLE hFat;

    while (1)
      {
    	R = IORD_ALTERA_AVALON_PIO_DATA(RED_BASE);
    	G = IORD_ALTERA_AVALON_PIO_DATA(GREEN_BASE);
    80f8:	04400074 	movhi	r17,1
{
    FAT_HANDLE hFat;

    while (1)
      {
    	R = IORD_ALTERA_AVALON_PIO_DATA(RED_BASE);
    80fc:	04000074 	movhi	r16,1
    	G = IORD_ALTERA_AVALON_PIO_DATA(GREEN_BASE);
    	B = IORD_ALTERA_AVALON_PIO_DATA(BLUE_BASE);
    8100:	04800074 	movhi	r18,1
    	SWITCHES = IORD_ALTERA_AVALON_PIO_DATA(SW_BASE);
    8104:	04c00074 	movhi	r19,1
//    return bSuccess;
//}


int main()
{
    8108:	dfc00415 	stw	ra,16(sp)
    FAT_HANDLE hFat;

    while (1)
      {
    	R = IORD_ALTERA_AVALON_PIO_DATA(RED_BASE);
    810c:	84041004 	addi	r16,r16,4160
    	G = IORD_ALTERA_AVALON_PIO_DATA(GREEN_BASE);
    8110:	8c441404 	addi	r17,r17,4176
    	B = IORD_ALTERA_AVALON_PIO_DATA(BLUE_BASE);
    8114:	94841804 	addi	r18,r18,4192
    	SWITCHES = IORD_ALTERA_AVALON_PIO_DATA(SW_BASE);
    8118:	9cc41c04 	addi	r19,r19,4208
{
    FAT_HANDLE hFat;

    while (1)
      {
    	R = IORD_ALTERA_AVALON_PIO_DATA(RED_BASE);
    811c:	80800037 	ldwio	r2,0(r16)
    8120:	d0a0de15 	stw	r2,-31880(gp)
    	G = IORD_ALTERA_AVALON_PIO_DATA(GREEN_BASE);
    8124:	88800037 	ldwio	r2,0(r17)
    8128:	d0a0dc15 	stw	r2,-31888(gp)
    	B = IORD_ALTERA_AVALON_PIO_DATA(BLUE_BASE);
    812c:	90800037 	ldwio	r2,0(r18)
    8130:	d0a0db15 	stw	r2,-31892(gp)
    	SWITCHES = IORD_ALTERA_AVALON_PIO_DATA(SW_BASE);
    8134:	98800037 	ldwio	r2,0(r19)

    	if(R >= 0 && G >= 0 && B >= 0){
    		if (SWITCHES == 1){
    8138:	00c00044 	movi	r3,1
    while (1)
      {
    	R = IORD_ALTERA_AVALON_PIO_DATA(RED_BASE);
    	G = IORD_ALTERA_AVALON_PIO_DATA(GREEN_BASE);
    	B = IORD_ALTERA_AVALON_PIO_DATA(BLUE_BASE);
    	SWITCHES = IORD_ALTERA_AVALON_PIO_DATA(SW_BASE);
    813c:	d0a0da15 	stw	r2,-31896(gp)

    	if(R >= 0 && G >= 0 && B >= 0){
    		if (SWITCHES == 1){
    8140:	10c0021e 	bne	r2,r3,814c <main+0x68>

/***
 * FUNCTIONS TO USE
 */
void redFilter(uint *G, uint *B){
	*G = 0;
    8144:	d020dc15 	stw	zero,-31888(gp)
    8148:	00000306 	br	8158 <main+0x74>

    	if(R >= 0 && G >= 0 && B >= 0){
    		if (SWITCHES == 1){
    			redFilter(&G, &B);
    		}
    		else if (SWITCHES == 2){
    814c:	00c00084 	movi	r3,2
    8150:	10c0031e 	bne	r2,r3,8160 <main+0x7c>
	*B = 0;
	return;
}

void greenFilter(uint *R, uint *B){
	*R = 0;
    8154:	d020de15 	stw	zero,-31880(gp)
	*B = 0;
    8158:	d020db15 	stw	zero,-31892(gp)
    815c:	00000b06 	br	818c <main+0xa8>
    			redFilter(&G, &B);
    		}
    		else if (SWITCHES == 2){
    			greenFilter(&R, &B);
    		}
    		else if (SWITCHES == 4){
    8160:	00c00104 	movi	r3,4
    8164:	10c0031e 	bne	r2,r3,8174 <main+0x90>
	*B = 0;
	return;
}

void blueFilter(uint *R, uint *G){
	*R = 0;
    8168:	d020de15 	stw	zero,-31880(gp)
	*G = 0;
    816c:	d020dc15 	stw	zero,-31888(gp)
    8170:	00000606 	br	818c <main+0xa8>
    			greenFilter(&R, &B);
    		}
    		else if (SWITCHES == 4){
    			blueFilter(&R, &G);
    		}
    		else if (SWITCHES == 8){
    8174:	00c00204 	movi	r3,8
    8178:	10c0041e 	bne	r2,r3,818c <main+0xa8>
    			grayScale(&R, &G, &B);
    817c:	d1a0db04 	addi	r6,gp,-31892
    8180:	d160dc04 	addi	r5,gp,-31888
    8184:	d120de04 	addi	r4,gp,-31880
    8188:	00080800 	call	8080 <grayScale>
    		}
    		else if (SWITCHES == 16){
    			// SOBEL
    		}
    		IOWR_ALTERA_AVALON_PIO_DATA(RED_BASE, R);
    818c:	d0e0de17 	ldw	r3,-31880(gp)
    8190:	00800074 	movhi	r2,1
    8194:	10841004 	addi	r2,r2,4160
    8198:	10c00035 	stwio	r3,0(r2)
    		IOWR_ALTERA_AVALON_PIO_DATA(GREEN_BASE, G);
    819c:	d0e0dc17 	ldw	r3,-31888(gp)
    81a0:	00800074 	movhi	r2,1
    81a4:	10841404 	addi	r2,r2,4176
    81a8:	10c00035 	stwio	r3,0(r2)
    		IOWR_ALTERA_AVALON_PIO_DATA(BLUE_BASE, B);
    81ac:	d0e0db17 	ldw	r3,-31892(gp)
    81b0:	00800074 	movhi	r2,1
    81b4:	10841804 	addi	r2,r2,4192
    81b8:	10c00035 	stwio	r3,0(r2)
    		IOWR_ALTERA_AVALON_PIO_DATA(SW_BASE, SWITCHES);
    81bc:	d0e0da17 	ldw	r3,-31896(gp)
    81c0:	00800074 	movhi	r2,1
    81c4:	10841c04 	addi	r2,r2,4208
    81c8:	10c00035 	stwio	r3,0(r2)
//				printf("sd card not mounted, pls check for proper partition/n");
//			}
//		}


    }
    81cc:	003fd306 	br	811c <_gp+0xffff1f50>

000081d0 <Fat_Mount>:
FAT_HANDLE Fat_Mount(FAT_DEVICE FatDevice, DEVICE_HANDLE hUsbDisk){
    
    //Fat_Unmount();
    FAT_HANDLE hFat = 0;
    
    if (FatDevice == FAT_SD_CARD){
    81d0:	2000011e 	bne	r4,zero,81d8 <Fat_Mount+0x8>
        #ifdef SUPPORT_SD_CARD
        hFat = fatMountSdcard();
    81d4:	00093901 	jmpi	9390 <fatMountSdcard>
        hFat = fatMountUsbDisk(hUsbDisk);
        #endif
    }  
    return hFat;      
        
}
    81d8:	0005883a 	mov	r2,zero
    81dc:	f800283a 	ret

000081e0 <Fat_Unmount>:

void Fat_Unmount(FAT_HANDLE Fat){
    VOLUME_INFO *pVol = (VOLUME_INFO *)Fat;
    if (!pVol)
    81e0:	20000126 	beq	r4,zero,81e8 <Fat_Unmount+0x8>
        pVol->szFatTable = 0;
    }        
#endif //#ifdef FAT_READONLY
    pVol->bMount = FALSE;
    
    free(pVol);  
    81e4:	000c1341 	jmpi	c134 <free>
    81e8:	f800283a 	ret

000081ec <Fat_Type>:
}   

FAT_TYPE Fat_Type(FAT_HANDLE Fat){
    VOLUME_INFO *pVol = (VOLUME_INFO *)Fat;
    FAT_TYPE Type = FAT_UNKNOWN;
    if (pVol){
    81ec:	20000626 	beq	r4,zero,8208 <Fat_Type+0x1c>
        if (pVol->Partition_Type == PARTITION_FAT16)
    81f0:	20800317 	ldw	r2,12(r4)
    81f4:	00c00184 	movi	r3,6
    81f8:	10c00526 	beq	r2,r3,8210 <Fat_Type+0x24>
            Type = FAT_FAT16;
        else if (pVol->Partition_Type == PARTITION_FAT32)
            Type = FAT_FAT32;
    81fc:	108002e0 	cmpeqi	r2,r2,11
    8200:	1004907a 	slli	r2,r2,1
    8204:	f800283a 	ret
    free(pVol);  
}   

FAT_TYPE Fat_Type(FAT_HANDLE Fat){
    VOLUME_INFO *pVol = (VOLUME_INFO *)Fat;
    FAT_TYPE Type = FAT_UNKNOWN;
    8208:	0005883a 	mov	r2,zero
    820c:	f800283a 	ret
    if (pVol){
        if (pVol->Partition_Type == PARTITION_FAT16)
            Type = FAT_FAT16;
    8210:	00800044 	movi	r2,1
        else if (pVol->Partition_Type == PARTITION_FAT32)
            Type = FAT_FAT32;
    }
    return Type;        
}
    8214:	f800283a 	ret

00008218 <Fat_FileBrowseBegin>:

bool Fat_FileBrowseBegin(FAT_HANDLE hFat, FAT_BROWSE_HANDLE *pFatBrowseHandle){
    VOLUME_INFO *pVol = (VOLUME_INFO *)hFat;
    if (!pVol)
    8218:	20000726 	beq	r4,zero,8238 <Fat_FileBrowseBegin+0x20>
        return FALSE;
    if (!pVol->bMount)
    821c:	20800417 	ldw	r2,16(r4)
    8220:	10000626 	beq	r2,zero,823c <Fat_FileBrowseBegin+0x24>
        return FALSE;
    pFatBrowseHandle->DirectoryIndex = -1;
    8224:	00bfffc4 	movi	r2,-1
    8228:	28800015 	stw	r2,0(r5)
    pFatBrowseHandle->hFat = hFat;
    822c:	29000115 	stw	r4,4(r5)
    return TRUE;
    8230:	00800044 	movi	r2,1
    8234:	f800283a 	ret
}

bool Fat_FileBrowseBegin(FAT_HANDLE hFat, FAT_BROWSE_HANDLE *pFatBrowseHandle){
    VOLUME_INFO *pVol = (VOLUME_INFO *)hFat;
    if (!pVol)
        return FALSE;
    8238:	0005883a 	mov	r2,zero
    if (!pVol->bMount)
        return FALSE;
    pFatBrowseHandle->DirectoryIndex = -1;
    pFatBrowseHandle->hFat = hFat;
    return TRUE;
}
    823c:	f800283a 	ret

00008240 <fatSameLongFilename>:
}

bool fatSameLongFilename(alt_u16 *p1, alt_u16 *p2){
    bool bSame = TRUE;
    
    while(bSame && ((*p1 != 0) || (*p2 != 0))){
    8240:	20c0000b 	ldhu	r3,0(r4)
    8244:	18000726 	beq	r3,zero,8264 <fatSameLongFilename+0x24>
        if (*p1 != *p2){
    8248:	2880000b 	ldhu	r2,0(r5)
            bSame = FALSE;
        }
        p1++;
    824c:	21000084 	addi	r4,r4,2
        p2++;
    8250:	29400084 	addi	r5,r5,2
}

bool fatSameLongFilename(alt_u16 *p1, alt_u16 *p2){
    bool bSame = TRUE;
    
    while(bSame && ((*p1 != 0) || (*p2 != 0))){
    8254:	10bfffcc 	andi	r2,r2,65535
    8258:	18bff926 	beq	r3,r2,8240 <_gp+0xffff2074>
    825c:	0005883a 	mov	r2,zero
        p2++;
        
    }
    
    return bSame;
}
    8260:	f800283a 	ret
}

bool fatSameLongFilename(alt_u16 *p1, alt_u16 *p2){
    bool bSame = TRUE;
    
    while(bSame && ((*p1 != 0) || (*p2 != 0))){
    8264:	2880000b 	ldhu	r2,0(r5)
    8268:	103ff71e 	bne	r2,zero,8248 <_gp+0xffff207c>
    826c:	00800044 	movi	r2,1
    8270:	f800283a 	ret

00008274 <fatComposeShortFilename>:
    
    return bSame;
}


void fatComposeShortFilename(FAT_DIRECTORY *pDir, char *szFilename){
    8274:	280d883a 	mov	r6,r5
    int i,nPos=0;
    8278:	0005883a 	mov	r2,zero
    
    i=0;
    while(i < 8 && pDir->Name[i] != 0 && pDir->Name[i] != ' ')
    827c:	023ff7c4 	movi	r8,-33
    8280:	02400204 	movi	r9,8
    8284:	2087883a 	add	r3,r4,r2
    8288:	19c00003 	ldbu	r7,0(r3)
    828c:	3a06703a 	and	r3,r7,r8
    8290:	18c03fcc 	andi	r3,r3,255
    8294:	18c0201c 	xori	r3,r3,128
    8298:	18ffe004 	addi	r3,r3,-128
    829c:	18000426 	beq	r3,zero,82b0 <fatComposeShortFilename+0x3c>
        szFilename[nPos++] = pDir->Name[i++];
    82a0:	31c00005 	stb	r7,0(r6)
    82a4:	10800044 	addi	r2,r2,1
    82a8:	31800044 	addi	r6,r6,1

void fatComposeShortFilename(FAT_DIRECTORY *pDir, char *szFilename){
    int i,nPos=0;
    
    i=0;
    while(i < 8 && pDir->Name[i] != 0 && pDir->Name[i] != ' ')
    82ac:	127ff51e 	bne	r2,r9,8284 <_gp+0xffff20b8>
        szFilename[nPos++] = pDir->Name[i++];
    
    if (pDir->Attribute & (ATTR_ARCHIVE | ATTR_DIRECTORY)){
    82b0:	20c002c3 	ldbu	r3,11(r4)
    82b4:	18c00c0c 	andi	r3,r3,48
    82b8:	18001426 	beq	r3,zero,830c <fatComposeShortFilename+0x98>
        if (pDir->Attribute & (ATTR_ARCHIVE | ATTR_DIRECTORY))     
            szFilename[nPos++] = '.';   
    82bc:	2887883a 	add	r3,r5,r2
    82c0:	01800b84 	movi	r6,46
    82c4:	19800005 	stb	r6,0(r3)
    82c8:	21000204 	addi	r4,r4,8
    82cc:	10c00044 	addi	r3,r2,1
    82d0:	12400104 	addi	r9,r2,4
        i=0;
        while(i < 3 && pDir->Extension[i] != 0 && pDir->Extension[i] != ' ')
    82d4:	023ff7c4 	movi	r8,-33
    82d8:	21c00003 	ldbu	r7,0(r4)
    82dc:	1805883a 	mov	r2,r3
    82e0:	3a0c703a 	and	r6,r7,r8
    82e4:	31803fcc 	andi	r6,r6,255
    82e8:	3180201c 	xori	r6,r6,128
    82ec:	31bfe004 	addi	r6,r6,-128
    82f0:	30000626 	beq	r6,zero,830c <fatComposeShortFilename+0x98>
    82f4:	18800044 	addi	r2,r3,1
            szFilename[nPos++] = pDir->Extension[i++];
    82f8:	28c7883a 	add	r3,r5,r3
    82fc:	19c00005 	stb	r7,0(r3)
    8300:	21000044 	addi	r4,r4,1
    8304:	1007883a 	mov	r3,r2
    
    if (pDir->Attribute & (ATTR_ARCHIVE | ATTR_DIRECTORY)){
        if (pDir->Attribute & (ATTR_ARCHIVE | ATTR_DIRECTORY))     
            szFilename[nPos++] = '.';   
        i=0;
        while(i < 3 && pDir->Extension[i] != 0 && pDir->Extension[i] != ' ')
    8308:	127ff31e 	bne	r2,r9,82d8 <_gp+0xffff210c>
            szFilename[nPos++] = pDir->Extension[i++];
    }            
    szFilename[nPos++] = 0;
    830c:	2885883a 	add	r2,r5,r2
    8310:	10000005 	stb	zero,0(r2)
    8314:	f800283a 	ret

00008318 <Fat_FileBrowseNext>:
    pFatBrowseHandle->DirectoryIndex = -1;
    pFatBrowseHandle->hFat = hFat;
    return TRUE;
}

bool Fat_FileBrowseNext(FAT_BROWSE_HANDLE *pFatBrowseHandle, FILE_CONTEXT *pFileContext){
    8318:	defff604 	addi	sp,sp,-40
    831c:	dd800615 	stw	r22,24(sp)
    bool bFind = FALSE, bError=FALSE, bLongFilename = FALSE;
    int OrderValue = 0;
    FAT_DIRECTORY *pDir;
    //unsigned int nSecter, nSecterOffset,nByteOffset;
    VOLUME_INFO *pVol = (VOLUME_INFO *)pFatBrowseHandle->hFat;
    8320:	25800117 	ldw	r22,4(r4)
    pFatBrowseHandle->DirectoryIndex = -1;
    pFatBrowseHandle->hFat = hFat;
    return TRUE;
}

bool Fat_FileBrowseNext(FAT_BROWSE_HANDLE *pFatBrowseHandle, FILE_CONTEXT *pFileContext){
    8324:	dfc00915 	stw	ra,36(sp)
    8328:	df000815 	stw	fp,32(sp)
    832c:	ddc00715 	stw	r23,28(sp)
    8330:	dd400515 	stw	r21,20(sp)
    8334:	dd000415 	stw	r20,16(sp)
    8338:	dcc00315 	stw	r19,12(sp)
    833c:	dc800215 	stw	r18,8(sp)
    8340:	dc400115 	stw	r17,4(sp)
    8344:	dc000015 	stw	r16,0(sp)
    int OrderValue = 0;
    FAT_DIRECTORY *pDir;
    //unsigned int nSecter, nSecterOffset,nByteOffset;
    VOLUME_INFO *pVol = (VOLUME_INFO *)pFatBrowseHandle->hFat;
    
    if (!pVol)
    8348:	b000021e 	bne	r22,zero,8354 <Fat_FileBrowseNext+0x3c>
        return FALSE;    
    834c:	0005883a 	mov	r2,zero
    8350:	00008d06 	br	8588 <Fat_FileBrowseNext+0x270>
    
    if (!pVol->bMount)
    8354:	b0800417 	ldw	r2,16(r22)
    8358:	103ffc26 	beq	r2,zero,834c <_gp+0xffff2180>
    835c:	2823883a 	mov	r17,r5
    8360:	202b883a 	mov	r21,r4
    8364:	0025883a 	mov	r18,zero
    8368:	0027883a 	mov	r19,zero
        if (!pDir)
            bError = TRUE;
            
        if (!bError){                        
            if (fatIsValidDir(pDir) && !fatIsUnusedDir(pDir)){
                if ((pDir->Attribute & ATTR_LONG_NAME) == ATTR_LONG_NAME){
    836c:	05c003c4 	movi	r23,15
    8370:	070003c4 	movi	fp,15
    if (!pVol->bMount)
        return FALSE;
    
    
    do{  // search Directory Table
        pFatBrowseHandle->DirectoryIndex++;        
    8374:	a9400017 	ldw	r5,0(r21)
        pDir = fatFindDirectory(pVol,pFatBrowseHandle->DirectoryIndex);
    8378:	b009883a 	mov	r4,r22
    if (!pVol->bMount)
        return FALSE;
    
    
    do{  // search Directory Table
        pFatBrowseHandle->DirectoryIndex++;        
    837c:	29400044 	addi	r5,r5,1
    8380:	a9400015 	stw	r5,0(r21)
        pDir = fatFindDirectory(pVol,pFatBrowseHandle->DirectoryIndex);
    8384:	00090e80 	call	90e8 <fatFindDirectory>
    8388:	1021883a 	mov	r16,r2
        if (!pDir)
    838c:	10007626 	beq	r2,zero,8568 <Fat_FileBrowseNext+0x250>
            bError = TRUE;
            
        if (!bError){                        
            if (fatIsValidDir(pDir) && !fatIsUnusedDir(pDir)){
    8390:	1009883a 	mov	r4,r2
    8394:	0008c7c0 	call	8c7c <fatIsValidDir>
    8398:	10007126 	beq	r2,zero,8560 <Fat_FileBrowseNext+0x248>
    839c:	8009883a 	mov	r4,r16
    83a0:	0008cdc0 	call	8cdc <fatIsUnusedDir>
    83a4:	10006e1e 	bne	r2,zero,8560 <Fat_FileBrowseNext+0x248>
                if ((pDir->Attribute & ATTR_LONG_NAME) == ATTR_LONG_NAME){
    83a8:	808002c3 	ldbu	r2,11(r16)
    83ac:	108003cc 	andi	r2,r2,15
    83b0:	1700251e 	bne	r2,fp,8448 <Fat_FileBrowseNext+0x130>
                    // check attribute
                    if ((pLDIR->LDIR_Attr & ATTR_LONG_NAME) != ATTR_LONG_NAME){
                        bError = TRUE;
                    }else{                        
                        // check order
                        if (OrderValue == 0){
    83b4:	90000c1e 	bne	r18,zero,83e8 <Fat_FileBrowseNext+0xd0>
                            // last entry
                            if (bLongFilename || ((OrderValue & LAST_LONG_ENTRY) != OrderValue))
    83b8:	9800041e 	bne	r19,zero,83cc <Fat_FileBrowseNext+0xb4>
                                bError = TRUE;
                            else
                                OrderValue = pLDIR->LDIR_Ord & 0x3F;
    83bc:	84800003 	ldbu	r18,0(r16)
    83c0:	0029883a 	mov	r20,zero
    83c4:	94800fcc 	andi	r18,r18,63
    83c8:	00000106 	br	83d0 <Fat_FileBrowseNext+0xb8>
                    }else{                        
                        // check order
                        if (OrderValue == 0){
                            // last entry
                            if (bLongFilename || ((OrderValue & LAST_LONG_ENTRY) != OrderValue))
                                bError = TRUE;
    83cc:	05000044 	movi	r20,1
                            else
                                OrderValue = pLDIR->LDIR_Ord & 0x3F;
                            memset(pFileContext->szName, 0, sizeof(pFileContext->szName));        
    83d0:	01804004 	movi	r6,256
    83d4:	000b883a 	mov	r5,zero
    83d8:	8809883a 	mov	r4,r17
    83dc:	000c1700 	call	c170 <memset>
                                bError = TRUE;
                        }
                    }
                    
                    //                        
                    if (!bError){
    83e0:	a0000426 	beq	r20,zero,83f4 <Fat_FileBrowseNext+0xdc>
    83e4:	00006006 	br	8568 <Fat_FileBrowseNext+0x250>
                                bError = TRUE;
                            else
                                OrderValue = pLDIR->LDIR_Ord & 0x3F;
                            memset(pFileContext->szName, 0, sizeof(pFileContext->szName));        
                        }else{
                            if ((pLDIR->LDIR_Ord & 0x3F) != OrderValue)
    83e8:	80800003 	ldbu	r2,0(r16)
    83ec:	10800fcc 	andi	r2,r2,63
    83f0:	90805d1e 	bne	r18,r2,8568 <Fat_FileBrowseNext+0x250>
                    
                    //                        
                    if (!bError){
                        int BaseOffset;
                        bLongFilename = TRUE;
                        OrderValue--;
    83f4:	94bfffc4 	addi	r18,r18,-1
                        BaseOffset = OrderValue * 26;
                        // cast filename
                        memcpy(pFileContext->szName+BaseOffset, pLDIR->LDIR_Name1, 10);
    83f8:	01400684 	movi	r5,26
    83fc:	9009883a 	mov	r4,r18
    8400:	000ac100 	call	ac10 <__mulsi3>
    8404:	01800284 	movi	r6,10
    8408:	81400044 	addi	r5,r16,1
    840c:	8889883a 	add	r4,r17,r2
    8410:	1027883a 	mov	r19,r2
    8414:	000c1480 	call	c148 <memcpy>
                        memcpy(pFileContext->szName+BaseOffset+10, pLDIR->LDIR_Name2, 12);
    8418:	99000284 	addi	r4,r19,10
    841c:	01800304 	movi	r6,12
    8420:	81400384 	addi	r5,r16,14
    8424:	8909883a 	add	r4,r17,r4
    8428:	000c1480 	call	c148 <memcpy>
                        memcpy(pFileContext->szName+BaseOffset+22, pLDIR->LDIR_Name3, 4);
    842c:	99000584 	addi	r4,r19,22
    8430:	01800104 	movi	r6,4
    8434:	81400704 	addi	r5,r16,28
    8438:	8909883a 	add	r4,r17,r4
    843c:	000c1480 	call	c148 <memcpy>
                    }
                    
                    //                        
                    if (!bError){
                        int BaseOffset;
                        bLongFilename = TRUE;
    8440:	04c00044 	movi	r19,1
    8444:	00004606 	br	8560 <Fat_FileBrowseNext+0x248>
                        memcpy(pFileContext->szName+BaseOffset, pLDIR->LDIR_Name1, 10);
                        memcpy(pFileContext->szName+BaseOffset+10, pLDIR->LDIR_Name2, 12);
                        memcpy(pFileContext->szName+BaseOffset+22, pLDIR->LDIR_Name3, 4);
                    }                        
                }else{
                    if (bLongFilename){
    8448:	98000626 	beq	r19,zero,8464 <Fat_FileBrowseNext+0x14c>
                        pFileContext->Attribute = ATTR_LONG_NAME;
    844c:	8dc04505 	stb	r23,276(r17)
                        if ((pDir->Attribute & (ATTR_ARCHIVE | ATTR_DIRECTORY)) == 0)
    8450:	808002c3 	ldbu	r2,11(r16)
    8454:	04c00044 	movi	r19,1
    8458:	10800c0c 	andi	r2,r2,48
    845c:	10004426 	beq	r2,zero,8570 <Fat_FileBrowseNext+0x258>
    8460:	00000306 	br	8470 <Fat_FileBrowseNext+0x158>
                            bError = TRUE;
                        else    
                            bFind = TRUE;
                    }else{
                        fatComposeShortFilename(pDir, pFileContext->szName);
    8464:	880b883a 	mov	r5,r17
    8468:	8009883a 	mov	r4,r16
    846c:	00082740 	call	8274 <fatComposeShortFilename>
                        bFind = TRUE;
                    }
                    
                    if (bFind){
                        // my ext
                        pFileContext->bLongFilename = bLongFilename;
    8470:	8cc04015 	stw	r19,256(r17)
                        pFileContext->bFile = (pDir->Attribute & ATTR_ARCHIVE)?TRUE:FALSE;
    8474:	808002c3 	ldbu	r2,11(r16)
    8478:	1004d17a 	srli	r2,r2,5
    847c:	1080004c 	andi	r2,r2,1
    8480:	88804115 	stw	r2,260(r17)
                        pFileContext->bDirectory = (pDir->Attribute & ATTR_DIRECTORY)?TRUE:FALSE;
    8484:	808002c3 	ldbu	r2,11(r16)
    8488:	1004d13a 	srli	r2,r2,4
    848c:	1080004c 	andi	r2,r2,1
    8490:	88804215 	stw	r2,264(r17)
                        pFileContext->bVolume = (pDir->Attribute & ATTR_VOLUME_ID)?TRUE:FALSE;
    8494:	808002c3 	ldbu	r2,11(r16)
    8498:	1004d0fa 	srli	r2,r2,3
    849c:	1080004c 	andi	r2,r2,1
    84a0:	88804315 	stw	r2,268(r17)
                        pFileContext->DirEntryIndex = pFatBrowseHandle->DirectoryIndex; // add in v2.0.0
    84a4:	a8800017 	ldw	r2,0(r21)
    84a8:	88804415 	stw	r2,272(r17)
                        
                        //
                        pFileContext->Attribute = pDir->Attribute;
    84ac:	808002c3 	ldbu	r2,11(r16)
    84b0:	88804505 	stb	r2,276(r17)
                        pFileContext->CreateTime = pDir->CreateTime;
    84b4:	808003c3 	ldbu	r2,15(r16)
    84b8:	80c00383 	ldbu	r3,14(r16)
    84bc:	1004923a 	slli	r2,r2,8
    84c0:	10c4b03a 	or	r2,r2,r3
    84c4:	8880458d 	sth	r2,278(r17)
                        pFileContext->LastAccessDate = pDir->LastAccessDate;
    84c8:	808004c3 	ldbu	r2,19(r16)
    84cc:	80c00483 	ldbu	r3,18(r16)
    84d0:	1004923a 	slli	r2,r2,8
    84d4:	10c4b03a 	or	r2,r2,r3
    84d8:	8880468d 	sth	r2,282(r17)
                        pFileContext->FirstLogicalClusterHi = pDir->FirstLogicalClusterHi;
    84dc:	80800543 	ldbu	r2,21(r16)
    84e0:	80c00503 	ldbu	r3,20(r16)
    84e4:	1004923a 	slli	r2,r2,8
    84e8:	10c4b03a 	or	r2,r2,r3
    84ec:	8880470d 	sth	r2,284(r17)
                        pFileContext->LastWriteTime = pDir->LastWriteTime;
    84f0:	808005c3 	ldbu	r2,23(r16)
    84f4:	80c00583 	ldbu	r3,22(r16)
    84f8:	1004923a 	slli	r2,r2,8
    84fc:	10c4b03a 	or	r2,r2,r3
    8500:	8880478d 	sth	r2,286(r17)
                        pFileContext->LastWriteDate = pDir->LastWriteDate;
    8504:	80800643 	ldbu	r2,25(r16)
    8508:	80c00603 	ldbu	r3,24(r16)
    850c:	1004923a 	slli	r2,r2,8
    8510:	10c4b03a 	or	r2,r2,r3
    8514:	8880480d 	sth	r2,288(r17)
                        pFileContext->FirstLogicalCluster = pDir->FirstLogicalCluster;
    8518:	808006c3 	ldbu	r2,27(r16)
    851c:	80c00683 	ldbu	r3,26(r16)
    8520:	1004923a 	slli	r2,r2,8
    8524:	10c4b03a 	or	r2,r2,r3
    8528:	8880488d 	sth	r2,290(r17)
                        pFileContext->FileSize = pDir->FileSize;
    852c:	80c00743 	ldbu	r3,29(r16)
    8530:	80800783 	ldbu	r2,30(r16)
    8534:	81400703 	ldbu	r5,28(r16)
    8538:	1806923a 	slli	r3,r3,8
    853c:	1004943a 	slli	r2,r2,16
    8540:	1948b03a 	or	r4,r3,r5
    8544:	1106b03a 	or	r3,r2,r4
    8548:	808007c3 	ldbu	r2,31(r16)
    854c:	1004963a 	slli	r2,r2,24
    8550:	10c4b03a 	or	r2,r2,r3
    8554:	88804915 	stw	r2,292(r17)
    8558:	00800044 	movi	r2,1
    855c:	00000a06 	br	8588 <Fat_FileBrowseNext+0x270>
    8560:	0029883a 	mov	r20,zero
    8564:	00000306 	br	8574 <Fat_FileBrowseNext+0x25c>
    8568:	05000044 	movi	r20,1
    856c:	00000106 	br	8574 <Fat_FileBrowseNext+0x25c>
                    }                        
                }else{
                    if (bLongFilename){
                        pFileContext->Attribute = ATTR_LONG_NAME;
                        if ((pDir->Attribute & (ATTR_ARCHIVE | ATTR_DIRECTORY)) == 0)
                            bError = TRUE;
    8570:	9829883a 	mov	r20,r19
                        pFileContext->FileSize = pDir->FileSize;
                    }                        
                }                    
            }                
        }            
    }while (!bFind && !fatIsLastDir(pDir) && !bError);
    8574:	8009883a 	mov	r4,r16
    8578:	0008c700 	call	8c70 <fatIsLastDir>
    857c:	103f731e 	bne	r2,zero,834c <_gp+0xffff2180>
    8580:	a03f7c26 	beq	r20,zero,8374 <_gp+0xffff21a8>
    8584:	003f7106 	br	834c <_gp+0xffff2180>
    
    return bFind;
    
}
    8588:	dfc00917 	ldw	ra,36(sp)
    858c:	df000817 	ldw	fp,32(sp)
    8590:	ddc00717 	ldw	r23,28(sp)
    8594:	dd800617 	ldw	r22,24(sp)
    8598:	dd400517 	ldw	r21,20(sp)
    859c:	dd000417 	ldw	r20,16(sp)
    85a0:	dcc00317 	ldw	r19,12(sp)
    85a4:	dc800217 	ldw	r18,8(sp)
    85a8:	dc400117 	ldw	r17,4(sp)
    85ac:	dc000017 	ldw	r16,0(sp)
    85b0:	dec00a04 	addi	sp,sp,40
    85b4:	f800283a 	ret

000085b8 <Fat_FileCount>:


unsigned int Fat_FileCount(FAT_HANDLE Fat){
    85b8:	deffb204 	addi	sp,sp,-312
    unsigned int nCount = 0;
    FAT_BROWSE_HANDLE hBrowse;
    FILE_CONTEXT FileContext;
    
    if (Fat_FileBrowseBegin(Fat, &hBrowse)){
    85bc:	d9404a04 	addi	r5,sp,296
    return bFind;
    
}


unsigned int Fat_FileCount(FAT_HANDLE Fat){
    85c0:	dc004c15 	stw	r16,304(sp)
    85c4:	dfc04d15 	stw	ra,308(sp)
    unsigned int nCount = 0;
    FAT_BROWSE_HANDLE hBrowse;
    FILE_CONTEXT FileContext;
    
    if (Fat_FileBrowseBegin(Fat, &hBrowse)){
    85c8:	00082180 	call	8218 <Fat_FileBrowseBegin>
    85cc:	0021883a 	mov	r16,zero
    85d0:	10000626 	beq	r2,zero,85ec <Fat_FileCount+0x34>
        while(Fat_FileBrowseNext(&hBrowse, &FileContext))
    85d4:	d80b883a 	mov	r5,sp
    85d8:	d9004a04 	addi	r4,sp,296
    85dc:	00083180 	call	8318 <Fat_FileBrowseNext>
    85e0:	10000226 	beq	r2,zero,85ec <Fat_FileCount+0x34>
            nCount++;
    85e4:	84000044 	addi	r16,r16,1
    85e8:	003ffa06 	br	85d4 <_gp+0xffff2408>
    }
    
    return nCount;
}
    85ec:	8005883a 	mov	r2,r16
    85f0:	dfc04d17 	ldw	ra,308(sp)
    85f4:	dc004c17 	ldw	r16,304(sp)
    85f8:	dec04e04 	addi	sp,sp,312
    85fc:	f800283a 	ret

00008600 <Fat_FileOpen>:
    }
    return bFind;            
}    
 
// File Access
FAT_FILE_HANDLE Fat_FileOpen(FAT_HANDLE Fat, const char *pFilename){
    8600:	deffb004 	addi	sp,sp,-320
    8604:	dc004c15 	stw	r16,304(sp)
    8608:	2821883a 	mov	r16,r5
    bool bFind = FALSE;
    FAT_BROWSE_HANDLE hBrowse;     
    FILE_CONTEXT FileContext;
    FAT_FILE_INFO *pFile = 0;
    
    if (Fat_FileBrowseBegin(Fat, &hBrowse)){
    860c:	d9404a04 	addi	r5,sp,296
    }
    return bFind;            
}    
 
// File Access
FAT_FILE_HANDLE Fat_FileOpen(FAT_HANDLE Fat, const char *pFilename){
    8610:	dc804e15 	stw	r18,312(sp)
    8614:	dfc04f15 	stw	ra,316(sp)
    8618:	dc404d15 	stw	r17,308(sp)
    861c:	2025883a 	mov	r18,r4
    bool bFind = FALSE;
    FAT_BROWSE_HANDLE hBrowse;     
    FILE_CONTEXT FileContext;
    FAT_FILE_INFO *pFile = 0;
    
    if (Fat_FileBrowseBegin(Fat, &hBrowse)){
    8620:	00082180 	call	8218 <Fat_FileBrowseBegin>
    8624:	1000081e 	bne	r2,zero,8648 <Fat_FileOpen+0x48>
// File Access
FAT_FILE_HANDLE Fat_FileOpen(FAT_HANDLE Fat, const char *pFilename){
    bool bFind = FALSE;
    FAT_BROWSE_HANDLE hBrowse;     
    FILE_CONTEXT FileContext;
    FAT_FILE_INFO *pFile = 0;
    8628:	0021883a 	mov	r16,zero
    862c:	00001e06 	br	86a8 <Fat_FileOpen+0xa8>
    
    if (Fat_FileBrowseBegin(Fat, &hBrowse)){
        while (!bFind && Fat_FileBrowseNext(&hBrowse, &FileContext)){
            if (FileContext.bLongFilename){
    8630:	d8804017 	ldw	r2,256(sp)
                bFind = fatSameLongFilename((alt_u16 *)FileContext.szName, (alt_u16 *)pFilename);
    8634:	800b883a 	mov	r5,r16
    8638:	d809883a 	mov	r4,sp
    FILE_CONTEXT FileContext;
    FAT_FILE_INFO *pFile = 0;
    
    if (Fat_FileBrowseBegin(Fat, &hBrowse)){
        while (!bFind && Fat_FileBrowseNext(&hBrowse, &FileContext)){
            if (FileContext.bLongFilename){
    863c:	10000726 	beq	r2,zero,865c <Fat_FileOpen+0x5c>
                bFind = fatSameLongFilename((alt_u16 *)FileContext.szName, (alt_u16 *)pFilename);
    8640:	00082400 	call	8240 <fatSameLongFilename>
    FAT_BROWSE_HANDLE hBrowse;     
    FILE_CONTEXT FileContext;
    FAT_FILE_INFO *pFile = 0;
    
    if (Fat_FileBrowseBegin(Fat, &hBrowse)){
        while (!bFind && Fat_FileBrowseNext(&hBrowse, &FileContext)){
    8644:	1000081e 	bne	r2,zero,8668 <Fat_FileOpen+0x68>
    8648:	d80b883a 	mov	r5,sp
    864c:	d9004a04 	addi	r4,sp,296
    8650:	00083180 	call	8318 <Fat_FileBrowseNext>
    8654:	103ff61e 	bne	r2,zero,8630 <_gp+0xffff2464>
    8658:	003ff306 	br	8628 <_gp+0xffff245c>
            if (FileContext.bLongFilename){
                bFind = fatSameLongFilename((alt_u16 *)FileContext.szName, (alt_u16 *)pFilename);
            }else{
                if (strcmpi(FileContext.szName, pFilename) == 0)
    865c:	000c5800 	call	c580 <strcasecmp>
    FAT_FILE_INFO *pFile = 0;
    
    if (Fat_FileBrowseBegin(Fat, &hBrowse)){
        while (!bFind && Fat_FileBrowseNext(&hBrowse, &FileContext)){
            if (FileContext.bLongFilename){
                bFind = fatSameLongFilename((alt_u16 *)FileContext.szName, (alt_u16 *)pFilename);
    8660:	1005003a 	cmpeq	r2,r2,zero
    8664:	003ff706 	br	8644 <_gp+0xffff2478>
                    bFind = TRUE;
            }    
        } // while 
        
        if (bFind){
            pFile = malloc(sizeof(FAT_FILE_INFO));
    8668:	01005004 	movi	r4,320
    866c:	000c1200 	call	c120 <malloc>
    8670:	1021883a 	mov	r16,r2
            if (pFile){
    8674:	10000c26 	beq	r2,zero,86a8 <Fat_FileOpen+0xa8>
                pFile->OpenAttribute = FILE_OPEN_READ; 
    8678:	04400044 	movi	r17,1
    867c:	84400115 	stw	r17,4(r16)
                pFile->SeekPos = 0;
    8680:	80000215 	stw	zero,8(r16)
                pFile->Directory = FileContext;
    8684:	01804a04 	movi	r6,296
    8688:	d80b883a 	mov	r5,sp
    868c:	81000504 	addi	r4,r16,20
    8690:	000c1480 	call	c148 <memcpy>
                pFile->IsOpened = TRUE;
                pFile->Cluster = FileContext.FirstLogicalCluster;
    8694:	d880488b 	ldhu	r2,290(sp)
            pFile = malloc(sizeof(FAT_FILE_INFO));
            if (pFile){
                pFile->OpenAttribute = FILE_OPEN_READ; 
                pFile->SeekPos = 0;
                pFile->Directory = FileContext;
                pFile->IsOpened = TRUE;
    8698:	84400015 	stw	r17,0(r16)
                pFile->Cluster = FileContext.FirstLogicalCluster;
                pFile->ClusterSeq = 0;
    869c:	80000415 	stw	zero,16(r16)
            if (pFile){
                pFile->OpenAttribute = FILE_OPEN_READ; 
                pFile->SeekPos = 0;
                pFile->Directory = FileContext;
                pFile->IsOpened = TRUE;
                pFile->Cluster = FileContext.FirstLogicalCluster;
    86a0:	80800315 	stw	r2,12(r16)
                pFile->ClusterSeq = 0;
                pFile->Fat = Fat;
    86a4:	84804f15 	stw	r18,316(r16)
        }    
    }  

    
    return (FAT_FILE_HANDLE)pFile;  
}
    86a8:	8005883a 	mov	r2,r16
    86ac:	dfc04f17 	ldw	ra,316(sp)
    86b0:	dc804e17 	ldw	r18,312(sp)
    86b4:	dc404d17 	ldw	r17,308(sp)
    86b8:	dc004c17 	ldw	r16,304(sp)
    86bc:	dec05004 	addi	sp,sp,320
    86c0:	f800283a 	ret

000086c4 <Fat_FileSize>:


unsigned int Fat_FileSize(FAT_FILE_HANDLE hFileHandle){
    FAT_FILE_INFO *f = (FAT_FILE_INFO *)hFileHandle;
    if (f->IsOpened)
    86c4:	20800017 	ldw	r2,0(r4)
    86c8:	10000226 	beq	r2,zero,86d4 <Fat_FileSize+0x10>
        return f->Directory.FileSize;
    86cc:	20804e17 	ldw	r2,312(r4)
    86d0:	f800283a 	ret
    return 0;        
    86d4:	0005883a 	mov	r2,zero
}
    86d8:	f800283a 	ret

000086dc <Fat_FileRead>:
    alt_u32 Pos, PhysicalSecter, NextCluster, Cluster;
    alt_u32 BytesPerCluster, nReadCount=0, nClusterSeq;
    int s;
    bool bSuccess= TRUE;
    
    if (!f || !f->Fat)
    86dc:	2000a126 	beq	r4,zero,8964 <Fat_FileRead+0x288>
        return f->Directory.FileSize;
    return 0;        
}


bool Fat_FileRead(FAT_FILE_HANDLE hFileHandle, void *pBuffer, const int nBufferSize){
    86e0:	defff304 	addi	sp,sp,-52
    86e4:	dc000315 	stw	r16,12(sp)
    alt_u32 Pos, PhysicalSecter, NextCluster, Cluster;
    alt_u32 BytesPerCluster, nReadCount=0, nClusterSeq;
    int s;
    bool bSuccess= TRUE;
    
    if (!f || !f->Fat)
    86e8:	24004f17 	ldw	r16,316(r4)
        return f->Directory.FileSize;
    return 0;        
}


bool Fat_FileRead(FAT_FILE_HANDLE hFileHandle, void *pBuffer, const int nBufferSize){
    86ec:	dfc00c15 	stw	ra,48(sp)
    86f0:	df000b15 	stw	fp,44(sp)
    86f4:	ddc00a15 	stw	r23,40(sp)
    86f8:	dd800915 	stw	r22,36(sp)
    86fc:	dd400815 	stw	r21,32(sp)
    8700:	dd000715 	stw	r20,28(sp)
    8704:	dcc00615 	stw	r19,24(sp)
    8708:	dc800515 	stw	r18,20(sp)
    870c:	dc400415 	stw	r17,16(sp)
    alt_u32 Pos, PhysicalSecter, NextCluster, Cluster;
    alt_u32 BytesPerCluster, nReadCount=0, nClusterSeq;
    int s;
    bool bSuccess= TRUE;
    
    if (!f || !f->Fat)
    8710:	80008726 	beq	r16,zero,8930 <Fat_FileRead+0x254>
        return FALSE;
    pVol = (VOLUME_INFO *)f->Fat;        
    
    if (!f->IsOpened){
    8714:	20800017 	ldw	r2,0(r4)
    8718:	10008326 	beq	r2,zero,8928 <Fat_FileRead+0x24c>
        FAT_DEBUG(("[FAT] Fat_FileRead, file not opened\r\n"));
        return bSuccess;
    }        
        
    BytesPerCluster = pVol->nBytesPerCluster; //gVolumeInfo.BPB_BytsPerSec * gVolumeInfo.BPB_SecPerCluster;  
    871c:	85000c17 	ldw	r20,48(r16)
    8720:	d9800015 	stw	r6,0(sp)
    8724:	d9400115 	stw	r5,4(sp)
    Pos = f->SeekPos;
    if (BytesPerCluster == 32768){
    8728:	00a00014 	movui	r2,32768
    872c:	2039883a 	mov	fp,r4
        FAT_DEBUG(("[FAT] Fat_FileRead, file not opened\r\n"));
        return bSuccess;
    }        
        
    BytesPerCluster = pVol->nBytesPerCluster; //gVolumeInfo.BPB_BytsPerSec * gVolumeInfo.BPB_SecPerCluster;  
    Pos = f->SeekPos;
    8730:	24800217 	ldw	r18,8(r4)
    8734:	25800417 	ldw	r22,16(r4)
    if (BytesPerCluster == 32768){
    8738:	a080031e 	bne	r20,r2,8748 <Fat_FileRead+0x6c>
        nClusterSeq = Pos >> 15;
    873c:	902ed3fa 	srli	r23,r18,15
        Pos -= (f->ClusterSeq << 15);
    8740:	b00693fa 	slli	r3,r22,15
    8744:	00000406 	br	8758 <Fat_FileRead+0x7c>
    }else if (BytesPerCluster == 16384){
    8748:	00900004 	movi	r2,16384
    874c:	a080041e 	bne	r20,r2,8760 <Fat_FileRead+0x84>
        nClusterSeq = Pos >> 14;
    8750:	902ed3ba 	srli	r23,r18,14
        Pos -= (f->ClusterSeq << 14);
    8754:	b00693ba 	slli	r3,r22,14
    8758:	90e3c83a 	sub	r17,r18,r3
    875c:	00000d06 	br	8794 <Fat_FileRead+0xb8>
    }else if (BytesPerCluster == 2048){
    8760:	00820004 	movi	r2,2048
    8764:	a080031e 	bne	r20,r2,8774 <Fat_FileRead+0x98>
        nClusterSeq = Pos >> 11;
    8768:	902ed2fa 	srli	r23,r18,11
        Pos -= (f->ClusterSeq << 11);
    876c:	b00692fa 	slli	r3,r22,11
    8770:	003ff906 	br	8758 <_gp+0xffff258c>
    }else{        
        nClusterSeq = Pos/BytesPerCluster;
    8774:	a00b883a 	mov	r5,r20
    8778:	9009883a 	mov	r4,r18
    877c:	000ab540 	call	ab54 <__udivsi3>
        Pos -= f->ClusterSeq*BytesPerCluster;
    8780:	b00b883a 	mov	r5,r22
    8784:	a009883a 	mov	r4,r20
        Pos -= (f->ClusterSeq << 14);
    }else if (BytesPerCluster == 2048){
        nClusterSeq = Pos >> 11;
        Pos -= (f->ClusterSeq << 11);
    }else{        
        nClusterSeq = Pos/BytesPerCluster;
    8788:	102f883a 	mov	r23,r2
        Pos -= f->ClusterSeq*BytesPerCluster;
    878c:	000ac100 	call	ac10 <__mulsi3>
    8790:	90a3c83a 	sub	r17,r18,r2
    }    
        
       
    Cluster = f->Cluster;
    8794:	e4c00317 	ldw	r19,12(fp)
    8798:	05400044 	movi	r21,1
    if (nClusterSeq != f->ClusterSeq){
    879c:	bd800d1e 	bne	r23,r22,87d4 <Fat_FileRead+0xf8>
    87a0:	00000d06 	br	87d8 <Fat_FileRead+0xfc>
        Cluster = f->Cluster;  //11/20/2007, richard
        // move to first clustor for reading
        while (Pos >= BytesPerCluster && bSuccess){
    87a4:	a8000c26 	beq	r21,zero,87d8 <Fat_FileRead+0xfc>
            // go to next cluster
            NextCluster = fatNextCluster(pVol, Cluster); 
    87a8:	980b883a 	mov	r5,r19
    87ac:	8009883a 	mov	r4,r16
    87b0:	0008d800 	call	8d80 <fatNextCluster>
            if (NextCluster == 0){
    87b4:	10000b26 	beq	r2,zero,87e4 <Fat_FileRead+0x108>
    87b8:	1027883a 	mov	r19,r2
    87bc:	05400044 	movi	r21,1
            }else{
                Cluster = NextCluster;
            }        
            Pos -= BytesPerCluster;
            f->Cluster = Cluster;
            f->ClusterSeq++; 
    87c0:	e0800417 	ldw	r2,16(fp)
                bSuccess = FALSE;
                FAT_DEBUG(("[FAT] Fat_FileRead, no next Cluster, current Cluster=%d\r\n", Cluster));
            }else{
                Cluster = NextCluster;
            }        
            Pos -= BytesPerCluster;
    87c4:	8d23c83a 	sub	r17,r17,r20
            f->Cluster = Cluster;
    87c8:	e4c00315 	stw	r19,12(fp)
            f->ClusterSeq++; 
    87cc:	10800044 	addi	r2,r2,1
    87d0:	e0800415 	stw	r2,16(fp)
       
    Cluster = f->Cluster;
    if (nClusterSeq != f->ClusterSeq){
        Cluster = f->Cluster;  //11/20/2007, richard
        // move to first clustor for reading
        while (Pos >= BytesPerCluster && bSuccess){
    87d4:	8d3ff32e 	bgeu	r17,r20,87a4 <_gp+0xffff25d8>
        }    
            
        // next cluster
        if (nReadCount < nBufferSize){
            NextCluster = fatNextCluster(pVol, Cluster); 
            if (NextCluster == 0){
    87d8:	002d883a 	mov	r22,zero
    87dc:	85c01004 	addi	r23,r16,64
    87e0:	00001006 	br	8824 <Fat_FileRead+0x148>
        // move to first clustor for reading
        while (Pos >= BytesPerCluster && bSuccess){
            // go to next cluster
            NextCluster = fatNextCluster(pVol, Cluster); 
            if (NextCluster == 0){
                bSuccess = FALSE;
    87e4:	002b883a 	mov	r21,zero
    87e8:	003ff506 	br	87c0 <_gp+0xffff25f4>
            f->ClusterSeq++; 
        }
    }            
    
    // reading
    while(nReadCount < nBufferSize && bSuccess){
    87ec:	a8005026 	beq	r21,zero,8930 <Fat_FileRead+0x254>
        if (pVol->BPB_SecPerCluster == 32)
    87f0:	81400717 	ldw	r5,28(r16)
    87f4:	00800804 	movi	r2,32
    87f8:	993fff84 	addi	r4,r19,-2
    87fc:	84800f17 	ldw	r18,60(r16)
    8800:	28800b1e 	bne	r5,r2,8830 <Fat_FileRead+0x154>
            PhysicalSecter = ((Cluster-2) << 5) + pVol->DataEntrySecter; // -2: FAT0 & FAT1 are reserved
    8804:	2008917a 	slli	r4,r4,5
    8808:	24a5883a 	add	r18,r4,r18
                            Pos = 0;
                    }else{
                        memcpy((void *)((char *)pBuffer+nReadCount), pVol->Secter_Data+Pos,nCopyCount);
                        nReadCount += nCopyCount;
                        if (Pos > 0)
                            Pos = 0;
    880c:	9029883a 	mov	r20,r18
            PhysicalSecter = ((Cluster-2) << 5) + pVol->DataEntrySecter; // -2: FAT0 & FAT1 are reserved
        else if (pVol->BPB_SecPerCluster == 64)
            PhysicalSecter = ((Cluster-2) << 6) + pVol->DataEntrySecter; // -2: FAT0 & FAT1 are reserved
        else
            PhysicalSecter = (Cluster-2)*pVol->BPB_SecPerCluster + pVol->DataEntrySecter; // -2: FAT0 & FAT1 are reserved
        for(s=0;s<pVol->BPB_SecPerCluster && nReadCount < nBufferSize && bSuccess;s++){
    8810:	81000717 	ldw	r4,28(r16)
    8814:	a485c83a 	sub	r2,r20,r18
    8818:	d8c00017 	ldw	r3,0(sp)
    881c:	11002e2e 	bgeu	r2,r4,88d8 <Fat_FileRead+0x1fc>
    8820:	b0c00a36 	bltu	r22,r3,884c <Fat_FileRead+0x170>
            f->ClusterSeq++; 
        }
    }            
    
    // reading
    while(nReadCount < nBufferSize && bSuccess){
    8824:	d8c00017 	ldw	r3,0(sp)
    8828:	b0fff036 	bltu	r22,r3,87ec <_gp+0xffff2620>
    882c:	00003706 	br	890c <Fat_FileRead+0x230>
        if (pVol->BPB_SecPerCluster == 32)
            PhysicalSecter = ((Cluster-2) << 5) + pVol->DataEntrySecter; // -2: FAT0 & FAT1 are reserved
        else if (pVol->BPB_SecPerCluster == 64)
    8830:	00c01004 	movi	r3,64
    8834:	28c0021e 	bne	r5,r3,8840 <Fat_FileRead+0x164>
            PhysicalSecter = ((Cluster-2) << 6) + pVol->DataEntrySecter; // -2: FAT0 & FAT1 are reserved
    8838:	200891ba 	slli	r4,r4,6
    883c:	003ff206 	br	8808 <_gp+0xffff263c>
        else
            PhysicalSecter = (Cluster-2)*pVol->BPB_SecPerCluster + pVol->DataEntrySecter; // -2: FAT0 & FAT1 are reserved
    8840:	000ac100 	call	ac10 <__mulsi3>
    8844:	14a5883a 	add	r18,r2,r18
    8848:	003ff006 	br	880c <_gp+0xffff2640>
        for(s=0;s<pVol->BPB_SecPerCluster && nReadCount < nBufferSize && bSuccess;s++){
    884c:	a8002326 	beq	r21,zero,88dc <Fat_FileRead+0x200>
            if (Pos >= pVol->BPB_BytsPerSec){
    8850:	80800617 	ldw	r2,24(r16)
    8854:	88800236 	bltu	r17,r2,8860 <Fat_FileRead+0x184>
                Pos -= pVol->BPB_BytsPerSec;
    8858:	88a3c83a 	sub	r17,r17,r2
    885c:	00001c06 	br	88d0 <Fat_FileRead+0x1f4>
            }else{
                // read secter data
                bSuccess = fatReadSecter(pVol, PhysicalSecter);
    8860:	a00b883a 	mov	r5,r20
    8864:	8009883a 	mov	r4,r16
    8868:	0008d140 	call	8d14 <fatReadSecter>
    886c:	102b883a 	mov	r21,r2
                
                if (bSuccess){
    8870:	10001726 	beq	r2,zero,88d0 <Fat_FileRead+0x1f4>
                    // copy data to user buffer
                
                    int nCopyCount;
                    nCopyCount = pVol->BPB_BytsPerSec;
    8874:	82000617 	ldw	r8,24(r16)
                    if (Pos)
    8878:	88000126 	beq	r17,zero,8880 <Fat_FileRead+0x1a4>
                        nCopyCount -= Pos;
    887c:	4451c83a 	sub	r8,r8,r17
                    if (nCopyCount > (nBufferSize-nReadCount))
    8880:	d8c00017 	ldw	r3,0(sp)
    8884:	1d85c83a 	sub	r2,r3,r22
    8888:	1200012e 	bgeu	r2,r8,8890 <Fat_FileRead+0x1b4>
                        nCopyCount = nBufferSize-nReadCount;
    888c:	1011883a 	mov	r8,r2
    8890:	d8c00117 	ldw	r3,4(sp)
                    if (nCopyCount == 512){
    8894:	00808004 	movi	r2,512
    8898:	1d89883a 	add	r4,r3,r22
    889c:	4080051e 	bne	r8,r2,88b4 <Fat_FileRead+0x1d8>
                        memcpy((char *)pBuffer+nReadCount, pVol->Secter_Data, 512);
    88a0:	100d883a 	mov	r6,r2
    88a4:	b80b883a 	mov	r5,r23
    88a8:	000c1480 	call	c148 <memcpy>
                        nReadCount += nCopyCount;
    88ac:	b5808004 	addi	r22,r22,512
    88b0:	00000606 	br	88cc <Fat_FileRead+0x1f0>
                        if (Pos > 0)
                            Pos = 0;
                    }else{
                        memcpy((void *)((char *)pBuffer+nReadCount), pVol->Secter_Data+Pos,nCopyCount);
    88b4:	400d883a 	mov	r6,r8
    88b8:	bc4b883a 	add	r5,r23,r17
    88bc:	da000215 	stw	r8,8(sp)
    88c0:	000c1480 	call	c148 <memcpy>
                        nReadCount += nCopyCount;
    88c4:	da000217 	ldw	r8,8(sp)
    88c8:	b22d883a 	add	r22,r22,r8
                        if (Pos > 0)
                            Pos = 0;
    88cc:	0023883a 	mov	r17,zero
                    }         
                }    // if bSuccess
                    
            }
            PhysicalSecter++;
    88d0:	a5000044 	addi	r20,r20,1
    88d4:	003fce06 	br	8810 <_gp+0xffff2644>
        }    
            
        // next cluster
        if (nReadCount < nBufferSize){
    88d8:	b0ffd22e 	bgeu	r22,r3,8824 <_gp+0xffff2658>
            NextCluster = fatNextCluster(pVol, Cluster); 
    88dc:	980b883a 	mov	r5,r19
    88e0:	8009883a 	mov	r4,r16
    88e4:	0008d800 	call	8d80 <fatNextCluster>
            if (NextCluster == 0){
    88e8:	10000226 	beq	r2,zero,88f4 <Fat_FileRead+0x218>
    88ec:	1027883a 	mov	r19,r2
    88f0:	00000106 	br	88f8 <Fat_FileRead+0x21c>
                bSuccess = FALSE;
    88f4:	002b883a 	mov	r21,zero
                FAT_DEBUG(("[FAT] Fat_FileRead, no next cluster\r\n"));
            }else{
                Cluster = NextCluster;
            }    
            //    
            f->ClusterSeq++; 
    88f8:	e0800417 	ldw	r2,16(fp)
            f->Cluster = Cluster;
    88fc:	e4c00315 	stw	r19,12(fp)
                FAT_DEBUG(("[FAT] Fat_FileRead, no next cluster\r\n"));
            }else{
                Cluster = NextCluster;
            }    
            //    
            f->ClusterSeq++; 
    8900:	10800044 	addi	r2,r2,1
    8904:	e0800415 	stw	r2,16(fp)
    8908:	003fc606 	br	8824 <_gp+0xffff2658>
            f->Cluster = Cluster;
        }                    
    }
    
    if (bSuccess){
    890c:	a8000826 	beq	r21,zero,8930 <Fat_FileRead+0x254>
        f->SeekPos += nBufferSize;
    8910:	e1800217 	ldw	r6,8(fp)
    8914:	d8c00017 	ldw	r3,0(sp)
    8918:	a805883a 	mov	r2,r21
    891c:	30e3883a 	add	r17,r6,r3
    8920:	e4400215 	stw	r17,8(fp)
    8924:	00000306 	br	8934 <Fat_FileRead+0x258>
        return FALSE;
    pVol = (VOLUME_INFO *)f->Fat;        
    
    if (!f->IsOpened){
        FAT_DEBUG(("[FAT] Fat_FileRead, file not opened\r\n"));
        return bSuccess;
    8928:	00800044 	movi	r2,1
    892c:	00000106 	br	8934 <Fat_FileRead+0x258>
    8930:	0005883a 	mov	r2,zero
        f->SeekPos += nBufferSize;
    }        
        
    
    return bSuccess;
}
    8934:	dfc00c17 	ldw	ra,48(sp)
    8938:	df000b17 	ldw	fp,44(sp)
    893c:	ddc00a17 	ldw	r23,40(sp)
    8940:	dd800917 	ldw	r22,36(sp)
    8944:	dd400817 	ldw	r21,32(sp)
    8948:	dd000717 	ldw	r20,28(sp)
    894c:	dcc00617 	ldw	r19,24(sp)
    8950:	dc800517 	ldw	r18,20(sp)
    8954:	dc400417 	ldw	r17,16(sp)
    8958:	dc000317 	ldw	r16,12(sp)
    895c:	dec00d04 	addi	sp,sp,52
    8960:	f800283a 	ret
    alt_u32 BytesPerCluster, nReadCount=0, nClusterSeq;
    int s;
    bool bSuccess= TRUE;
    
    if (!f || !f->Fat)
        return FALSE;
    8964:	0005883a 	mov	r2,zero
        f->SeekPos += nBufferSize;
    }        
        
    
    return bSuccess;
}
    8968:	f800283a 	ret

0000896c <Fat_FileSeek>:
bool Fat_FileSeek(FAT_FILE_HANDLE hFileHandle, const FAT_SEEK_POS SeekPos, const int nOffset){
    FAT_FILE_INFO *f = (FAT_FILE_INFO *)hFileHandle;
    VOLUME_INFO *pVol;
    bool bSuccess= TRUE;

    if (!f || !f->Fat)
    896c:	20001826 	beq	r4,zero,89d0 <Fat_FileSeek+0x64>
    8970:	20804f17 	ldw	r2,316(r4)
    8974:	10001626 	beq	r2,zero,89d0 <Fat_FileSeek+0x64>
        return FALSE;
    pVol = (VOLUME_INFO *)f->Fat;        
    
    if (!f->IsOpened)
    8978:	20800017 	ldw	r2,0(r4)
    897c:	10001526 	beq	r2,zero,89d4 <Fat_FileSeek+0x68>
        return FALSE;
        
    switch(SeekPos){
    8980:	00800044 	movi	r2,1
    8984:	28800626 	beq	r5,r2,89a0 <Fat_FileSeek+0x34>
    8988:	28000a26 	beq	r5,zero,89b4 <Fat_FileSeek+0x48>
    898c:	00c00084 	movi	r3,2
    8990:	28c00a1e 	bne	r5,r3,89bc <Fat_FileSeek+0x50>
            break;
        case FILE_SEEK_CURRENT: 
            f->SeekPos += nOffset; 
            break;
        case FILE_SEEK_END: 
            f->SeekPos = f->Directory.FileSize+nOffset; 
    8994:	20c04e17 	ldw	r3,312(r4)
    8998:	198d883a 	add	r6,r3,r6
    899c:	00000506 	br	89b4 <Fat_FileSeek+0x48>
    switch(SeekPos){
        case FILE_SEEK_BEGIN: 
            f->SeekPos = nOffset; 
            break;
        case FILE_SEEK_CURRENT: 
            f->SeekPos += nOffset; 
    89a0:	20800217 	ldw	r2,8(r4)
    89a4:	118d883a 	add	r6,r2,r6
    89a8:	21800215 	stw	r6,8(r4)


bool Fat_FileSeek(FAT_FILE_HANDLE hFileHandle, const FAT_SEEK_POS SeekPos, const int nOffset){
    FAT_FILE_INFO *f = (FAT_FILE_INFO *)hFileHandle;
    VOLUME_INFO *pVol;
    bool bSuccess= TRUE;
    89ac:	2805883a 	mov	r2,r5
        case FILE_SEEK_BEGIN: 
            f->SeekPos = nOffset; 
            break;
        case FILE_SEEK_CURRENT: 
            f->SeekPos += nOffset; 
            break;
    89b0:	00000306 	br	89c0 <Fat_FileSeek+0x54>
        case FILE_SEEK_END: 
            f->SeekPos = f->Directory.FileSize+nOffset; 
    89b4:	21800215 	stw	r6,8(r4)
            break;
    89b8:	00000106 	br	89c0 <Fat_FileSeek+0x54>
        default:
            bSuccess = FALSE;
    89bc:	0005883a 	mov	r2,zero
            break;    
              
    }
    f->Cluster = f->Directory.FirstLogicalCluster;
    89c0:	20c04d8b 	ldhu	r3,310(r4)
    f->ClusterSeq = 0;
    89c4:	20000415 	stw	zero,16(r4)
        default:
            bSuccess = FALSE;
            break;    
              
    }
    f->Cluster = f->Directory.FirstLogicalCluster;
    89c8:	20c00315 	stw	r3,12(r4)
    f->ClusterSeq = 0;
    
    return bSuccess;
    89cc:	f800283a 	ret
    FAT_FILE_INFO *f = (FAT_FILE_INFO *)hFileHandle;
    VOLUME_INFO *pVol;
    bool bSuccess= TRUE;

    if (!f || !f->Fat)
        return FALSE;
    89d0:	0005883a 	mov	r2,zero
    f->Cluster = f->Directory.FirstLogicalCluster;
    f->ClusterSeq = 0;
    
    return bSuccess;
    
}
    89d4:	f800283a 	ret

000089d8 <Fat_FileClose>:

void Fat_FileClose(FAT_FILE_HANDLE hFileHandle){
    FAT_FILE_INFO *f = (FAT_FILE_INFO *)hFileHandle;
    if (!f)
    89d8:	20000126 	beq	r4,zero,89e0 <Fat_FileClose+0x8>
        return;
        
    free(f);        
    89dc:	000c1341 	jmpi	c134 <free>
    89e0:	f800283a 	ret

000089e4 <Fat_FileExist>:





bool Fat_FileExist(FAT_HANDLE Fat, const char *pFilename){
    89e4:	deffb004 	addi	sp,sp,-320
    89e8:	dc004d15 	stw	r16,308(sp)
    89ec:	2821883a 	mov	r16,r5
    bool bFind = FALSE;
    FAT_BROWSE_HANDLE hBrowse;     
    FILE_CONTEXT FileContext;
    if (Fat_FileBrowseBegin(Fat, &hBrowse)){
    89f0:	d9404a04 	addi	r5,sp,296





bool Fat_FileExist(FAT_HANDLE Fat, const char *pFilename){
    89f4:	dc404e15 	stw	r17,312(sp)
    89f8:	dfc04f15 	stw	ra,316(sp)
    89fc:	2023883a 	mov	r17,r4
    bool bFind = FALSE;
    FAT_BROWSE_HANDLE hBrowse;     
    FILE_CONTEXT FileContext;
    if (Fat_FileBrowseBegin(Fat, &hBrowse)){
    8a00:	00082180 	call	8218 <Fat_FileBrowseBegin>
    8a04:	10001126 	beq	r2,zero,8a4c <Fat_FileExist+0x68>
        while (!bFind && Fat_FileBrowseNext(&hBrowse, &FileContext)){
    8a08:	d80b883a 	mov	r5,sp
    8a0c:	d9004a04 	addi	r4,sp,296
    8a10:	00083180 	call	8318 <Fat_FileBrowseNext>
    8a14:	10000926 	beq	r2,zero,8a3c <Fat_FileExist+0x58>
            if (FileContext.bLongFilename){
    8a18:	d8804017 	ldw	r2,256(sp)
                bFind = fatSameLongFilename((alt_u16 *)FileContext.szName, (alt_u16 *)pFilename);
    8a1c:	800b883a 	mov	r5,r16
    8a20:	d809883a 	mov	r4,sp
    bool bFind = FALSE;
    FAT_BROWSE_HANDLE hBrowse;     
    FILE_CONTEXT FileContext;
    if (Fat_FileBrowseBegin(Fat, &hBrowse)){
        while (!bFind && Fat_FileBrowseNext(&hBrowse, &FileContext)){
            if (FileContext.bLongFilename){
    8a24:	10000226 	beq	r2,zero,8a30 <Fat_FileExist+0x4c>
                bFind = fatSameLongFilename((alt_u16 *)FileContext.szName, (alt_u16 *)pFilename);
    8a28:	00082400 	call	8240 <fatSameLongFilename>
    8a2c:	00000206 	br	8a38 <Fat_FileExist+0x54>
            }else{
                if (strcmpi(FileContext.szName, pFilename) == 0)
    8a30:	000c5800 	call	c580 <strcasecmp>
    FAT_BROWSE_HANDLE hBrowse;     
    FILE_CONTEXT FileContext;
    if (Fat_FileBrowseBegin(Fat, &hBrowse)){
        while (!bFind && Fat_FileBrowseNext(&hBrowse, &FileContext)){
            if (FileContext.bLongFilename){
                bFind = fatSameLongFilename((alt_u16 *)FileContext.szName, (alt_u16 *)pFilename);
    8a34:	1005003a 	cmpeq	r2,r2,zero
bool Fat_FileExist(FAT_HANDLE Fat, const char *pFilename){
    bool bFind = FALSE;
    FAT_BROWSE_HANDLE hBrowse;     
    FILE_CONTEXT FileContext;
    if (Fat_FileBrowseBegin(Fat, &hBrowse)){
        while (!bFind && Fat_FileBrowseNext(&hBrowse, &FileContext)){
    8a38:	103ff326 	beq	r2,zero,8a08 <_gp+0xffff283c>
            }else{
                if (strcmpi(FileContext.szName, pFilename) == 0)
                    bFind = TRUE;
            }    
        } // while 
        Fat_FileClose(Fat); 
    8a3c:	8809883a 	mov	r4,r17
    8a40:	d8804c15 	stw	r2,304(sp)
    8a44:	00089d80 	call	89d8 <Fat_FileClose>
    8a48:	d8804c17 	ldw	r2,304(sp)
    }
    return bFind;            
}    
    8a4c:	dfc04f17 	ldw	ra,316(sp)
    8a50:	dc404e17 	ldw	r17,312(sp)
    8a54:	dc004d17 	ldw	r16,308(sp)
    8a58:	dec05004 	addi	sp,sp,320
    8a5c:	f800283a 	ret

00008a60 <Fat_SpeedTest>:
    alt_u32 time_start, time_finish, time_elapsed, TotalReadBytes=0;
    int nSecter = 0;
    float fMegaBytePerSec = 0;
    char szBlock[512];
    VOLUME_INFO *pVol = (VOLUME_INFO *)hFat;
    if (!pVol)
    8a60:	20004726 	beq	r4,zero,8b80 <Fat_SpeedTest+0x120>
    free(f);        
}



float Fat_SpeedTest(FAT_HANDLE hFat, alt_u32 TestDurInMs){
    8a64:	deff7a04 	addi	sp,sp,-536
    8a68:	dc008015 	stw	r16,512(sp)
    8a6c:	2021883a 	mov	r16,r4
    8a70:	2809883a 	mov	r4,r5
    char szBlock[512];
    VOLUME_INFO *pVol = (VOLUME_INFO *)hFat;
    if (!pVol)
        return 0;
    time_start = alt_nticks();
    time_finish = alt_nticks() + TestDurInMs * 1000 / alt_ticks_per_second();
    8a74:	0140fa04 	movi	r5,1000
    free(f);        
}



float Fat_SpeedTest(FAT_HANDLE hFat, alt_u32 TestDurInMs){
    8a78:	dfc08515 	stw	ra,532(sp)
    8a7c:	dcc08315 	stw	r19,524(sp)
    8a80:	dc808215 	stw	r18,520(sp)
    8a84:	dc408115 	stw	r17,516(sp)
    8a88:	dd008415 	stw	r20,528(sp)
    char szBlock[512];
    VOLUME_INFO *pVol = (VOLUME_INFO *)hFat;
    if (!pVol)
        return 0;
    time_start = alt_nticks();
    time_finish = alt_nticks() + TestDurInMs * 1000 / alt_ticks_per_second();
    8a8c:	000ac100 	call	ac10 <__mulsi3>
    8a90:	d160e617 	ldw	r5,-31848(gp)
 * alt_nticks() returns the elapsed number of system clock ticks since reset.
 */

static ALT_INLINE alt_u32 ALT_ALWAYS_INLINE alt_nticks (void)
{
  return _alt_nticks;
    8a94:	d4e0e517 	ldw	r19,-31852(gp)
    8a98:	d4a0e517 	ldw	r18,-31852(gp)
    8a9c:	1009883a 	mov	r4,r2
    8aa0:	000ab540 	call	ab54 <__udivsi3>
    8aa4:	14a5883a 	add	r18,r2,r18


float Fat_SpeedTest(FAT_HANDLE hFat, alt_u32 TestDurInMs){
    bool bSuccess = TRUE;
    alt_u32 time_start, time_finish, time_elapsed, TotalReadBytes=0;
    int nSecter = 0;
    8aa8:	0023883a 	mov	r17,zero
}



float Fat_SpeedTest(FAT_HANDLE hFat, alt_u32 TestDurInMs){
    bool bSuccess = TRUE;
    8aac:	00800044 	movi	r2,1
    8ab0:	d0e0e517 	ldw	r3,-31852(gp)
    8ab4:	8828927a 	slli	r20,r17,9
    VOLUME_INFO *pVol = (VOLUME_INFO *)hFat;
    if (!pVol)
        return 0;
    time_start = alt_nticks();
    time_finish = alt_nticks() + TestDurInMs * 1000 / alt_ticks_per_second();
    while(alt_nticks() < time_finish && bSuccess){
    8ab8:	1c800a2e 	bgeu	r3,r18,8ae4 <Fat_SpeedTest+0x84>
    8abc:	1000021e 	bne	r2,zero,8ac8 <Fat_SpeedTest+0x68>
    int nSecter = 0;
    float fMegaBytePerSec = 0;
    char szBlock[512];
    VOLUME_INFO *pVol = (VOLUME_INFO *)hFat;
    if (!pVol)
        return 0;
    8ac0:	0005883a 	mov	r2,zero
    8ac4:	00002606 	br	8b60 <Fat_SpeedTest+0x100>
    time_start = alt_nticks();
    time_finish = alt_nticks() + TestDurInMs * 1000 / alt_ticks_per_second();
    while(alt_nticks() < time_finish && bSuccess){
        bSuccess = pVol->ReadBlock512(pVol->DiskHandle, nSecter, szBlock);
    8ac8:	80800117 	ldw	r2,4(r16)
    8acc:	81000017 	ldw	r4,0(r16)
    8ad0:	880b883a 	mov	r5,r17
    8ad4:	d80d883a 	mov	r6,sp
    8ad8:	103ee83a 	callr	r2
        nSecter++;
    8adc:	8c400044 	addi	r17,r17,1
    8ae0:	003ff306 	br	8ab0 <_gp+0xffff28e4>
        TotalReadBytes += sizeof(szBlock);
        
    }        
    if (bSuccess){
    8ae4:	103ff626 	beq	r2,zero,8ac0 <_gp+0xffff28f4>
        time_elapsed = alt_nticks() - time_start;
        fMegaBytePerSec = (float)TotalReadBytes * (float)alt_ticks_per_second() / (float)time_elapsed / 1024.0 / 1024.0;
    8ae8:	d120e617 	ldw	r4,-31848(gp)
    8aec:	d460e517 	ldw	r17,-31852(gp)
    8af0:	000b4a80 	call	b4a8 <__floatunsisf>
    8af4:	a009883a 	mov	r4,r20
    8af8:	1021883a 	mov	r16,r2
    8afc:	000b4a80 	call	b4a8 <__floatunsisf>
    8b00:	100b883a 	mov	r5,r2
    8b04:	8009883a 	mov	r4,r16
    8b08:	000b0780 	call	b078 <__mulsf3>
    8b0c:	8cc9c83a 	sub	r4,r17,r19
    8b10:	1021883a 	mov	r16,r2
    8b14:	000b4a80 	call	b4a8 <__floatunsisf>
    8b18:	100b883a 	mov	r5,r2
    8b1c:	8009883a 	mov	r4,r16
    8b20:	000ac380 	call	ac38 <__divsf3>
    8b24:	1009883a 	mov	r4,r2
    8b28:	000be040 	call	be04 <__extendsfdf2>
    8b2c:	000d883a 	mov	r6,zero
    8b30:	01cfd434 	movhi	r7,16208
    8b34:	1009883a 	mov	r4,r2
    8b38:	180b883a 	mov	r5,r3
    8b3c:	000b5980 	call	b598 <__muldf3>
    8b40:	1009883a 	mov	r4,r2
    8b44:	180b883a 	mov	r5,r3
    8b48:	000d883a 	mov	r6,zero
    8b4c:	01cfd434 	movhi	r7,16208
    8b50:	000b5980 	call	b598 <__muldf3>
    8b54:	1009883a 	mov	r4,r2
    8b58:	180b883a 	mov	r5,r3
    8b5c:	000bf140 	call	bf14 <__truncdfsf2>
    }        
    return fMegaBytePerSec;
    
   
}
    8b60:	dfc08517 	ldw	ra,532(sp)
    8b64:	dd008417 	ldw	r20,528(sp)
    8b68:	dcc08317 	ldw	r19,524(sp)
    8b6c:	dc808217 	ldw	r18,520(sp)
    8b70:	dc408117 	ldw	r17,516(sp)
    8b74:	dc008017 	ldw	r16,512(sp)
    8b78:	dec08604 	addi	sp,sp,536
    8b7c:	f800283a 	ret
    int nSecter = 0;
    float fMegaBytePerSec = 0;
    char szBlock[512];
    VOLUME_INFO *pVol = (VOLUME_INFO *)hFat;
    if (!pVol)
        return 0;
    8b80:	0005883a 	mov	r2,zero
        fMegaBytePerSec = (float)TotalReadBytes * (float)alt_ticks_per_second() / (float)time_elapsed / 1024.0 / 1024.0;
    }        
    return fMegaBytePerSec;
    
   
}
    8b84:	f800283a 	ret

00008b88 <SD_ReadBlock512>:
}

//===================== SUPPORT_SD_CARD =================================================
#ifdef SUPPORT_SD_CARD

bool SD_ReadBlock512(DISK_HANDLE DiskHandle, alt_u32 PysicalSelector, alt_u8 szBuf[512]){
    8b88:	2809883a 	mov	r4,r5
    return SDLIB_ReadBlock512(PysicalSelector, szBuf);
    8b8c:	300b883a 	mov	r5,r6
    8b90:	0009d181 	jmpi	9d18 <SDLIB_ReadBlock512>

00008b94 <SD_WriteBlock512>:
}

bool SD_WriteBlock512(DISK_HANDLE DiskHandle, alt_u32 PysicalSelector, alt_u8 szBuf[512]){
    8b94:	2809883a 	mov	r4,r5
    return SDLIB_WriteBlock512(PysicalSelector, szBuf);
    8b98:	300b883a 	mov	r5,r6
    8b9c:	0009d701 	jmpi	9d70 <SDLIB_WriteBlock512>

00008ba0 <fat16ClusterType>:



CLUSTER_TYPE fat16ClusterType(alt_u32 Fat){
    CLUSTER_TYPE Type;
    Fat = Fat & 0xFFFF; // 16 bits
    8ba0:	213fffcc 	andi	r4,r4,65535
    
    if (Fat > 0 && Fat < 0xFFF0)
    8ba4:	20ffffc4 	addi	r3,r4,-1
    8ba8:	017ffb94 	movui	r5,65518
    8bac:	28c00b2e 	bgeu	r5,r3,8bdc <fat16ClusterType+0x3c>
        Type = CLUSTER_NEXT_INFILE;
    else if (Fat >= 0xFFF8) // && Fat <= (unsigned short)0xFFFF)
    8bb0:	017ffdd4 	movui	r5,65527
    8bb4:	29000b36 	bltu	r5,r4,8be4 <fat16ClusterType+0x44>
        Type = CLUSTER_LAST_INFILE;
    else if (Fat == (alt_u16)0x00)
    8bb8:	20000c26 	beq	r4,zero,8bec <fat16ClusterType+0x4c>
        Type = CLUSTER_UNUSED;
    else if (Fat >= 0xFFF0 && Fat <= 0xFFF6)
    8bbc:	00fffff4 	movhi	r3,65535
    8bc0:	18c00404 	addi	r3,r3,16
    8bc4:	20c7883a 	add	r3,r4,r3
    8bc8:	01800184 	movi	r6,6
    8bcc:	30c0092e 	bgeu	r6,r3,8bf4 <fat16ClusterType+0x54>
        Type = CLUSTER_RESERVED;
    else if (Fat == 0xFFF7)
    8bd0:	2140091e 	bne	r4,r5,8bf8 <fat16ClusterType+0x58>
        Type = CLUSTER_BAD;
    8bd4:	00800084 	movi	r2,2
    8bd8:	f800283a 	ret
CLUSTER_TYPE fat16ClusterType(alt_u32 Fat){
    CLUSTER_TYPE Type;
    Fat = Fat & 0xFFFF; // 16 bits
    
    if (Fat > 0 && Fat < 0xFFF0)
        Type = CLUSTER_NEXT_INFILE;
    8bdc:	00800104 	movi	r2,4
    8be0:	f800283a 	ret
    else if (Fat >= 0xFFF8) // && Fat <= (unsigned short)0xFFFF)
        Type = CLUSTER_LAST_INFILE;
    8be4:	008000c4 	movi	r2,3
    8be8:	f800283a 	ret
    else if (Fat == (alt_u16)0x00)
        Type = CLUSTER_UNUSED;
    8bec:	0005883a 	mov	r2,zero
    8bf0:	f800283a 	ret
    else if (Fat >= 0xFFF0 && Fat <= 0xFFF6)
        Type = CLUSTER_RESERVED;
    8bf4:	00800044 	movi	r2,1
    else if (Fat == 0xFFF7)
        Type = CLUSTER_BAD;
        
    return Type;        
         
}
    8bf8:	f800283a 	ret

00008bfc <fat32ClusterType>:

CLUSTER_TYPE fat32ClusterType(alt_u32 Fat){
    CLUSTER_TYPE Type;
    Fat = Fat & 0xFFFFFFF; // 28 bits
    8bfc:	00c40034 	movhi	r3,4096
    8c00:	18ffffc4 	addi	r3,r3,-1
    8c04:	20c8703a 	and	r4,r4,r3
    
    if (Fat > 0 && Fat < 0xFFFFFF0)
    8c08:	01440034 	movhi	r5,4096
    8c0c:	20ffffc4 	addi	r3,r4,-1
    8c10:	297ffb84 	addi	r5,r5,-18
    8c14:	28c00c2e 	bgeu	r5,r3,8c48 <fat32ClusterType+0x4c>
        Type = CLUSTER_NEXT_INFILE;
    else if (Fat >= 0xFFFFFF8) // && Fat <= (unsigned short)0xFFFF)
    8c18:	01440034 	movhi	r5,4096
    8c1c:	297ffdc4 	addi	r5,r5,-9
    8c20:	29000b36 	bltu	r5,r4,8c50 <fat32ClusterType+0x54>
        Type = CLUSTER_LAST_INFILE;
    else if (Fat == (alt_u32)0x00)
    8c24:	20000c26 	beq	r4,zero,8c58 <fat32ClusterType+0x5c>
        Type = CLUSTER_UNUSED;
    else if (Fat >= 0xFFFFFF0 && Fat <= 0xFFFFFF6)
    8c28:	00fc0034 	movhi	r3,61440
    8c2c:	18c00404 	addi	r3,r3,16
    8c30:	20c7883a 	add	r3,r4,r3
    8c34:	01800184 	movi	r6,6
    8c38:	30c0092e 	bgeu	r6,r3,8c60 <fat32ClusterType+0x64>
        Type = CLUSTER_RESERVED;
    else if (Fat == 0xFFFFFF7)
    8c3c:	2140091e 	bne	r4,r5,8c64 <fat32ClusterType+0x68>
        Type = CLUSTER_BAD;
    8c40:	00800084 	movi	r2,2
    8c44:	f800283a 	ret
CLUSTER_TYPE fat32ClusterType(alt_u32 Fat){
    CLUSTER_TYPE Type;
    Fat = Fat & 0xFFFFFFF; // 28 bits
    
    if (Fat > 0 && Fat < 0xFFFFFF0)
        Type = CLUSTER_NEXT_INFILE;
    8c48:	00800104 	movi	r2,4
    8c4c:	f800283a 	ret
    else if (Fat >= 0xFFFFFF8) // && Fat <= (unsigned short)0xFFFF)
        Type = CLUSTER_LAST_INFILE;
    8c50:	008000c4 	movi	r2,3
    8c54:	f800283a 	ret
    else if (Fat == (alt_u32)0x00)
        Type = CLUSTER_UNUSED;
    8c58:	0005883a 	mov	r2,zero
    8c5c:	f800283a 	ret
    else if (Fat >= 0xFFFFFF0 && Fat <= 0xFFFFFF6)
        Type = CLUSTER_RESERVED;
    8c60:	00800044 	movi	r2,1
    else if (Fat == 0xFFFFFF7)
        Type = CLUSTER_BAD;
        
    return Type;        
         
}
    8c64:	f800283a 	ret

00008c68 <fatDumpDate>:
    8c68:	f800283a 	ret

00008c6c <fatDumpTime>:
    Month = ((Date >> 5) & 0xF);
    Day = ((Date >> 0) & 0x1F);
    FAT_DEBUG(("%d,%d,%d", Year, Month, Day)); 
}

void fatDumpTime(unsigned short Date){
    8c6c:	f800283a 	ret

00008c70 <fatIsLastDir>:
    M = ((Date >> 5) & 0x3F);
    S = ((Date >> 0) & 0x1F)*2;
    FAT_DEBUG(("%d:%d:%d", H, M, S));     
}

bool fatIsLastDir(FAT_DIRECTORY *pDir){
    8c70:	20800007 	ldb	r2,0(r4)
    if (pDir->Name[0] == REMAINED_UNUSED_DIR_ENTRY)  // 0x00
        return TRUE;
    return FALSE;        
}
    8c74:	1005003a 	cmpeq	r2,r2,zero
    8c78:	f800283a 	ret

00008c7c <fatIsValidDir>:


bool fatIsValidDir(FAT_DIRECTORY *pDir){
    8c7c:	defff904 	addi	sp,sp,-28
    char szTest[] = {0x00, 0xE5, 0x22, 0x2A, 0x2B, 0x2C, 0x2E, 0x2F, 0x3A, 0x3B, 0x3C, 0x3E, 0x3F, 0x5B, 0x5C, 0x5D, 0x7C};
    8c80:	01400074 	movhi	r5,1
        return TRUE;
    return FALSE;        
}


bool fatIsValidDir(FAT_DIRECTORY *pDir){
    8c84:	dc000515 	stw	r16,20(sp)
    char szTest[] = {0x00, 0xE5, 0x22, 0x2A, 0x2B, 0x2C, 0x2E, 0x2F, 0x3A, 0x3B, 0x3C, 0x3E, 0x3F, 0x5B, 0x5C, 0x5D, 0x7C};
    8c88:	01800444 	movi	r6,17
        return TRUE;
    return FALSE;        
}


bool fatIsValidDir(FAT_DIRECTORY *pDir){
    8c8c:	2021883a 	mov	r16,r4
    char szTest[] = {0x00, 0xE5, 0x22, 0x2A, 0x2B, 0x2C, 0x2E, 0x2F, 0x3A, 0x3B, 0x3C, 0x3E, 0x3F, 0x5B, 0x5C, 0x5D, 0x7C};
    8c90:	2975ff04 	addi	r5,r5,-10244
    8c94:	d809883a 	mov	r4,sp
        return TRUE;
    return FALSE;        
}


bool fatIsValidDir(FAT_DIRECTORY *pDir){
    8c98:	dfc00615 	stw	ra,24(sp)
    char szTest[] = {0x00, 0xE5, 0x22, 0x2A, 0x2B, 0x2C, 0x2E, 0x2F, 0x3A, 0x3B, 0x3C, 0x3E, 0x3F, 0x5B, 0x5C, 0x5D, 0x7C};
    8c9c:	000c1480 	call	c148 <memcpy>
    int i;
    
    for(i=0;i<sizeof(szTest)/sizeof(szTest[0]);i++){
    8ca0:	0005883a 	mov	r2,zero
    8ca4:	01000444 	movi	r4,17
        if (pDir->Name[0] == szTest[i]){
    8ca8:	d887883a 	add	r3,sp,r2
    8cac:	81400007 	ldb	r5,0(r16)
    8cb0:	18c00007 	ldb	r3,0(r3)
    8cb4:	28c00426 	beq	r5,r3,8cc8 <fatIsValidDir+0x4c>

bool fatIsValidDir(FAT_DIRECTORY *pDir){
    char szTest[] = {0x00, 0xE5, 0x22, 0x2A, 0x2B, 0x2C, 0x2E, 0x2F, 0x3A, 0x3B, 0x3C, 0x3E, 0x3F, 0x5B, 0x5C, 0x5D, 0x7C};
    int i;
    
    for(i=0;i<sizeof(szTest)/sizeof(szTest[0]);i++){
    8cb8:	10800044 	addi	r2,r2,1
    8cbc:	113ffa1e 	bne	r2,r4,8ca8 <_gp+0xffff2adc>
        if (pDir->Name[0] == szTest[i]){
            return FALSE;
        }
    }    
    return TRUE;
    8cc0:	00800044 	movi	r2,1
    8cc4:	00000106 	br	8ccc <fatIsValidDir+0x50>
    char szTest[] = {0x00, 0xE5, 0x22, 0x2A, 0x2B, 0x2C, 0x2E, 0x2F, 0x3A, 0x3B, 0x3C, 0x3E, 0x3F, 0x5B, 0x5C, 0x5D, 0x7C};
    int i;
    
    for(i=0;i<sizeof(szTest)/sizeof(szTest[0]);i++){
        if (pDir->Name[0] == szTest[i]){
            return FALSE;
    8cc8:	0005883a 	mov	r2,zero
        }
    }    
    return TRUE;
    
}
    8ccc:	dfc00617 	ldw	ra,24(sp)
    8cd0:	dc000517 	ldw	r16,20(sp)
    8cd4:	dec00704 	addi	sp,sp,28
    8cd8:	f800283a 	ret

00008cdc <fatIsUnusedDir>:

bool fatIsUnusedDir(FAT_DIRECTORY *pDir){
    8cdc:	20800007 	ldb	r2,0(r4)
    if (pDir->Name[0] == (alt_8)UNUSED_DIR_ENTRY)
        return TRUE;
    return FALSE; 
}
    8ce0:	10bff960 	cmpeqi	r2,r2,-27
    8ce4:	f800283a 	ret

00008ce8 <fatDump>:

// debug
void fatDump(FAT_DIRECTORY *pDir){
    8ce8:	f800283a 	ret

00008cec <fatArray2Value>:
    FAT_DEBUG(("File Size:%08Xh(%ld)\n", pDir->FileSize, (long)pDir->FileSize));
}


unsigned int fatArray2Value(unsigned char *pValue, unsigned int nNum){
    alt_u8 *pMSB = (pValue + nNum - 1);
    8cec:	28ffffc4 	addi	r3,r5,-1
    8cf0:	20c9883a 	add	r4,r4,r3
    8cf4:	214bc83a 	sub	r5,r4,r5
    alt_u32 nValue;
    int i;
    for(i=0;i<nNum;i++){
    8cf8:	21400526 	beq	r4,r5,8d10 <fatArray2Value+0x24>
        nValue <<= 8;
        nValue |= *pMSB--;
    8cfc:	20c00003 	ldbu	r3,0(r4)
unsigned int fatArray2Value(unsigned char *pValue, unsigned int nNum){
    alt_u8 *pMSB = (pValue + nNum - 1);
    alt_u32 nValue;
    int i;
    for(i=0;i<nNum;i++){
        nValue <<= 8;
    8d00:	1004923a 	slli	r2,r2,8
    8d04:	213fffc4 	addi	r4,r4,-1
        nValue |= *pMSB--;
    8d08:	1884b03a 	or	r2,r3,r2
    8d0c:	003ffa06 	br	8cf8 <_gp+0xffff2b2c>
        
    }
    
    return nValue;
}
    8d10:	f800283a 	ret

00008d14 <fatReadSecter>:

//=================================================================================
//// add in v2.0
bool fatReadSecter(VOLUME_INFO *pVol, alt_u32 nSecter){
    bool bSuccess = TRUE;
    if (nSecter != pVol->Secter_Index){
    8d14:	20c09017 	ldw	r3,576(r4)
    8d18:	19401226 	beq	r3,r5,8d64 <fatReadSecter+0x50>
    return nValue;
}

//=================================================================================
//// add in v2.0
bool fatReadSecter(VOLUME_INFO *pVol, alt_u32 nSecter){
    8d1c:	defffd04 	addi	sp,sp,-12
    8d20:	dc000015 	stw	r16,0(sp)
    bool bSuccess = TRUE;
    if (nSecter != pVol->Secter_Index){
        if (!pVol->ReadBlock512(pVol->DiskHandle, nSecter, pVol->Secter_Data)){
    8d24:	20800117 	ldw	r2,4(r4)
    8d28:	2021883a 	mov	r16,r4
    8d2c:	21801004 	addi	r6,r4,64
    8d30:	21000017 	ldw	r4,0(r4)
    return nValue;
}

//=================================================================================
//// add in v2.0
bool fatReadSecter(VOLUME_INFO *pVol, alt_u32 nSecter){
    8d34:	dc400115 	stw	r17,4(sp)
    8d38:	dfc00215 	stw	ra,8(sp)
    8d3c:	2823883a 	mov	r17,r5
    bool bSuccess = TRUE;
    if (nSecter != pVol->Secter_Index){
        if (!pVol->ReadBlock512(pVol->DiskHandle, nSecter, pVol->Secter_Data)){
    8d40:	103ee83a 	callr	r2
    8d44:	1000041e 	bne	r2,zero,8d58 <fatReadSecter+0x44>
            pVol->Secter_Index = -1;
    8d48:	00bfffc4 	movi	r2,-1
    8d4c:	80809015 	stw	r2,576(r16)
            bSuccess = FALSE;
    8d50:	0005883a 	mov	r2,zero
    8d54:	00000506 	br	8d6c <fatReadSecter+0x58>
        }else{
            pVol->Secter_Index = nSecter;
    8d58:	84409015 	stw	r17,576(r16)
}

//=================================================================================
//// add in v2.0
bool fatReadSecter(VOLUME_INFO *pVol, alt_u32 nSecter){
    bool bSuccess = TRUE;
    8d5c:	00800044 	movi	r2,1
    8d60:	00000206 	br	8d6c <fatReadSecter+0x58>
    8d64:	00800044 	movi	r2,1
    8d68:	f800283a 	ret
        }else{
            pVol->Secter_Index = nSecter;
        }
    }
    return bSuccess;          
}     
    8d6c:	dfc00217 	ldw	ra,8(sp)
    8d70:	dc400117 	ldw	r17,4(sp)
    8d74:	dc000017 	ldw	r16,0(sp)
    8d78:	dec00304 	addi	sp,sp,12
    8d7c:	f800283a 	ret

00008d80 <fatNextCluster>:
    if (ClusterType != CLUSTER_NEXT_INFILE && ClusterType != CLUSTER_LAST_INFILE){
        NextCluster = 0;  // invalid cluster
    }        
#else
    alt_32 nFatEntryPerSecter;
    const alt_32 nFatEntrySize = (pVol->Partition_Type == PARTITION_FAT32)?4:2; // 2 byte for FAT16
    8d80:	20c00317 	ldw	r3,12(r4)
        
    return Type;        
         
}

alt_u32 fatNextCluster(VOLUME_INFO *pVol, alt_u32 ThisCluster){
    8d84:	defffa04 	addi	sp,sp,-24
    8d88:	dcc00315 	stw	r19,12(sp)
    8d8c:	dc000015 	stw	r16,0(sp)
    8d90:	dfc00515 	stw	ra,20(sp)
    8d94:	dd000415 	stw	r20,16(sp)
    8d98:	dc800215 	stw	r18,8(sp)
    8d9c:	dc400115 	stw	r17,4(sp)
    if (ClusterType != CLUSTER_NEXT_INFILE && ClusterType != CLUSTER_LAST_INFILE){
        NextCluster = 0;  // invalid cluster
    }        
#else
    alt_32 nFatEntryPerSecter;
    const alt_32 nFatEntrySize = (pVol->Partition_Type == PARTITION_FAT32)?4:2; // 2 byte for FAT16
    8da0:	008002c4 	movi	r2,11
        
    return Type;        
         
}

alt_u32 fatNextCluster(VOLUME_INFO *pVol, alt_u32 ThisCluster){
    8da4:	2021883a 	mov	r16,r4
    8da8:	2827883a 	mov	r19,r5
    if (ClusterType != CLUSTER_NEXT_INFILE && ClusterType != CLUSTER_LAST_INFILE){
        NextCluster = 0;  // invalid cluster
    }        
#else
    alt_32 nFatEntryPerSecter;
    const alt_32 nFatEntrySize = (pVol->Partition_Type == PARTITION_FAT32)?4:2; // 2 byte for FAT16
    8dac:	18800226 	beq	r3,r2,8db8 <fatNextCluster+0x38>
    8db0:	04800084 	movi	r18,2
    8db4:	00000106 	br	8dbc <fatNextCluster+0x3c>
    8db8:	04800104 	movi	r18,4
    alt_u32 Secter;
   // char szBlock[512];
    nFatEntryPerSecter = pVol->BPB_BytsPerSec/nFatEntrySize; 
    8dbc:	85000617 	ldw	r20,24(r16)
    Secter = pVol->FatEntrySecter + (ThisCluster*nFatEntrySize)/pVol->BPB_BytsPerSec;
    //if (pVol->ReadBlock512(pVol->DiskHandle, Secter,szBlock)){
    if (fatReadSecter(pVol, Secter)){
    8dc0:	980b883a 	mov	r5,r19
    8dc4:	9009883a 	mov	r4,r18
    8dc8:	000ac100 	call	ac10 <__mulsi3>
    8dcc:	a00b883a 	mov	r5,r20
    8dd0:	1009883a 	mov	r4,r2
    8dd4:	000ab540 	call	ab54 <__udivsi3>
    8dd8:	81400d17 	ldw	r5,52(r16)
    8ddc:	8009883a 	mov	r4,r16
    8de0:	114b883a 	add	r5,r2,r5
    8de4:	0008d140 	call	8d14 <fatReadSecter>
    8de8:	10001d26 	beq	r2,zero,8e60 <fatNextCluster+0xe0>
#else
    alt_32 nFatEntryPerSecter;
    const alt_32 nFatEntrySize = (pVol->Partition_Type == PARTITION_FAT32)?4:2; // 2 byte for FAT16
    alt_u32 Secter;
   // char szBlock[512];
    nFatEntryPerSecter = pVol->BPB_BytsPerSec/nFatEntrySize; 
    8dec:	900b883a 	mov	r5,r18
    8df0:	a009883a 	mov	r4,r20
    8df4:	000ab540 	call	ab54 <__udivsi3>
    Secter = pVol->FatEntrySecter + (ThisCluster*nFatEntrySize)/pVol->BPB_BytsPerSec;
    //if (pVol->ReadBlock512(pVol->DiskHandle, Secter,szBlock)){
    if (fatReadSecter(pVol, Secter)){
        if (pVol->Partition_Type == PARTITION_FAT32){
    8df8:	80c00317 	ldw	r3,12(r16)
#else
    alt_32 nFatEntryPerSecter;
    const alt_32 nFatEntrySize = (pVol->Partition_Type == PARTITION_FAT32)?4:2; // 2 byte for FAT16
    alt_u32 Secter;
   // char szBlock[512];
    nFatEntryPerSecter = pVol->BPB_BytsPerSec/nFatEntrySize; 
    8dfc:	100b883a 	mov	r5,r2
    Secter = pVol->FatEntrySecter + (ThisCluster*nFatEntrySize)/pVol->BPB_BytsPerSec;
    //if (pVol->ReadBlock512(pVol->DiskHandle, Secter,szBlock)){
    if (fatReadSecter(pVol, Secter)){
        if (pVol->Partition_Type == PARTITION_FAT32){
    8e00:	008002c4 	movi	r2,11
            NextCluster = *(alt_u32*)(pVol->Secter_Data + (ThisCluster%nFatEntryPerSecter)*nFatEntrySize); 
    8e04:	9809883a 	mov	r4,r19
   // char szBlock[512];
    nFatEntryPerSecter = pVol->BPB_BytsPerSec/nFatEntrySize; 
    Secter = pVol->FatEntrySecter + (ThisCluster*nFatEntrySize)/pVol->BPB_BytsPerSec;
    //if (pVol->ReadBlock512(pVol->DiskHandle, Secter,szBlock)){
    if (fatReadSecter(pVol, Secter)){
        if (pVol->Partition_Type == PARTITION_FAT32){
    8e08:	1880091e 	bne	r3,r2,8e30 <fatNextCluster+0xb0>
            NextCluster = *(alt_u32*)(pVol->Secter_Data + (ThisCluster%nFatEntryPerSecter)*nFatEntrySize); 
    8e0c:	000abb80 	call	abb8 <__umodsi3>
    8e10:	900b883a 	mov	r5,r18
    8e14:	1009883a 	mov	r4,r2
    8e18:	000ac100 	call	ac10 <__mulsi3>
    8e1c:	8085883a 	add	r2,r16,r2
    8e20:	14401017 	ldw	r17,64(r2)
            ClusterType = fat32ClusterType(NextCluster);
    8e24:	8809883a 	mov	r4,r17
    8e28:	0008bfc0 	call	8bfc <fat32ClusterType>
    8e2c:	00000806 	br	8e50 <fatNextCluster+0xd0>
        }else{
            NextCluster = *(alt_u16 *)(pVol->Secter_Data + (ThisCluster%nFatEntryPerSecter)*nFatEntrySize); 
    8e30:	000abb80 	call	abb8 <__umodsi3>
    8e34:	1009883a 	mov	r4,r2
    8e38:	900b883a 	mov	r5,r18
    8e3c:	000ac100 	call	ac10 <__mulsi3>
    8e40:	8085883a 	add	r2,r16,r2
    8e44:	1440100b 	ldhu	r17,64(r2)
            ClusterType = fat16ClusterType(NextCluster);
    8e48:	8809883a 	mov	r4,r17
    8e4c:	0008ba00 	call	8ba0 <fat16ClusterType>
        }    
        if (ClusterType != CLUSTER_NEXT_INFILE && ClusterType != CLUSTER_LAST_INFILE)
    8e50:	10bfff44 	addi	r2,r2,-3
    8e54:	00c00044 	movi	r3,1
    8e58:	1880012e 	bgeu	r3,r2,8e60 <fatNextCluster+0xe0>
            NextCluster = 0;  // invalid cluster
    8e5c:	0023883a 	mov	r17,zero
    return NextCluster;

#endif    
    
    return NextCluster;
}
    8e60:	8805883a 	mov	r2,r17
    8e64:	dfc00517 	ldw	ra,20(sp)
    8e68:	dd000417 	ldw	r20,16(sp)
    8e6c:	dcc00317 	ldw	r19,12(sp)
    8e70:	dc800217 	ldw	r18,8(sp)
    8e74:	dc400117 	ldw	r17,4(sp)
    8e78:	dc000017 	ldw	r16,0(sp)
    8e7c:	dec00604 	addi	sp,sp,24
    8e80:	f800283a 	ret

00008e84 <fatFindUnusedCluster>:
alt_u32 fatFindUnusedCluster(VOLUME_INFO *pVol){
    CLUSTER_TYPE ClusterType;
    alt_u32 UnusedCluster=-1, ThisCluster = 2, ClusterEntryValue;
    void *pFatEntry;

    const alt_32 nFatEntrySize = (pVol->Partition_Type == PARTITION_FAT32)?4:2; // 2 byte for FAT16
    8e84:	20c00317 	ldw	r3,12(r4)
#endif    
    
    return NextCluster;
}

alt_u32 fatFindUnusedCluster(VOLUME_INFO *pVol){
    8e88:	defff704 	addi	sp,sp,-36
    8e8c:	dc000015 	stw	r16,0(sp)
    8e90:	dfc00815 	stw	ra,32(sp)
    8e94:	ddc00715 	stw	r23,28(sp)
    8e98:	dd800615 	stw	r22,24(sp)
    8e9c:	dd400515 	stw	r21,20(sp)
    8ea0:	dd000415 	stw	r20,16(sp)
    8ea4:	dcc00315 	stw	r19,12(sp)
    8ea8:	dc800215 	stw	r18,8(sp)
    8eac:	dc400115 	stw	r17,4(sp)
    CLUSTER_TYPE ClusterType;
    alt_u32 UnusedCluster=-1, ThisCluster = 2, ClusterEntryValue;
    void *pFatEntry;

    const alt_32 nFatEntrySize = (pVol->Partition_Type == PARTITION_FAT32)?4:2; // 2 byte for FAT16
    8eb0:	008002c4 	movi	r2,11
#endif    
    
    return NextCluster;
}

alt_u32 fatFindUnusedCluster(VOLUME_INFO *pVol){
    8eb4:	2021883a 	mov	r16,r4
    CLUSTER_TYPE ClusterType;
    alt_u32 UnusedCluster=-1, ThisCluster = 2, ClusterEntryValue;
    void *pFatEntry;

    const alt_32 nFatEntrySize = (pVol->Partition_Type == PARTITION_FAT32)?4:2; // 2 byte for FAT16
    8eb8:	18800226 	beq	r3,r2,8ec4 <fatFindUnusedCluster+0x40>
    8ebc:	04400084 	movi	r17,2
    8ec0:	00000106 	br	8ec8 <fatFindUnusedCluster+0x44>
    8ec4:	04400104 	movi	r17,4
    const alt_32 nFatEntryPerSecter = pVol->BPB_BytsPerSec/nFatEntrySize;
    8ec8:	81000617 	ldw	r4,24(r16)
    8ecc:	880b883a 	mov	r5,r17
    8ed0:	8c67883a 	add	r19,r17,r17
    8ed4:	000ab540 	call	ab54 <__udivsi3>
    8ed8:	102b883a 	mov	r21,r2
    return NextCluster;
}

alt_u32 fatFindUnusedCluster(VOLUME_INFO *pVol){
    CLUSTER_TYPE ClusterType;
    alt_u32 UnusedCluster=-1, ThisCluster = 2, ClusterEntryValue;
    8edc:	04800084 	movi	r18,2
    8ee0:	053fffc4 	movi	r20,-1
    bool bDone = FALSE;

    while(!bDone){     
        Secter = pVol->FatEntrySecter + (ThisCluster*nFatEntrySize)/pVol->BPB_BytsPerSec;
        if (fatReadSecter(pVol, Secter)){
            pFatEntry = (pVol->Secter_Data + (ThisCluster%nFatEntryPerSecter)*nFatEntrySize);
    8ee4:	85801004 	addi	r22,r16,64
            if (pVol->Partition_Type == PARTITION_FAT32){
    8ee8:	05c002c4 	movi	r23,11
    alt_u32 Secter;
    bool bDone = FALSE;

    while(!bDone){     
        Secter = pVol->FatEntrySecter + (ThisCluster*nFatEntrySize)/pVol->BPB_BytsPerSec;
        if (fatReadSecter(pVol, Secter)){
    8eec:	81400617 	ldw	r5,24(r16)
    8ef0:	9809883a 	mov	r4,r19
    8ef4:	000ab540 	call	ab54 <__udivsi3>
    8ef8:	81400d17 	ldw	r5,52(r16)
    8efc:	8009883a 	mov	r4,r16
    8f00:	114b883a 	add	r5,r2,r5
    8f04:	0008d140 	call	8d14 <fatReadSecter>
    8f08:	10001026 	beq	r2,zero,8f4c <fatFindUnusedCluster+0xc8>
            pFatEntry = (pVol->Secter_Data + (ThisCluster%nFatEntryPerSecter)*nFatEntrySize);
    8f0c:	a80b883a 	mov	r5,r21
    8f10:	9009883a 	mov	r4,r18
    8f14:	000abb80 	call	abb8 <__umodsi3>
    8f18:	880b883a 	mov	r5,r17
    8f1c:	1009883a 	mov	r4,r2
    8f20:	000ac100 	call	ac10 <__mulsi3>
            if (pVol->Partition_Type == PARTITION_FAT32){
    8f24:	80c00317 	ldw	r3,12(r16)
    bool bDone = FALSE;

    while(!bDone){     
        Secter = pVol->FatEntrySecter + (ThisCluster*nFatEntrySize)/pVol->BPB_BytsPerSec;
        if (fatReadSecter(pVol, Secter)){
            pFatEntry = (pVol->Secter_Data + (ThisCluster%nFatEntryPerSecter)*nFatEntrySize);
    8f28:	b085883a 	add	r2,r22,r2
            if (pVol->Partition_Type == PARTITION_FAT32){
    8f2c:	1dc0031e 	bne	r3,r23,8f3c <fatFindUnusedCluster+0xb8>
                ClusterEntryValue = *(alt_u32*)pFatEntry; 
                ClusterType = fat32ClusterType(ClusterEntryValue);
    8f30:	11000017 	ldw	r4,0(r2)
    8f34:	0008bfc0 	call	8bfc <fat32ClusterType>
    8f38:	00000206 	br	8f44 <fatFindUnusedCluster+0xc0>
            }else{
                ClusterEntryValue = *(alt_u16 *)pFatEntry; 
                ClusterType = fat16ClusterType(ClusterEntryValue);
    8f3c:	1100000b 	ldhu	r4,0(r2)
    8f40:	0008ba00 	call	8ba0 <fat16ClusterType>
            }    
            if (ClusterType == CLUSTER_UNUSED){
    8f44:	1000031e 	bne	r2,zero,8f54 <fatFindUnusedCluster+0xd0>
    8f48:	9029883a 	mov	r20,r18
                UnusedCluster = ThisCluster;  // invalid cluster
                bDone = TRUE;
            }    
        }else{
            bDone = TRUE;
    8f4c:	00800044 	movi	r2,1
    8f50:	00000106 	br	8f58 <fatFindUnusedCluster+0xd4>
    8f54:	0005883a 	mov	r2,zero
        }     
        ThisCluster++;           
    8f58:	94800044 	addi	r18,r18,1
    8f5c:	9c67883a 	add	r19,r19,r17
    const alt_32 nFatEntrySize = (pVol->Partition_Type == PARTITION_FAT32)?4:2; // 2 byte for FAT16
    const alt_32 nFatEntryPerSecter = pVol->BPB_BytsPerSec/nFatEntrySize;
    alt_u32 Secter;
    bool bDone = FALSE;

    while(!bDone){     
    8f60:	103fe226 	beq	r2,zero,8eec <_gp+0xffff2d20>
        ThisCluster++;           
    }                
    
    return UnusedCluster;

}
    8f64:	a005883a 	mov	r2,r20
    8f68:	dfc00817 	ldw	ra,32(sp)
    8f6c:	ddc00717 	ldw	r23,28(sp)
    8f70:	dd800617 	ldw	r22,24(sp)
    8f74:	dd400517 	ldw	r21,20(sp)
    8f78:	dd000417 	ldw	r20,16(sp)
    8f7c:	dcc00317 	ldw	r19,12(sp)
    8f80:	dc800217 	ldw	r18,8(sp)
    8f84:	dc400117 	ldw	r17,4(sp)
    8f88:	dc000017 	ldw	r16,0(sp)
    8f8c:	dec00904 	addi	sp,sp,36
    8f90:	f800283a 	ret

00008f94 <fatDelClusterList>:
    bool bDone = FALSE;
    alt_u32 ClusterIndex, Secter, ClusterEntryValue;
    void *pFatEntryValue;
    
    
    const int nFatEntrySize = (pVol->Partition_Type == PARTITION_FAT32)?4:2; // 2 byte for FAT16
    8f94:	20c00317 	ldw	r3,12(r4)
    return UnusedCluster;

}


bool fatDelClusterList(VOLUME_INFO *pVol, alt_u32 StartCluster){
    8f98:	defff404 	addi	sp,sp,-48
    8f9c:	dc800415 	stw	r18,16(sp)
    8fa0:	dc000215 	stw	r16,8(sp)
    8fa4:	dfc00b15 	stw	ra,44(sp)
    8fa8:	df000a15 	stw	fp,40(sp)
    8fac:	ddc00915 	stw	r23,36(sp)
    8fb0:	dd800815 	stw	r22,32(sp)
    8fb4:	dd400715 	stw	r21,28(sp)
    8fb8:	dd000615 	stw	r20,24(sp)
    8fbc:	dcc00515 	stw	r19,20(sp)
    8fc0:	dc400315 	stw	r17,12(sp)
    bool bDone = FALSE;
    alt_u32 ClusterIndex, Secter, ClusterEntryValue;
    void *pFatEntryValue;
    
    
    const int nFatEntrySize = (pVol->Partition_Type == PARTITION_FAT32)?4:2; // 2 byte for FAT16
    8fc4:	008002c4 	movi	r2,11
    return UnusedCluster;

}


bool fatDelClusterList(VOLUME_INFO *pVol, alt_u32 StartCluster){
    8fc8:	2021883a 	mov	r16,r4
    8fcc:	2825883a 	mov	r18,r5
    bool bDone = FALSE;
    alt_u32 ClusterIndex, Secter, ClusterEntryValue;
    void *pFatEntryValue;
    
    
    const int nFatEntrySize = (pVol->Partition_Type == PARTITION_FAT32)?4:2; // 2 byte for FAT16
    8fd0:	18800226 	beq	r3,r2,8fdc <fatDelClusterList+0x48>
    8fd4:	04400084 	movi	r17,2
    8fd8:	00000106 	br	8fe0 <fatDelClusterList+0x4c>
    8fdc:	04400104 	movi	r17,4
    const int nFatEntryPerSecter = pVol->BPB_BytsPerSec/nFatEntrySize;
    8fe0:	81000617 	ldw	r4,24(r16)
    8fe4:	880b883a 	mov	r5,r17
        // read FAT Table
        Secter = pVol->FatEntrySecter + (ClusterIndex*nFatEntrySize)/pVol->BPB_BytsPerSec;
        bSuccess = fatReadSecter(pVol, Secter);
        if (bSuccess){
            // get the value of FAT entry
            pFatEntryValue = (pVol->Secter_Data + (ClusterIndex%nFatEntryPerSecter)*nFatEntrySize);
    8fe8:	84c01004 	addi	r19,r16,64
    alt_u32 ClusterIndex, Secter, ClusterEntryValue;
    void *pFatEntryValue;
    
    
    const int nFatEntrySize = (pVol->Partition_Type == PARTITION_FAT32)?4:2; // 2 byte for FAT16
    const int nFatEntryPerSecter = pVol->BPB_BytsPerSec/nFatEntrySize;
    8fec:	000ab540 	call	ab54 <__udivsi3>
     
    ClusterIndex = StartCluster;
    while(bSuccess && !bDone){
        // read FAT Table
        Secter = pVol->FatEntrySecter + (ClusterIndex*nFatEntrySize)/pVol->BPB_BytsPerSec;
    8ff0:	900b883a 	mov	r5,r18
    8ff4:	8809883a 	mov	r4,r17
    alt_u32 ClusterIndex, Secter, ClusterEntryValue;
    void *pFatEntryValue;
    
    
    const int nFatEntrySize = (pVol->Partition_Type == PARTITION_FAT32)?4:2; // 2 byte for FAT16
    const int nFatEntryPerSecter = pVol->BPB_BytsPerSec/nFatEntrySize;
    8ff8:	d8800015 	stw	r2,0(sp)
     
    ClusterIndex = StartCluster;
    while(bSuccess && !bDone){
        // read FAT Table
        Secter = pVol->FatEntrySecter + (ClusterIndex*nFatEntrySize)/pVol->BPB_BytsPerSec;
    8ffc:	000ac100 	call	ac10 <__mulsi3>
    9000:	102f883a 	mov	r23,r2
}


bool fatDelClusterList(VOLUME_INFO *pVol, alt_u32 StartCluster){
    CLUSTER_TYPE ClusterType;
    bool bSuccess = TRUE;
    9004:	00800044 	movi	r2,1
    bool bDone = FALSE;
    9008:	0007883a 	mov	r3,zero
        Secter = pVol->FatEntrySecter + (ClusterIndex*nFatEntrySize)/pVol->BPB_BytsPerSec;
        bSuccess = fatReadSecter(pVol, Secter);
        if (bSuccess){
            // get the value of FAT entry
            pFatEntryValue = (pVol->Secter_Data + (ClusterIndex%nFatEntryPerSecter)*nFatEntrySize);
            if (pVol->Partition_Type == PARTITION_FAT32){
    900c:	050002c4 	movi	r20,11
            }else{
                ClusterEntryValue = *(alt_u16 *)pFatEntryValue; //(pVol->Secter_Data + (ThisCluster%nFatEntryPerSecter)*nFatEntrySize); 
                ClusterType = fat16ClusterType(ClusterEntryValue);
            }
                
            if (ClusterType != CLUSTER_NEXT_INFILE && ClusterType != CLUSTER_LAST_INFILE){
    9010:	1039883a 	mov	fp,r2
    
    const int nFatEntrySize = (pVol->Partition_Type == PARTITION_FAT32)?4:2; // 2 byte for FAT16
    const int nFatEntryPerSecter = pVol->BPB_BytsPerSec/nFatEntrySize;
     
    ClusterIndex = StartCluster;
    while(bSuccess && !bDone){
    9014:	1000021e 	bne	r2,zero,9020 <fatDelClusterList+0x8c>
}


bool fatDelClusterList(VOLUME_INFO *pVol, alt_u32 StartCluster){
    CLUSTER_TYPE ClusterType;
    bool bSuccess = TRUE;
    9018:	0005883a 	mov	r2,zero
    901c:	00002606 	br	90b8 <fatDelClusterList+0x124>
    
    const int nFatEntrySize = (pVol->Partition_Type == PARTITION_FAT32)?4:2; // 2 byte for FAT16
    const int nFatEntryPerSecter = pVol->BPB_BytsPerSec/nFatEntrySize;
     
    ClusterIndex = StartCluster;
    while(bSuccess && !bDone){
    9020:	1800251e 	bne	r3,zero,90b8 <fatDelClusterList+0x124>
        // read FAT Table
        Secter = pVol->FatEntrySecter + (ClusterIndex*nFatEntrySize)/pVol->BPB_BytsPerSec;
        bSuccess = fatReadSecter(pVol, Secter);
    9024:	81400617 	ldw	r5,24(r16)
    9028:	b809883a 	mov	r4,r23
    902c:	000ab540 	call	ab54 <__udivsi3>
    9030:	81400d17 	ldw	r5,52(r16)
    9034:	8009883a 	mov	r4,r16
    9038:	114b883a 	add	r5,r2,r5
    903c:	0008d140 	call	8d14 <fatReadSecter>
        if (bSuccess){
    9040:	103ff526 	beq	r2,zero,9018 <_gp+0xffff2e4c>
            // get the value of FAT entry
            pFatEntryValue = (pVol->Secter_Data + (ClusterIndex%nFatEntryPerSecter)*nFatEntrySize);
    9044:	d9400017 	ldw	r5,0(sp)
    9048:	9009883a 	mov	r4,r18
    904c:	000abb80 	call	abb8 <__umodsi3>
    9050:	880b883a 	mov	r5,r17
    9054:	1009883a 	mov	r4,r2
    9058:	000ac100 	call	ac10 <__mulsi3>
            if (pVol->Partition_Type == PARTITION_FAT32){
    905c:	85400317 	ldw	r21,12(r16)
        // read FAT Table
        Secter = pVol->FatEntrySecter + (ClusterIndex*nFatEntrySize)/pVol->BPB_BytsPerSec;
        bSuccess = fatReadSecter(pVol, Secter);
        if (bSuccess){
            // get the value of FAT entry
            pFatEntryValue = (pVol->Secter_Data + (ClusterIndex%nFatEntryPerSecter)*nFatEntrySize);
    9060:	98ad883a 	add	r22,r19,r2
            if (pVol->Partition_Type == PARTITION_FAT32){
    9064:	ad00031e 	bne	r21,r20,9074 <fatDelClusterList+0xe0>
                ClusterEntryValue = *(alt_u32 *)pFatEntryValue; 
                ClusterType = fat32ClusterType(ClusterEntryValue);
    9068:	b1000017 	ldw	r4,0(r22)
    906c:	0008bfc0 	call	8bfc <fat32ClusterType>
    9070:	00000206 	br	907c <fatDelClusterList+0xe8>
            }else{
                ClusterEntryValue = *(alt_u16 *)pFatEntryValue; //(pVol->Secter_Data + (ThisCluster%nFatEntryPerSecter)*nFatEntrySize); 
                ClusterType = fat16ClusterType(ClusterEntryValue);
    9074:	b100000b 	ldhu	r4,0(r22)
    9078:	0008ba00 	call	8ba0 <fat16ClusterType>
            }
                
            if (ClusterType != CLUSTER_NEXT_INFILE && ClusterType != CLUSTER_LAST_INFILE){
    907c:	10ffff44 	addi	r3,r2,-3
    9080:	e0ffe536 	bltu	fp,r3,9018 <_gp+0xffff2e4c>
                bDone = TRUE;
                bSuccess = FALSE;
            }else{
                if (ClusterType == CLUSTER_LAST_INFILE)
                    bDone = TRUE; // the last cluster
    9084:	10c000e0 	cmpeqi	r3,r2,3
                // update
                if (pVol->Partition_Type == PARTITION_FAT32)
    9088:	ad00021e 	bne	r21,r20,9094 <fatDelClusterList+0x100>
                    *(alt_u32 *)pFatEntryValue = CLUSTER_UNUSED;
    908c:	b0000015 	stw	zero,0(r22)
    9090:	00000106 	br	9098 <fatDelClusterList+0x104>
                else 
                    *(alt_u16 *)pFatEntryValue = CLUSTER_UNUSED;
    9094:	b000000d 	sth	zero,0(r22)
                //write back FAT Table
                bSuccess = pVol->WriteBlock512(pVol->DiskHandle, pVol->Secter_Index, pVol->Secter_Data);
    9098:	80800217 	ldw	r2,8(r16)
    909c:	81409017 	ldw	r5,576(r16)
    90a0:	81000017 	ldw	r4,0(r16)
    90a4:	d8c00115 	stw	r3,4(sp)
    90a8:	980d883a 	mov	r6,r19
    90ac:	103ee83a 	callr	r2
    90b0:	d8c00117 	ldw	r3,4(sp)
    90b4:	003fd706 	br	9014 <_gp+0xffff2e48>
    }  // while                
    
    
    return bSuccess;

}
    90b8:	dfc00b17 	ldw	ra,44(sp)
    90bc:	df000a17 	ldw	fp,40(sp)
    90c0:	ddc00917 	ldw	r23,36(sp)
    90c4:	dd800817 	ldw	r22,32(sp)
    90c8:	dd400717 	ldw	r21,28(sp)
    90cc:	dd000617 	ldw	r20,24(sp)
    90d0:	dcc00517 	ldw	r19,20(sp)
    90d4:	dc800417 	ldw	r18,16(sp)
    90d8:	dc400317 	ldw	r17,12(sp)
    90dc:	dc000217 	ldw	r16,8(sp)
    90e0:	dec00c04 	addi	sp,sp,48
    90e4:	f800283a 	ret

000090e8 <fatFindDirectory>:
    return bSuccess;          
}     

//=================================================================================
//// add in v2.0
FAT_DIRECTORY* fatFindDirectory(VOLUME_INFO *pVol, alt_u32 nDirectoryIndex){
    90e8:	defffc04 	addi	sp,sp,-16
    90ec:	dc800215 	stw	r18,8(sp)
    FAT_DIRECTORY *pDir=NULL;
    alt_u32 nSecterOffset, nSecter, nByteOffset;
             
    nSecterOffset = (sizeof(FAT_DIRECTORY)*nDirectoryIndex)/pVol->BPB_BytsPerSec;
    90f0:	2824917a 	slli	r18,r5,5
    nSecter = pVol->RootDirectoryEntrySecter + nSecterOffset;
        // read sector
    if (fatReadSecter(pVol, nSecter)){
    90f4:	21400617 	ldw	r5,24(r4)
    return bSuccess;          
}     

//=================================================================================
//// add in v2.0
FAT_DIRECTORY* fatFindDirectory(VOLUME_INFO *pVol, alt_u32 nDirectoryIndex){
    90f8:	dc000015 	stw	r16,0(sp)
    90fc:	2021883a 	mov	r16,r4
    alt_u32 nSecterOffset, nSecter, nByteOffset;
             
    nSecterOffset = (sizeof(FAT_DIRECTORY)*nDirectoryIndex)/pVol->BPB_BytsPerSec;
    nSecter = pVol->RootDirectoryEntrySecter + nSecterOffset;
        // read sector
    if (fatReadSecter(pVol, nSecter)){
    9100:	9009883a 	mov	r4,r18
    return bSuccess;          
}     

//=================================================================================
//// add in v2.0
FAT_DIRECTORY* fatFindDirectory(VOLUME_INFO *pVol, alt_u32 nDirectoryIndex){
    9104:	dfc00315 	stw	ra,12(sp)
    9108:	dc400115 	stw	r17,4(sp)
    alt_u32 nSecterOffset, nSecter, nByteOffset;
             
    nSecterOffset = (sizeof(FAT_DIRECTORY)*nDirectoryIndex)/pVol->BPB_BytsPerSec;
    nSecter = pVol->RootDirectoryEntrySecter + nSecterOffset;
        // read sector
    if (fatReadSecter(pVol, nSecter)){
    910c:	000ab540 	call	ab54 <__udivsi3>
    9110:	81400e17 	ldw	r5,56(r16)
    9114:	8009883a 	mov	r4,r16
    9118:	114b883a 	add	r5,r2,r5
    911c:	0008d140 	call	8d14 <fatReadSecter>
    9120:	10000626 	beq	r2,zero,913c <fatFindDirectory+0x54>
        nByteOffset = (sizeof(FAT_DIRECTORY)*nDirectoryIndex)%pVol->BPB_BytsPerSec; 
        pDir = (FAT_DIRECTORY *)(pVol->Secter_Data + nByteOffset);
    9124:	81400617 	ldw	r5,24(r16)
    9128:	9009883a 	mov	r4,r18
    912c:	84401004 	addi	r17,r16,64
    9130:	000abb80 	call	abb8 <__umodsi3>
    9134:	8885883a 	add	r2,r17,r2
    9138:	00000106 	br	9140 <fatFindDirectory+0x58>
}     

//=================================================================================
//// add in v2.0
FAT_DIRECTORY* fatFindDirectory(VOLUME_INFO *pVol, alt_u32 nDirectoryIndex){
    FAT_DIRECTORY *pDir=NULL;
    913c:	0005883a 	mov	r2,zero
        nByteOffset = (sizeof(FAT_DIRECTORY)*nDirectoryIndex)%pVol->BPB_BytsPerSec; 
        pDir = (FAT_DIRECTORY *)(pVol->Secter_Data + nByteOffset);
    }        
        
    return pDir;        
}
    9140:	dfc00317 	ldw	ra,12(sp)
    9144:	dc800217 	ldw	r18,8(sp)
    9148:	dc400117 	ldw	r17,4(sp)
    914c:	dc000017 	ldw	r16,0(sp)
    9150:	dec00404 	addi	sp,sp,16
    9154:	f800283a 	ret

00009158 <fatFindUnusedDirectory>:

//=================================================================================
//// add in v2.0
alt_u32 fatFindUnusedDirectory(VOLUME_INFO *pVol){
    9158:	defffa04 	addi	sp,sp,-24
    915c:	dd000415 	stw	r20,16(sp)
    9160:	dc800215 	stw	r18,8(sp)
    9164:	dc400115 	stw	r17,4(sp)
    9168:	dc000015 	stw	r16,0(sp)
    916c:	dfc00515 	stw	ra,20(sp)
    9170:	dcc00315 	stw	r19,12(sp)
    9174:	2021883a 	mov	r16,r4
    alt_u32 Dir = -1;
    FAT_DIRECTORY *pDir=NULL;
    alt_u32 nSecterOffset, nSecter, nByteOffset;
    alt_u32 nDirectoryIndex = 2; //??? start from ?
    9178:	04400084 	movi	r17,2
}

//=================================================================================
//// add in v2.0
alt_u32 fatFindUnusedDirectory(VOLUME_INFO *pVol){
    alt_u32 Dir = -1;
    917c:	04bfffc4 	movi	r18,-1
    return TRUE;
    
}

bool fatIsUnusedDir(FAT_DIRECTORY *pDir){
    if (pDir->Name[0] == (alt_8)UNUSED_DIR_ENTRY)
    9180:	053ff944 	movi	r20,-27
    9184:	8826917a 	slli	r19,r17,5
             
    while(!bDone){             
        nSecterOffset = (sizeof(FAT_DIRECTORY)*nDirectoryIndex)/pVol->BPB_BytsPerSec;
        nSecter = pVol->RootDirectoryEntrySecter + nSecterOffset;
            // read sector
        if (fatReadSecter(pVol, nSecter)){
    9188:	81400617 	ldw	r5,24(r16)
    918c:	9809883a 	mov	r4,r19
    9190:	000ab540 	call	ab54 <__udivsi3>
    9194:	81400e17 	ldw	r5,56(r16)
    9198:	8009883a 	mov	r4,r16
    919c:	114b883a 	add	r5,r2,r5
    91a0:	0008d140 	call	8d14 <fatReadSecter>
    91a4:	103ff826 	beq	r2,zero,9188 <_gp+0xffff2fbc>
    S = ((Date >> 0) & 0x1F)*2;
    FAT_DEBUG(("%d:%d:%d", H, M, S));     
}

bool fatIsLastDir(FAT_DIRECTORY *pDir){
    if (pDir->Name[0] == REMAINED_UNUSED_DIR_ENTRY)  // 0x00
    91a8:	81400617 	ldw	r5,24(r16)
    91ac:	9809883a 	mov	r4,r19
    91b0:	000abb80 	call	abb8 <__umodsi3>
    91b4:	8085883a 	add	r2,r16,r2
    91b8:	10801007 	ldb	r2,64(r2)
    91bc:	10000e26 	beq	r2,zero,91f8 <fatFindUnusedDirectory+0xa0>
    return TRUE;
    
}

bool fatIsUnusedDir(FAT_DIRECTORY *pDir){
    if (pDir->Name[0] == (alt_8)UNUSED_DIR_ENTRY)
    91c0:	15000c26 	beq	r2,r20,91f4 <fatFindUnusedDirectory+0x9c>
    91c4:	0005883a 	mov	r2,zero
            if (fatIsLastDir(pDir) || fatIsUnusedDir(pDir)){
                bDone = TRUE;
                if (fatIsUnusedDir(pDir))
                    Dir = nDirectoryIndex;
            }
            nDirectoryIndex++;        
    91c8:	8c400044 	addi	r17,r17,1
    FAT_DIRECTORY *pDir=NULL;
    alt_u32 nSecterOffset, nSecter, nByteOffset;
    alt_u32 nDirectoryIndex = 2; //??? start from ?
    bool bDone = FALSE;
             
    while(!bDone){             
    91cc:	103fed26 	beq	r2,zero,9184 <_gp+0xffff2fb8>
                bDone = FALSE;
        }
    }             
    
    return Dir;      
}
    91d0:	9005883a 	mov	r2,r18
    91d4:	dfc00517 	ldw	ra,20(sp)
    91d8:	dd000417 	ldw	r20,16(sp)
    91dc:	dcc00317 	ldw	r19,12(sp)
    91e0:	dc800217 	ldw	r18,8(sp)
    91e4:	dc400117 	ldw	r17,4(sp)
    91e8:	dc000017 	ldw	r16,0(sp)
    91ec:	dec00604 	addi	sp,sp,24
    91f0:	f800283a 	ret
    return TRUE;
    
}

bool fatIsUnusedDir(FAT_DIRECTORY *pDir){
    if (pDir->Name[0] == (alt_8)UNUSED_DIR_ENTRY)
    91f4:	8825883a 	mov	r18,r17
            // read sector
        if (fatReadSecter(pVol, nSecter)){
            nByteOffset = (sizeof(FAT_DIRECTORY)*nDirectoryIndex)%pVol->BPB_BytsPerSec; 
            pDir = (FAT_DIRECTORY *)(pVol->Secter_Data + nByteOffset);
            if (fatIsLastDir(pDir) || fatIsUnusedDir(pDir)){
                bDone = TRUE;
    91f8:	00800044 	movi	r2,1
    91fc:	003ff206 	br	91c8 <_gp+0xffff2ffc>

00009200 <fatMount>:
    
    return Dir;      
}

//=================================================================================
bool fatMount(VOLUME_INFO *pVol){
    9200:	deff7804 	addi	sp,sp,-544
    9204:	dc008015 	stw	r16,512(sp)
    // 1DEh( 16 bytes): 3nd Partition Entry
    // 1EEh( 16 bytes): 4nd Partition Entry
    // 1FEh(  2 bytes): Executable Maker (55h AAh)
    
    // read first block (secotor 0), BPB(BIOS Parameter Block) or called as boot sector or reserved sector
    if (!pVol->ReadBlock512(pVol->DiskHandle, 0, szBlock)){
    9208:	20800117 	ldw	r2,4(r4)
    
    return Dir;      
}

//=================================================================================
bool fatMount(VOLUME_INFO *pVol){
    920c:	2021883a 	mov	r16,r4
    // 1DEh( 16 bytes): 3nd Partition Entry
    // 1EEh( 16 bytes): 4nd Partition Entry
    // 1FEh(  2 bytes): Executable Maker (55h AAh)
    
    // read first block (secotor 0), BPB(BIOS Parameter Block) or called as boot sector or reserved sector
    if (!pVol->ReadBlock512(pVol->DiskHandle, 0, szBlock)){
    9210:	21000017 	ldw	r4,0(r4)
    
    return Dir;      
}

//=================================================================================
bool fatMount(VOLUME_INFO *pVol){
    9214:	dfc08715 	stw	ra,540(sp)
    9218:	dd808615 	stw	r22,536(sp)
    921c:	dd408515 	stw	r21,532(sp)
    9220:	dd008415 	stw	r20,528(sp)
    9224:	dcc08315 	stw	r19,524(sp)
    9228:	dc808215 	stw	r18,520(sp)
    922c:	dc408115 	stw	r17,516(sp)
    // 1DEh( 16 bytes): 3nd Partition Entry
    // 1EEh( 16 bytes): 4nd Partition Entry
    // 1FEh(  2 bytes): Executable Maker (55h AAh)
    
    // read first block (secotor 0), BPB(BIOS Parameter Block) or called as boot sector or reserved sector
    if (!pVol->ReadBlock512(pVol->DiskHandle, 0, szBlock)){
    9230:	d80d883a 	mov	r6,sp
    9234:	000b883a 	mov	r5,zero
    9238:	103ee83a 	callr	r2
    923c:	1000021e 	bne	r2,zero,9248 <fatMount+0x48>
        FAT_DEBUG(("Read section 0 error.\n"));
        return FALSE;
    9240:	0005883a 	mov	r2,zero
    9244:	00004806 	br	9368 <fatMount+0x168>
    }
    */
        
    // check file system 
    FirstPartitionEntry = 0x1BE;
    PartitionType = szBlock[FirstPartitionEntry + 4];
    9248:	d8807083 	ldbu	r2,450(sp)
    if (PartitionType == PARTITION_FAT16){
    924c:	00c00184 	movi	r3,6
    9250:	10c00226 	beq	r2,r3,925c <fatMount+0x5c>
        FAT_DEBUG(("FAT16\n"));
    }else if (PartitionType == PARTITION_FAT32){
    9254:	00c002c4 	movi	r3,11
    9258:	10fff91e 	bne	r2,r3,9240 <_gp+0xffff3074>
        FAT_DEBUG(("the partition type(%d) is not supported.\n", PartitionType));
        return FALSE; // only support FAT16 in this example
    }       
    pVol->Partition_Type = PartitionType; 
    // 2.2 Find the first section of partition 1                    
    FirstSectionInVolume1 = fatArray2Value(&szBlock[FirstPartitionEntry + 8],4);
    925c:	01400104 	movi	r5,4
    9260:	d9007184 	addi	r4,sp,454
        FAT_DEBUG(("FAT32\n"));
    }else{        
        FAT_DEBUG(("the partition type(%d) is not supported.\n", PartitionType));
        return FALSE; // only support FAT16 in this example
    }       
    pVol->Partition_Type = PartitionType; 
    9264:	80800315 	stw	r2,12(r16)
    // 2.2 Find the first section of partition 1                    
    FirstSectionInVolume1 = fatArray2Value(&szBlock[FirstPartitionEntry + 8],4);
    9268:	0008cec0 	call	8cec <fatArray2Value>
    926c:	102b883a 	mov	r21,r2
                            //szBlock[FirstPartitionEntry + 8 + 1]*256 + 
                            //szBlock[FirstPartitionEntry + 8];        
    
    //3 Parsing the Volume Boot Record(BR)
    //3.1  Read the Volume Boot Record(BR)
    if (!pVol->ReadBlock512(pVol->DiskHandle, FirstSectionInVolume1, szBlock)){
    9270:	81000017 	ldw	r4,0(r16)
    9274:	80800117 	ldw	r2,4(r16)
    9278:	d80d883a 	mov	r6,sp
    927c:	a80b883a 	mov	r5,r21
    9280:	103ee83a 	callr	r2
    9284:	103fee26 	beq	r2,zero,9240 <_gp+0xffff3074>
        FAT_DEBUG(("Read first sector in volume one fail.\n"));
        return FALSE;
    }        
    pVol->PartitionStartSecter = FirstSectionInVolume1;     
    pVol->BPB_BytsPerSec = szBlock[0x0B+1]*256 + szBlock[0x0B];
    9288:	dd000303 	ldbu	r20,12(sp)
    pVol->BPB_SecPerCluster = szBlock[0x0D];
    pVol->BPB_RsvdSecCnt = szBlock[0x0E + 1]*256 + szBlock[0x0E]; 
    928c:	dc4003c3 	ldbu	r17,15(sp)
    pVol->BPB_NumFATs = szBlock[0x10];
    pVol->BPB_RootEntCnt = szBlock[0x11+1]*256 + szBlock[0x11]; 
    9290:	dc800483 	ldbu	r18,18(sp)
    if (!pVol->ReadBlock512(pVol->DiskHandle, FirstSectionInVolume1, szBlock)){
        FAT_DEBUG(("Read first sector in volume one fail.\n"));
        return FALSE;
    }        
    pVol->PartitionStartSecter = FirstSectionInVolume1;     
    pVol->BPB_BytsPerSec = szBlock[0x0B+1]*256 + szBlock[0x0B];
    9294:	a004923a 	slli	r2,r20,8
    9298:	dd0002c3 	ldbu	r20,11(sp)
    pVol->BPB_SecPerCluster = szBlock[0x0D];
    929c:	dcc00343 	ldbu	r19,13(sp)
    pVol->BPB_RsvdSecCnt = szBlock[0x0E + 1]*256 + szBlock[0x0E]; 
    pVol->BPB_NumFATs = szBlock[0x10];
    92a0:	dd800403 	ldbu	r22,16(sp)
    if (!pVol->ReadBlock512(pVol->DiskHandle, FirstSectionInVolume1, szBlock)){
        FAT_DEBUG(("Read first sector in volume one fail.\n"));
        return FALSE;
    }        
    pVol->PartitionStartSecter = FirstSectionInVolume1;     
    pVol->BPB_BytsPerSec = szBlock[0x0B+1]*256 + szBlock[0x0B];
    92a4:	1529883a 	add	r20,r2,r20
    pVol->BPB_SecPerCluster = szBlock[0x0D];
    pVol->BPB_RsvdSecCnt = szBlock[0x0E + 1]*256 + szBlock[0x0E]; 
    92a8:	8804923a 	slli	r2,r17,8
    92ac:	dc400383 	ldbu	r17,14(sp)
    //3.1  Read the Volume Boot Record(BR)
    if (!pVol->ReadBlock512(pVol->DiskHandle, FirstSectionInVolume1, szBlock)){
        FAT_DEBUG(("Read first sector in volume one fail.\n"));
        return FALSE;
    }        
    pVol->PartitionStartSecter = FirstSectionInVolume1;     
    92b0:	85400515 	stw	r21,20(r16)
    pVol->BPB_BytsPerSec = szBlock[0x0B+1]*256 + szBlock[0x0B];
    92b4:	85000615 	stw	r20,24(r16)
    pVol->BPB_SecPerCluster = szBlock[0x0D];
    pVol->BPB_RsvdSecCnt = szBlock[0x0E + 1]*256 + szBlock[0x0E]; 
    92b8:	1463883a 	add	r17,r2,r17
    pVol->BPB_NumFATs = szBlock[0x10];
    pVol->BPB_RootEntCnt = szBlock[0x11+1]*256 + szBlock[0x11]; 
    92bc:	9004923a 	slli	r2,r18,8
    92c0:	dc800443 	ldbu	r18,17(sp)
        FAT_DEBUG(("Read first sector in volume one fail.\n"));
        return FALSE;
    }        
    pVol->PartitionStartSecter = FirstSectionInVolume1;     
    pVol->BPB_BytsPerSec = szBlock[0x0B+1]*256 + szBlock[0x0B];
    pVol->BPB_SecPerCluster = szBlock[0x0D];
    92c4:	84c00715 	stw	r19,28(r16)
    pVol->BPB_RsvdSecCnt = szBlock[0x0E + 1]*256 + szBlock[0x0E]; 
    92c8:	84400815 	stw	r17,32(r16)
    pVol->BPB_NumFATs = szBlock[0x10];
    pVol->BPB_RootEntCnt = szBlock[0x11+1]*256 + szBlock[0x11]; 
    92cc:	14a5883a 	add	r18,r2,r18
    pVol->BPB_FATSz = szBlock[0x16+1]*256 + szBlock[0x16];
    92d0:	d88005c3 	ldbu	r2,23(sp)
    }        
    pVol->PartitionStartSecter = FirstSectionInVolume1;     
    pVol->BPB_BytsPerSec = szBlock[0x0B+1]*256 + szBlock[0x0B];
    pVol->BPB_SecPerCluster = szBlock[0x0D];
    pVol->BPB_RsvdSecCnt = szBlock[0x0E + 1]*256 + szBlock[0x0E]; 
    pVol->BPB_NumFATs = szBlock[0x10];
    92d4:	85800915 	stw	r22,36(r16)
    pVol->BPB_RootEntCnt = szBlock[0x11+1]*256 + szBlock[0x11]; 
    92d8:	84800a15 	stw	r18,40(r16)
    pVol->BPB_FATSz = szBlock[0x16+1]*256 + szBlock[0x16];
    92dc:	1006923a 	slli	r3,r2,8
    92e0:	d8800583 	ldbu	r2,22(sp)
    
    // add for v2.0
    pVol->Secter_Index = -1;
    memset(pVol->Secter_Data, 0, MY_SECTER_SIZE); // 512 bytes
    92e4:	01808004 	movi	r6,512
    92e8:	000b883a 	mov	r5,zero
    pVol->BPB_BytsPerSec = szBlock[0x0B+1]*256 + szBlock[0x0B];
    pVol->BPB_SecPerCluster = szBlock[0x0D];
    pVol->BPB_RsvdSecCnt = szBlock[0x0E + 1]*256 + szBlock[0x0E]; 
    pVol->BPB_NumFATs = szBlock[0x10];
    pVol->BPB_RootEntCnt = szBlock[0x11+1]*256 + szBlock[0x11]; 
    pVol->BPB_FATSz = szBlock[0x16+1]*256 + szBlock[0x16];
    92ec:	1885883a 	add	r2,r3,r2
    92f0:	80800b15 	stw	r2,44(r16)
    
    // add for v2.0
    pVol->Secter_Index = -1;
    92f4:	00bfffc4 	movi	r2,-1
    92f8:	80809015 	stw	r2,576(r16)
    memset(pVol->Secter_Data, 0, MY_SECTER_SIZE); // 512 bytes
    92fc:	81001004 	addi	r4,r16,64
    9300:	000c1700 	call	c170 <memset>
    
    if (pVol->Partition_Type == PARTITION_FAT32){
    9304:	80c00317 	ldw	r3,12(r16)
    9308:	008002c4 	movi	r2,11
    930c:	1880041e 	bne	r3,r2,9320 <fatMount+0x120>
        pVol->BPB_FATSz = fatArray2Value(&szBlock[0x24], 4);  // BPB_FATSz32
    9310:	01400104 	movi	r5,4
    9314:	d9000904 	addi	r4,sp,36
    9318:	0008cec0 	call	8cec <fatArray2Value>
    931c:	80800b15 	stw	r2,44(r16)
        //pVol->BPB_RootEntCnt = fatArray2Value(&szBlock[0x2C], 4);  // BPB_RootClus            
    }
    
    if (pVol->BPB_BytsPerSec != MY_SECTER_SIZE){
    9320:	00808004 	movi	r2,512
    9324:	a0bfc61e 	bne	r20,r2,9240 <_gp+0xffff3074>
    FAT_DEBUG(("Maxmun Root Directory Entries: %04Xh(%d)\n", gVolumeInfo.BPB_RootEntCnt, gVolumeInfo.BPB_RootEntCnt));
    FAT_DEBUG(("Sectors Per FAT: %04Xh(%d)\n", gVolumeInfo.BPB_FATSz, gVolumeInfo.BPB_FATSz));
#endif    
    //
    pVol->FatEntrySecter = pVol->PartitionStartSecter + pVol->BPB_RsvdSecCnt;
    pVol->RootDirectoryEntrySecter = pVol->FatEntrySecter + pVol->BPB_NumFATs * pVol->BPB_FATSz;
    9328:	81400b17 	ldw	r5,44(r16)
    FAT_DEBUG(("Number of Copyies of FAT: %02Xh(%d)\n", gVolumeInfo.BPB_NumFATs, gVolumeInfo.BPB_NumFATs));
    FAT_DEBUG(("Maxmun Root Directory Entries: %04Xh(%d)\n", gVolumeInfo.BPB_RootEntCnt, gVolumeInfo.BPB_RootEntCnt));
    FAT_DEBUG(("Sectors Per FAT: %04Xh(%d)\n", gVolumeInfo.BPB_FATSz, gVolumeInfo.BPB_FATSz));
#endif    
    //
    pVol->FatEntrySecter = pVol->PartitionStartSecter + pVol->BPB_RsvdSecCnt;
    932c:	ac63883a 	add	r17,r21,r17
    9330:	84400d15 	stw	r17,52(r16)
    pVol->RootDirectoryEntrySecter = pVol->FatEntrySecter + pVol->BPB_NumFATs * pVol->BPB_FATSz;
    9334:	b009883a 	mov	r4,r22
    9338:	000ac100 	call	ac10 <__mulsi3>
    933c:	1463883a 	add	r17,r2,r17
    pVol->DataEntrySecter = pVol->RootDirectoryEntrySecter + ((pVol->BPB_RootEntCnt*32)+(pVol->BPB_BytsPerSec-1))/pVol->BPB_BytsPerSec;
    9340:	9004917a 	slli	r2,r18,5
    
    // read FAT table into memory
    pVol->nBytesPerCluster = pVol->BPB_BytsPerSec * pVol->BPB_SecPerCluster;
    9344:	9826927a 	slli	r19,r19,9
    FAT_DEBUG(("Maxmun Root Directory Entries: %04Xh(%d)\n", gVolumeInfo.BPB_RootEntCnt, gVolumeInfo.BPB_RootEntCnt));
    FAT_DEBUG(("Sectors Per FAT: %04Xh(%d)\n", gVolumeInfo.BPB_FATSz, gVolumeInfo.BPB_FATSz));
#endif    
    //
    pVol->FatEntrySecter = pVol->PartitionStartSecter + pVol->BPB_RsvdSecCnt;
    pVol->RootDirectoryEntrySecter = pVol->FatEntrySecter + pVol->BPB_NumFATs * pVol->BPB_FATSz;
    9348:	84400e15 	stw	r17,56(r16)
    pVol->DataEntrySecter = pVol->RootDirectoryEntrySecter + ((pVol->BPB_RootEntCnt*32)+(pVol->BPB_BytsPerSec-1))/pVol->BPB_BytsPerSec;
    934c:	10807fc4 	addi	r2,r2,511
    9350:	1004d27a 	srli	r2,r2,9
    
    // read FAT table into memory
    pVol->nBytesPerCluster = pVol->BPB_BytsPerSec * pVol->BPB_SecPerCluster;
    9354:	84c00c15 	stw	r19,48(r16)
    FAT_DEBUG(("Sectors Per FAT: %04Xh(%d)\n", gVolumeInfo.BPB_FATSz, gVolumeInfo.BPB_FATSz));
#endif    
    //
    pVol->FatEntrySecter = pVol->PartitionStartSecter + pVol->BPB_RsvdSecCnt;
    pVol->RootDirectoryEntrySecter = pVol->FatEntrySecter + pVol->BPB_NumFATs * pVol->BPB_FATSz;
    pVol->DataEntrySecter = pVol->RootDirectoryEntrySecter + ((pVol->BPB_RootEntCnt*32)+(pVol->BPB_BytsPerSec-1))/pVol->BPB_BytsPerSec;
    9358:	1463883a 	add	r17,r2,r17
    if (bSuccess){
        FAT_DEBUG(("Fat_Mount success\n"));
    }else{        
        FAT_DEBUG(("Fat_Mount fail\n"));
    }        
    pVol->bMount = bSuccess;
    935c:	00800044 	movi	r2,1
    FAT_DEBUG(("Sectors Per FAT: %04Xh(%d)\n", gVolumeInfo.BPB_FATSz, gVolumeInfo.BPB_FATSz));
#endif    
    //
    pVol->FatEntrySecter = pVol->PartitionStartSecter + pVol->BPB_RsvdSecCnt;
    pVol->RootDirectoryEntrySecter = pVol->FatEntrySecter + pVol->BPB_NumFATs * pVol->BPB_FATSz;
    pVol->DataEntrySecter = pVol->RootDirectoryEntrySecter + ((pVol->BPB_RootEntCnt*32)+(pVol->BPB_BytsPerSec-1))/pVol->BPB_BytsPerSec;
    9360:	84400f15 	stw	r17,60(r16)
    if (bSuccess){
        FAT_DEBUG(("Fat_Mount success\n"));
    }else{        
        FAT_DEBUG(("Fat_Mount fail\n"));
    }        
    pVol->bMount = bSuccess;
    9364:	80800415 	stw	r2,16(r16)
    return bSuccess;   
    

}
    9368:	dfc08717 	ldw	ra,540(sp)
    936c:	dd808617 	ldw	r22,536(sp)
    9370:	dd408517 	ldw	r21,532(sp)
    9374:	dd008417 	ldw	r20,528(sp)
    9378:	dcc08317 	ldw	r19,524(sp)
    937c:	dc808217 	ldw	r18,520(sp)
    9380:	dc408117 	ldw	r17,516(sp)
    9384:	dc008017 	ldw	r16,512(sp)
    9388:	dec08804 	addi	sp,sp,544
    938c:	f800283a 	ret

00009390 <fatMountSdcard>:

bool SD_WriteBlock512(DISK_HANDLE DiskHandle, alt_u32 PysicalSelector, alt_u8 szBuf[512]){
    return SDLIB_WriteBlock512(PysicalSelector, szBuf);
}

FAT_HANDLE fatMountSdcard(void){
    9390:	defffe04 	addi	sp,sp,-8
    9394:	dc000015 	stw	r16,0(sp)
    9398:	dfc00115 	stw	ra,4(sp)
    939c:	040002c4 	movi	r16,11
    93a0:	843fffc4 	addi	r16,r16,-1
    int nTry=0;
    bool bSuccess = TRUE;
    
        
    //1. chek whether SD Card existed. Init SD card if it is present.
    while(!bFind && nTry++ < nMaxTry){
    93a4:	80000826 	beq	r16,zero,93c8 <fatMountSdcard+0x38>
        bFind = SDLIB_Init();
    93a8:	0009b2c0 	call	9b2c <SDLIB_Init>
        if (!bFind)
    93ac:	1000081e 	bne	r2,zero,93d0 <fatMountSdcard+0x40>
            usleep(100*1000);
    93b0:	010000b4 	movhi	r4,2
    93b4:	2121a804 	addi	r4,r4,-31072
    93b8:	000d6a80 	call	d6a8 <usleep>
    93bc:	003ff806 	br	93a0 <_gp+0xffff31d4>
    if (bSuccess){
        FAT_DEBUG(("Fat_Mount success\n"));
        pVol->bMount = TRUE;
    }else{        
        FAT_DEBUG(("Fat_Mount fail\n"));
        free((void *)hFat);
    93c0:	8009883a 	mov	r4,r16
    93c4:	000c1340 	call	c134 <free>
        hFat = 0;
    93c8:	0005883a 	mov	r2,zero
    93cc:	00000f06 	br	940c <fatMountSdcard+0x7c>
    if (!bFind){
        FAT_DEBUG(("Cannot find SD card.\n"));
        return hFat;
    }    
    
    hFat = malloc(sizeof(VOLUME_INFO));
    93d0:	01009104 	movi	r4,580
    93d4:	000c1200 	call	c120 <malloc>
    93d8:	1021883a 	mov	r16,r2
    pVol = (VOLUME_INFO *)hFat;
    pVol->ReadBlock512 = SD_ReadBlock512;
    93dc:	00800074 	movhi	r2,1
    93e0:	10a2e204 	addi	r2,r2,-29816
    93e4:	80800115 	stw	r2,4(r16)
    pVol->WriteBlock512 = SD_WriteBlock512;
    93e8:	00800074 	movhi	r2,1
    93ec:	10a2e504 	addi	r2,r2,-29804
    93f0:	80800215 	stw	r2,8(r16)
    bSuccess = fatMount(pVol);
    93f4:	8009883a 	mov	r4,r16
    93f8:	00092000 	call	9200 <fatMount>
        
    
  
    if (bSuccess){
    93fc:	103ff026 	beq	r2,zero,93c0 <_gp+0xffff31f4>
        FAT_DEBUG(("Fat_Mount success\n"));
        pVol->bMount = TRUE;
    9400:	00800044 	movi	r2,1
    9404:	80800415 	stw	r2,16(r16)
    if (!bFind){
        FAT_DEBUG(("Cannot find SD card.\n"));
        return hFat;
    }    
    
    hFat = malloc(sizeof(VOLUME_INFO));
    9408:	8005883a 	mov	r2,r16
        free((void *)hFat);
        hFat = 0;
    }        

    return hFat;   
}
    940c:	dfc00117 	ldw	ra,4(sp)
    9410:	dc000017 	ldw	r16,0(sp)
    9414:	dec00204 	addi	sp,sp,8
    9418:	f800283a 	ret

0000941c <crc16>:
alt_u16 crc16(const alt_u8 *buffer, int len){

    int counter;
    alt_u16 crc = 0;
    for( counter = 0; counter < len; counter++)
        crc = (crc<<8) ^ crc16tab[((crc>>8) ^ *(char *)buffer++)&0x00FF];
    941c:	01c00074 	movhi	r7,1
  
alt_u16 crc16(const alt_u8 *buffer, int len){

    int counter;
    alt_u16 crc = 0;
    for( counter = 0; counter < len; counter++)
    9420:	200d883a 	mov	r6,r4
};
  
alt_u16 crc16(const alt_u8 *buffer, int len){

    int counter;
    alt_u16 crc = 0;
    9424:	0005883a 	mov	r2,zero
    for( counter = 0; counter < len; counter++)
        crc = (crc<<8) ^ crc16tab[((crc>>8) ^ *(char *)buffer++)&0x00FF];
    9428:	39f60384 	addi	r7,r7,-10226
  
alt_u16 crc16(const alt_u8 *buffer, int len){

    int counter;
    alt_u16 crc = 0;
    for( counter = 0; counter < len; counter++)
    942c:	3107c83a 	sub	r3,r6,r4
    9430:	19400b0e 	bge	r3,r5,9460 <crc16+0x44>
        crc = (crc<<8) ^ crc16tab[((crc>>8) ^ *(char *)buffer++)&0x00FF];
    9434:	10bfffcc 	andi	r2,r2,65535
    9438:	1010d23a 	srli	r8,r2,8
    943c:	30c00003 	ldbu	r3,0(r6)
    9440:	1004923a 	slli	r2,r2,8
    9444:	31800044 	addi	r6,r6,1
    9448:	40c6f03a 	xor	r3,r8,r3
    944c:	18c7883a 	add	r3,r3,r3
    9450:	38c7883a 	add	r3,r7,r3
    9454:	18c0000b 	ldhu	r3,0(r3)
    9458:	10c4f03a 	xor	r2,r2,r3
    945c:	003ff306 	br	942c <_gp+0xffff3260>
    return crc;
}
    9460:	f800283a 	ret

00009464 <crc7_byte>:
      0x46, 0x4f, 0x54, 0x5d, 0x62, 0x6b, 0x70, 0x79
};

alt_u8 crc7_byte(alt_u8 crc, alt_u8 data)
{
        return crc7_syndrome_table[(crc << 1) ^ data];
    9464:	21003fcc 	andi	r4,r4,255
    9468:	2109883a 	add	r4,r4,r4
    946c:	29403fcc 	andi	r5,r5,255
    9470:	214af03a 	xor	r5,r4,r5
    9474:	01000074 	movhi	r4,1
    9478:	21368384 	addi	r4,r4,-9714
    947c:	214b883a 	add	r5,r4,r5
}
    9480:	28800003 	ldbu	r2,0(r5)
    9484:	f800283a 	ret

00009488 <crc7>:
      0x46, 0x4f, 0x54, 0x5d, 0x62, 0x6b, 0x70, 0x79
};

alt_u8 crc7_byte(alt_u8 crc, alt_u8 data)
{
        return crc7_syndrome_table[(crc << 1) ^ data];
    9488:	00c00074 	movhi	r3,1
 * Context: any
 *
 * Returns the updated CRC7 value.
 */
alt_u8 crc7(alt_u8 crc, const alt_u8 *buffer, int len)
{
    948c:	2005883a 	mov	r2,r4
    9490:	298d883a 	add	r6,r5,r6
      0x46, 0x4f, 0x54, 0x5d, 0x62, 0x6b, 0x70, 0x79
};

alt_u8 crc7_byte(alt_u8 crc, alt_u8 data)
{
        return crc7_syndrome_table[(crc << 1) ^ data];
    9494:	18f68384 	addi	r3,r3,-9714
 *
 * Returns the updated CRC7 value.
 */
alt_u8 crc7(alt_u8 crc, const alt_u8 *buffer, int len)
{
      while (len--)
    9498:	29800826 	beq	r5,r6,94bc <crc7+0x34>
      0x46, 0x4f, 0x54, 0x5d, 0x62, 0x6b, 0x70, 0x79
};

alt_u8 crc7_byte(alt_u8 crc, alt_u8 data)
{
        return crc7_syndrome_table[(crc << 1) ^ data];
    949c:	29000003 	ldbu	r4,0(r5)
    94a0:	10803fcc 	andi	r2,r2,255
    94a4:	1085883a 	add	r2,r2,r2
    94a8:	1104f03a 	xor	r2,r2,r4
    94ac:	1885883a 	add	r2,r3,r2
    94b0:	10800003 	ldbu	r2,0(r2)
    94b4:	29400044 	addi	r5,r5,1
    94b8:	003ff706 	br	9498 <_gp+0xffff32cc>
alt_u8 crc7(alt_u8 crc, const alt_u8 *buffer, int len)
{
      while (len--)
            crc = crc7_byte(crc, *buffer++);
      return crc;
}
    94bc:	f800283a 	ret

000094c0 <debug_output>:

#else

void debug_output(char *pMessage){
    
    printf(pMessage);
    94c0:	000c4081 	jmpi	c408 <printf>

000094c4 <myprintf>:





int myprintf(char *format, ...){
    94c4:	deff7b04 	addi	sp,sp,-532
    94c8:	dfc08115 	stw	ra,516(sp)
    94cc:	dc008015 	stw	r16,512(sp)
    94d0:	d9408215 	stw	r5,520(sp)
    94d4:	d9808315 	stw	r6,524(sp)
    94d8:	d9c08415 	stw	r7,528(sp)
    int rc;
    char szText[512];
    
    va_list paramList;
    va_start(paramList, format);
    rc = vsnprintf(szText, 512, format, paramList);
    94dc:	01408004 	movi	r5,512
    94e0:	200d883a 	mov	r6,r4
    94e4:	d9c08204 	addi	r7,sp,520
    94e8:	d809883a 	mov	r4,sp
    94ec:	000d1fc0 	call	d1fc <vsnprintf>

#else

void debug_output(char *pMessage){
    
    printf(pMessage);
    94f0:	d809883a 	mov	r4,sp
    int rc;
    char szText[512];
    
    va_list paramList;
    va_start(paramList, format);
    rc = vsnprintf(szText, 512, format, paramList);
    94f4:	1021883a 	mov	r16,r2

#else

void debug_output(char *pMessage){
    
    printf(pMessage);
    94f8:	000c4080 	call	c408 <printf>
    va_end(paramList);
    
    debug_output(szText);

    return rc;    
}
    94fc:	8005883a 	mov	r2,r16
    9500:	dfc08117 	ldw	ra,516(sp)
    9504:	dc008017 	ldw	r16,512(sp)
    9508:	dec08504 	addi	sp,sp,532
    950c:	f800283a 	ret

00009510 <myprintf_hexarray>:


int myprintf_hexarray(unsigned char *pHex, int len){
    9510:	defff804 	addi	sp,sp,-32
    9514:	dc800615 	stw	r18,24(sp)
    9518:	dc400515 	stw	r17,20(sp)
    951c:	dc000415 	stw	r16,16(sp)
    9520:	dfc00715 	stw	ra,28(sp)
    9524:	2025883a 	mov	r18,r4
    9528:	2823883a 	mov	r17,r5
    int i;
    unsigned char szText[16];
    for(i=0;i<len;i++){
    952c:	2021883a 	mov	r16,r4
    9530:	8485c83a 	sub	r2,r16,r18
    9534:	1440090e 	bge	r2,r17,955c <myprintf_hexarray+0x4c>
        sprintf(szText, "[%02X]", *(pHex+i));
    9538:	81800003 	ldbu	r6,0(r16)
    953c:	01400074 	movhi	r5,1
    9540:	2976c404 	addi	r5,r5,-9456
    9544:	d809883a 	mov	r4,sp
    9548:	000c5080 	call	c508 <sprintf>
        DEBUG((szText));
    954c:	d809883a 	mov	r4,sp
    9550:	00094c40 	call	94c4 <myprintf>
    9554:	84000044 	addi	r16,r16,1
    9558:	003ff506 	br	9530 <_gp+0xffff3364>
    }
    return len;
}
    955c:	8805883a 	mov	r2,r17
    9560:	dfc00717 	ldw	ra,28(sp)
    9564:	dc800617 	ldw	r18,24(sp)
    9568:	dc400517 	ldw	r17,20(sp)
    956c:	dc000417 	ldw	r16,16(sp)
    9570:	dec00804 	addi	sp,sp,32
    9574:	f800283a 	ret

00009578 <myprintf_dwordarray>:

int  myprintf_dwordarray(unsigned int *pArray, int nElementCount){
    9578:	defff804 	addi	sp,sp,-32
    957c:	dc800615 	stw	r18,24(sp)
    9580:	dc400515 	stw	r17,20(sp)
    9584:	dc000415 	stw	r16,16(sp)
    9588:	dfc00715 	stw	ra,28(sp)
    958c:	2825883a 	mov	r18,r5
    9590:	2023883a 	mov	r17,r4
    int i;
    char szText[16];
    for(i=0;i<nElementCount;i++){
    9594:	0021883a 	mov	r16,zero
    9598:	84800a0e 	bge	r16,r18,95c4 <myprintf_dwordarray+0x4c>
        sprintf(szText, "[%08X]", *(pArray+i));
    959c:	89800017 	ldw	r6,0(r17)
    95a0:	01400074 	movhi	r5,1
    95a4:	2976c604 	addi	r5,r5,-9448
    95a8:	d809883a 	mov	r4,sp
    95ac:	000c5080 	call	c508 <sprintf>
        DEBUG((szText));
    95b0:	d809883a 	mov	r4,sp
    95b4:	00094c40 	call	94c4 <myprintf>
}

int  myprintf_dwordarray(unsigned int *pArray, int nElementCount){
    int i;
    char szText[16];
    for(i=0;i<nElementCount;i++){
    95b8:	84000044 	addi	r16,r16,1
    95bc:	8c400104 	addi	r17,r17,4
    95c0:	003ff506 	br	9598 <_gp+0xffff33cc>
        sprintf(szText, "[%08X]", *(pArray+i));
        DEBUG((szText));
    }
    return nElementCount;
}
    95c4:	9005883a 	mov	r2,r18
    95c8:	dfc00717 	ldw	ra,28(sp)
    95cc:	dc800617 	ldw	r18,24(sp)
    95d0:	dc400517 	ldw	r17,20(sp)
    95d4:	dc000417 	ldw	r16,16(sp)
    95d8:	dec00804 	addi	sp,sp,32
    95dc:	f800283a 	ret

000095e0 <SDHAL_IsSupport4Bits>:
    bool bYes = FALSE;
#ifdef SD_4BIT_MODE
    bYes = TRUE;
#endif    
    return bYes;
}
    95e0:	00800044 	movi	r2,1
    95e4:	f800283a 	ret

000095e8 <SDHAL_Init>:

void SDHAL_Init(void){
    SD_CMD_OUT;
    95e8:	00c00074 	movhi	r3,1
    95ec:	00800044 	movi	r2,1
    95f0:	18c40904 	addi	r3,r3,4132
    95f4:	18800035 	stwio	r2,0(r3)
    SD_DAT_IN;
    95f8:	01000074 	movhi	r4,1
    95fc:	0007883a 	mov	r3,zero
    9600:	21040504 	addi	r4,r4,4116
    9604:	20c00035 	stwio	r3,0(r4)
    SD_CLK_HIGH;
    9608:	01000074 	movhi	r4,1
    960c:	21040c04 	addi	r4,r4,4144
    9610:	20800035 	stwio	r2,0(r4)
    SD_CMD_HIGH;
    9614:	01000074 	movhi	r4,1
    9618:	21040804 	addi	r4,r4,4128
    961c:	20800035 	stwio	r2,0(r4)
    SD_DAT_LOW;    
    9620:	00800074 	movhi	r2,1
    9624:	10840404 	addi	r2,r2,4112
    9628:	10c00035 	stwio	r3,0(r2)
    962c:	f800283a 	ret

00009630 <SDHAL_SendCmd>:
void SDHAL_SendCmd(alt_u8 szCommand[6], int nCmdLen){

    int i, k;
    alt_u8 Mask, Data;
    
    SD_CMD_OUT;
    9630:	00c00074 	movhi	r3,1
    9634:	00800044 	movi	r2,1
    9638:	18c40904 	addi	r3,r3,4132
    963c:	18800035 	stwio	r2,0(r3)
    for(i=0;i<nCmdLen;i++){
        Mask = 0x80;
        Data = szCommand[i];
        for(k=0;k<8;k++){
            SD_CLK_LOW;
    9640:	02800074 	movhi	r10,1
    9644:	02400074 	movhi	r9,1

    int i, k;
    alt_u8 Mask, Data;
    
    SD_CMD_OUT;
    for(i=0;i<nCmdLen;i++){
    9648:	200d883a 	mov	r6,r4
        Mask = 0x80;
        Data = szCommand[i];
        for(k=0;k<8;k++){
            SD_CLK_LOW;
    964c:	52840c04 	addi	r10,r10,4144
    9650:	4a440804 	addi	r9,r9,4128

    int i, k;
    alt_u8 Mask, Data;
    
    SD_CMD_OUT;
    for(i=0;i<nCmdLen;i++){
    9654:	3107c83a 	sub	r3,r6,r4
    9658:	1940130e 	bge	r3,r5,96a8 <SDHAL_SendCmd+0x78>
        Mask = 0x80;
        Data = szCommand[i];
    965c:	32c00003 	ldbu	r11,0(r6)
    9660:	01c00204 	movi	r7,8
    int i, k;
    alt_u8 Mask, Data;
    
    SD_CMD_OUT;
    for(i=0;i<nCmdLen;i++){
        Mask = 0x80;
    9664:	00ffe004 	movi	r3,-128
        Data = szCommand[i];
        for(k=0;k<8;k++){
            SD_CLK_LOW;
    9668:	50000035 	stwio	zero,0(r10)
            if (Data & Mask)
    966c:	58d0703a 	and	r8,r11,r3
    9670:	42003fcc 	andi	r8,r8,255
    9674:	40000226 	beq	r8,zero,9680 <SDHAL_SendCmd+0x50>
                SD_CMD_HIGH;
    9678:	48800035 	stwio	r2,0(r9)
    967c:	00000106 	br	9684 <SDHAL_SendCmd+0x54>
            else
                SD_CMD_LOW;
    9680:	48000035 	stwio	zero,0(r9)
            SD_CLK_HIGH;    
    9684:	02000074 	movhi	r8,1
    9688:	42040c04 	addi	r8,r8,4144
    968c:	40800035 	stwio	r2,0(r8)
            //    
            Mask >>= 1;
    9690:	18c03fcc 	andi	r3,r3,255
    9694:	39ffffc4 	addi	r7,r7,-1
    9698:	1806d07a 	srli	r3,r3,1
    
    SD_CMD_OUT;
    for(i=0;i<nCmdLen;i++){
        Mask = 0x80;
        Data = szCommand[i];
        for(k=0;k<8;k++){
    969c:	383ff21e 	bne	r7,zero,9668 <_gp+0xffff349c>
    96a0:	31800044 	addi	r6,r6,1
    96a4:	003feb06 	br	9654 <_gp+0xffff3488>
            //    
            Mask >>= 1;
           // usleep(1);
        }
    }
}
    96a8:	f800283a 	ret

000096ac <SDHAL_DummyClock>:


void SDHAL_DummyClock(int nClockCnt){
    int i;
    for(i=0;i<nClockCnt;i++){
        SD_CLK_LOW;
    96ac:	00c00074 	movhi	r3,1
}


void SDHAL_DummyClock(int nClockCnt){
    int i;
    for(i=0;i<nClockCnt;i++){
    96b0:	0005883a 	mov	r2,zero
        SD_CLK_LOW;
    96b4:	18c40c04 	addi	r3,r3,4144
        SD_CLK_HIGH;
    96b8:	01400044 	movi	r5,1
}


void SDHAL_DummyClock(int nClockCnt){
    int i;
    for(i=0;i<nClockCnt;i++){
    96bc:	1100040e 	bge	r2,r4,96d0 <SDHAL_DummyClock+0x24>
        SD_CLK_LOW;
    96c0:	18000035 	stwio	zero,0(r3)
        SD_CLK_HIGH;
    96c4:	19400035 	stwio	r5,0(r3)
}


void SDHAL_DummyClock(int nClockCnt){
    int i;
    for(i=0;i<nClockCnt;i++){
    96c8:	10800044 	addi	r2,r2,1
    96cc:	003ffb06 	br	96bc <_gp+0xffff34f0>
        SD_CLK_LOW;
        SD_CLK_HIGH;
    }
}
    96d0:	f800283a 	ret

000096d4 <SDHAL_GetResponse>:
    const int nMaxCnt = 20; // !!!! Note. the value should be large than 8
    int nCnt, nBitCnt, nIndex;
    alt_u8 Value;
    

    SD_CMD_IN;
    96d4:	00800074 	movhi	r2,1
    96d8:	10840904 	addi	r2,r2,4132
    96dc:	10000035 	stwio	zero,0(r2)
    //===== check start bit == 0
    nCnt = 0;
    bDone = FALSE;
    bTimeout = FALSE;
    while(!bDone && !bTimeout){
        SD_CLK_LOW;
    96e0:	00c00074 	movhi	r3,1
        SD_CLK_HIGH;
        if(!(SD_TEST_CMD))
    96e4:	02c00074 	movhi	r11,1
    const int nMaxCnt = 20; // !!!! Note. the value should be large than 8
    int nCnt, nBitCnt, nIndex;
    alt_u8 Value;
    

    SD_CMD_IN;
    96e8:	0005883a 	mov	r2,zero
    //===== check start bit == 0
    nCnt = 0;
    bDone = FALSE;
    bTimeout = FALSE;
    while(!bDone && !bTimeout){
        SD_CLK_LOW;
    96ec:	18c40c04 	addi	r3,r3,4144
        SD_CLK_HIGH;
    96f0:	02800044 	movi	r10,1
        if(!(SD_TEST_CMD))
    96f4:	5ac40804 	addi	r11,r11,4128
    
    //===== check start bit == 0
    nCnt = 0;
    bDone = FALSE;
    bTimeout = FALSE;
    while(!bDone && !bTimeout){
    96f8:	02000504 	movi	r8,20
        SD_CLK_LOW;
    96fc:	18000035 	stwio	zero,0(r3)
        SD_CLK_HIGH;
    9700:	01c00044 	movi	r7,1
    9704:	1a800035 	stwio	r10,0(r3)
        if(!(SD_TEST_CMD))
    9708:	5b000037 	ldwio	r12,0(r11)
    970c:	01800074 	movhi	r6,1
    9710:	02400074 	movhi	r9,1
    9714:	31840c04 	addi	r6,r6,4144
    9718:	4a440804 	addi	r9,r9,4128
    971c:	60000526 	beq	r12,zero,9734 <SDHAL_GetResponse+0x60>
    9720:	100d883a 	mov	r6,r2
    9724:	11c5883a 	add	r2,r2,r7
    
    //===== check start bit == 0
    nCnt = 0;
    bDone = FALSE;
    bTimeout = FALSE;
    while(!bDone && !bTimeout){
    9728:	41bff40e 	bge	r8,r6,96fc <_gp+0xffff3530>
        else if(nCnt++ > nMaxCnt)
            bTimeout = TRUE;
    }
    
    if (!bDone || bTimeout)
        return FALSE;
    972c:	0005883a 	mov	r2,zero
    
    // A command with response. 8 clocks after the card response end bit.
    SDHAL_DummyClock(8);
    
    return TRUE;
}
    9730:	f800283a 	ret
    if (!bDone || bTimeout)
        return FALSE;
  
    //===== check transmitter bit == 0

    SD_CLK_LOW;
    9734:	30000035 	stwio	zero,0(r6)
    SD_CLK_HIGH;
    9738:	31c00035 	stwio	r7,0(r6)
    if (SD_TEST_CMD)
    973c:	48800037 	ldwio	r2,0(r9)
    9740:	103ffa1e 	bne	r2,zero,972c <_gp+0xffff3560>
        return FALSE;   // 0 is expected

    
    //===== read content + CRC + end-bits ======
    nIndex = 2;
    nBitCnt = nLen*8;
    9744:	280a90fa 	slli	r5,r5,3
    bDone = FALSE;
    Value = 0;
    9748:	0007883a 	mov	r3,zero
    if (SD_TEST_CMD)
        return FALSE;   // 0 is expected

    
    //===== read content + CRC + end-bits ======
    nIndex = 2;
    974c:	00800084 	movi	r2,2
    Value = 0;
    while(nIndex < nBitCnt){
        SD_CLK_LOW;
        SD_CLK_HIGH;
        if (SD_TEST_CMD){
            Value |= 0x80 >> (nIndex % 8);
    9750:	02802004 	movi	r10,128
        }
        if (nIndex%8 == 7){
    9754:	02c001c4 	movi	r11,7
    //===== read content + CRC + end-bits ======
    nIndex = 2;
    nBitCnt = nLen*8;
    bDone = FALSE;
    Value = 0;
    while(nIndex < nBitCnt){
    9758:	11400e0e 	bge	r2,r5,9794 <SDHAL_GetResponse+0xc0>
        SD_CLK_LOW;
    975c:	30000035 	stwio	zero,0(r6)
        SD_CLK_HIGH;
    9760:	31c00035 	stwio	r7,0(r6)
        if (SD_TEST_CMD){
    9764:	4b000037 	ldwio	r12,0(r9)
    9768:	120001cc 	andi	r8,r2,7
    976c:	60000226 	beq	r12,zero,9778 <SDHAL_GetResponse+0xa4>
            Value |= 0x80 >> (nIndex % 8);
    9770:	5219d83a 	sra	r12,r10,r8
    9774:	60c6b03a 	or	r3,r12,r3
        }
        if (nIndex%8 == 7){
    9778:	42c0041e 	bne	r8,r11,978c <SDHAL_GetResponse+0xb8>
            szResponse[nIndex/8] = Value;
    977c:	1011d0fa 	srai	r8,r2,3
    9780:	2211883a 	add	r8,r4,r8
    9784:	40c00005 	stb	r3,0(r8)
            Value = 0;
    9788:	0007883a 	mov	r3,zero
        }
        nIndex++;
    978c:	10800044 	addi	r2,r2,1
    9790:	003ff106 	br	9758 <_gp+0xffff358c>
}




bool SDHAL_GetResponse(alt_u8 szResponse[], int nLen){
    9794:	deffff04 	addi	sp,sp,-4
        }
        nIndex++;
    } 
    
    // A command with response. 8 clocks after the card response end bit.
    SDHAL_DummyClock(8);
    9798:	01000204 	movi	r4,8
}




bool SDHAL_GetResponse(alt_u8 szResponse[], int nLen){
    979c:	dfc00015 	stw	ra,0(sp)
        }
        nIndex++;
    } 
    
    // A command with response. 8 clocks after the card response end bit.
    SDHAL_DummyClock(8);
    97a0:	00096ac0 	call	96ac <SDHAL_DummyClock>
    
    return TRUE;
    97a4:	00800044 	movi	r2,1
}
    97a8:	dfc00017 	ldw	ra,0(sp)
    97ac:	dec00104 	addi	sp,sp,4
    97b0:	f800283a 	ret

000097b4 <SDHAL_ReadData>:
    
    alt_u8 Data8_0,Data8_1,Data8_2,Data8_3;
    
#endif    
    
    SD_DAT_IN;
    97b4:	00800074 	movhi	r2,1
    97b8:	10840504 	addi	r2,r2,4116
    97bc:	10000035 	stwio	zero,0(r2)
    
    // wait start bits (zero)
    while(1){
      SD_CLK_LOW;
    97c0:	01c00074 	movhi	r7,1
      SD_CLK_HIGH;
#ifdef SD_4BIT_MODE
      if((SD_TEST_DAT & 0x0F) == 0x00) // check start bits (zero is expected)
    97c4:	02400074 	movhi	r9,1
    
    alt_u8 Data8_0,Data8_1,Data8_2,Data8_3;
    
#endif    
    
    SD_DAT_IN;
    97c8:	0084e284 	movi	r2,5002
    
    // wait start bits (zero)
    while(1){
      SD_CLK_LOW;
    97cc:	39c40c04 	addi	r7,r7,4144
      SD_CLK_HIGH;
    97d0:	02000044 	movi	r8,1
#ifdef SD_4BIT_MODE
      if((SD_TEST_DAT & 0x0F) == 0x00) // check start bits (zero is expected)
    97d4:	4a440404 	addi	r9,r9,4112
    
    SD_DAT_IN;
    
    // wait start bits (zero)
    while(1){
      SD_CLK_LOW;
    97d8:	38000035 	stwio	zero,0(r7)
      SD_CLK_HIGH;
    97dc:	3a000035 	stwio	r8,0(r7)
#ifdef SD_4BIT_MODE
      if((SD_TEST_DAT & 0x0F) == 0x00) // check start bits (zero is expected)
    97e0:	48c00037 	ldwio	r3,0(r9)
    97e4:	01800074 	movhi	r6,1
    97e8:	03000074 	movhi	r12,1
    97ec:	18c003cc 	andi	r3,r3,15
    97f0:	31840c04 	addi	r6,r6,4144
    97f4:	63040404 	addi	r12,r12,4112
    97f8:	18000f1e 	bne	r3,zero,9838 <SDHAL_ReadData+0x84>
    
    return TRUE;
}


bool SDHAL_ReadData(alt_u8 szBuf[], int nBufLen){
    97fc:	deff7904 	addi	sp,sp,-540
    9800:	dfc08615 	stw	ra,536(sp)
    9804:	dd408515 	stw	r21,532(sp)
    9808:	dd008415 	stw	r20,528(sp)
    980c:	dcc08315 	stw	r19,524(sp)
    9810:	dc808215 	stw	r18,520(sp)
    9814:	dc408115 	stw	r17,516(sp)
    9818:	dc008015 	stw	r16,512(sp)
    }     
    
    // read data (512byte = 1 block)
    
#ifdef SD_4BIT_MODE
     for(i=0;i<nBufLen/4;i++)
    981c:	2800010e 	bge	r5,zero,9824 <SDHAL_ReadData+0x70>
    9820:	294000c4 	addi	r5,r5,3
    9824:	2821d0ba 	srai	r16,r5,2
    9828:	001b883a 	mov	r13,zero
    982c:	0007883a 	mov	r3,zero
        Data8_3 = 0;
        
        for(j=0;j<8;j++)
        {
          SD_CLK_LOW;
          SD_CLK_HIGH;
    9830:	04800044 	movi	r18,1
    9834:	00002f06 	br	98f4 <SDHAL_ReadData+0x140>
    9838:	10bfffc4 	addi	r2,r2,-1
      if((SD_TEST_DAT & 0x0F) == 0x00) // check start bits (zero is expected)
#else      
      if((SD_TEST_DAT & 0x01) == 0x00) // check start bits (zero is expected)
#endif      
        break;
      if (nTry++ > nMaxTry)
    983c:	103fe61e 	bne	r2,zero,97d8 <_gp+0xffff360c>
    9840:	0005883a 	mov	r2,zero
    }            
    
#endif

    return bSuccess;
}
    9844:	f800283a 	ret
        Data8_2 = 0;
        Data8_3 = 0;
        
        for(j=0;j<8;j++)
        {
          SD_CLK_LOW;
    9848:	30000035 	stwio	zero,0(r6)
          SD_CLK_HIGH;
    984c:	34800035 	stwio	r18,0(r6)
          Data8_0 <<= 1;
          Data8_1 <<= 1;
          Data8_2 <<= 1;
          Data8_3 <<= 1; 
          
          DataTemp = SD_TEST_DAT;
    9850:	60800037 	ldwio	r2,0(r12)
          Data8   |= (DataTemp & 0x0F);
          Data8_0 |= (DataTemp & 0x01);
    9854:	1440004c 	andi	r17,r2,1
          Data8_1 <<= 1;
          Data8_2 <<= 1;
          Data8_3 <<= 1; 
          
          DataTemp = SD_TEST_DAT;
          Data8   |= (DataTemp & 0x0F);
    9858:	12c003cc 	andi	r11,r2,15
          Data8_0 |= (DataTemp & 0x01);
    985c:	4a53883a 	add	r9,r9,r9
          Data8_1 |= ((DataTemp >> 1) & 0x01);
    9860:	10803fcc 	andi	r2,r2,255
          Data8_2 <<= 1;
          Data8_3 <<= 1; 
          
          DataTemp = SD_TEST_DAT;
          Data8   |= (DataTemp & 0x0F);
          Data8_0 |= (DataTemp & 0x01);
    9864:	8a52b03a 	or	r9,r17,r9
          Data8_1 |= ((DataTemp >> 1) & 0x01);
    9868:	1022d07a 	srli	r17,r2,1
    986c:	4211883a 	add	r8,r8,r8
          Data8_1 <<= 1;
          Data8_2 <<= 1;
          Data8_3 <<= 1; 
          
          DataTemp = SD_TEST_DAT;
          Data8   |= (DataTemp & 0x0F);
    9870:	5014913a 	slli	r10,r10,4
          Data8_0 |= (DataTemp & 0x01);
          Data8_1 |= ((DataTemp >> 1) & 0x01);
    9874:	8c40004c 	andi	r17,r17,1
    9878:	8a10b03a 	or	r8,r17,r8
          Data8_2 |= ((DataTemp >> 2) & 0x01);
    987c:	1022d0ba 	srli	r17,r2,2
          Data8_3 |= ((DataTemp >> 3) & 0x01);
    9880:	1004d0fa 	srli	r2,r2,3
          Data8_1 <<= 1;
          Data8_2 <<= 1;
          Data8_3 <<= 1; 
          
          DataTemp = SD_TEST_DAT;
          Data8   |= (DataTemp & 0x0F);
    9884:	5a96b03a 	or	r11,r11,r10
          Data8_0 |= (DataTemp & 0x01);
          Data8_1 |= ((DataTemp >> 1) & 0x01);
          Data8_2 |= ((DataTemp >> 2) & 0x01);
    9888:	8c40004c 	andi	r17,r17,1
    988c:	39cf883a 	add	r7,r7,r7
          Data8_3 |= ((DataTemp >> 3) & 0x01);
    9890:	1080004c 	andi	r2,r2,1
    9894:	294b883a 	add	r5,r5,r5
          Data8_1 <<= 1;
          Data8_2 <<= 1;
          Data8_3 <<= 1; 
          
          DataTemp = SD_TEST_DAT;
          Data8   |= (DataTemp & 0x0F);
    9898:	5815883a 	mov	r10,r11
          Data8_0 |= (DataTemp & 0x01);
          Data8_1 |= ((DataTemp >> 1) & 0x01);
          Data8_2 |= ((DataTemp >> 2) & 0x01);
    989c:	89ceb03a 	or	r7,r17,r7
          Data8_3 |= ((DataTemp >> 3) & 0x01);
    98a0:	114ab03a 	or	r5,r2,r5
          
          k++;
          if(k == 2)
    98a4:	7c801c1e 	bne	r15,r18,9918 <SDHAL_ReadData+0x164>
          {
            szBuf[n++] = Data8;
    98a8:	2345883a 	add	r2,r4,r13
    98ac:	12c00005 	stb	r11,0(r2)
    98b0:	6b400044 	addi	r13,r13,1
            Data8 = 0;
    98b4:	0015883a 	mov	r10,zero
            k = 0;
    98b8:	001f883a 	mov	r15,zero
    98bc:	73bfffc4 	addi	r14,r14,-1
        Data8_0 = 0;
        Data8_1 = 0;
        Data8_2 = 0;
        Data8_3 = 0;
        
        for(j=0;j<8;j++)
    98c0:	703fe11e 	bne	r14,zero,9848 <_gp+0xffff367c>
            szBuf[n++] = Data8;
            Data8 = 0;
            k = 0;
          }
        } 
        szBuf_0[i] = Data8_0;
    98c4:	da806004 	addi	r10,sp,384
    98c8:	50c5883a 	add	r2,r10,r3
    98cc:	12400005 	stb	r9,0(r2)
        szBuf_1[i] = Data8_1;
    98d0:	da404004 	addi	r9,sp,256
    98d4:	48c5883a 	add	r2,r9,r3
        szBuf_2[i] = Data8_2;
    98d8:	da802004 	addi	r10,sp,128
            Data8 = 0;
            k = 0;
          }
        } 
        szBuf_0[i] = Data8_0;
        szBuf_1[i] = Data8_1;
    98dc:	12000005 	stb	r8,0(r2)
        szBuf_2[i] = Data8_2;
    98e0:	50c5883a 	add	r2,r10,r3
    98e4:	11c00005 	stb	r7,0(r2)
        szBuf_3[i] = Data8_3;
    98e8:	d8c5883a 	add	r2,sp,r3
    98ec:	11400005 	stb	r5,0(r2)
    }     
    
    // read data (512byte = 1 block)
    
#ifdef SD_4BIT_MODE
     for(i=0;i<nBufLen/4;i++)
    98f0:	18c00044 	addi	r3,r3,1
    98f4:	1c000a0e 	bge	r3,r16,9920 <SDHAL_ReadData+0x16c>
    98f8:	03800204 	movi	r14,8
    98fc:	000b883a 	mov	r5,zero
    9900:	000f883a 	mov	r7,zero
    9904:	0011883a 	mov	r8,zero
    9908:	0013883a 	mov	r9,zero
    990c:	0015883a 	mov	r10,zero
    9910:	001f883a 	mov	r15,zero
    9914:	003fcc06 	br	9848 <_gp+0xffff367c>
    9918:	03c00044 	movi	r15,1
    991c:	003fe706 	br	98bc <_gp+0xffff36f0>
    9920:	00c00404 	movi	r3,16
    9924:	0023883a 	mov	r17,zero
    9928:	0025883a 	mov	r18,zero
    992c:	0027883a 	mov	r19,zero
    9930:	0029883a 	mov	r20,zero
    DataCrc16_2 = 0;
    DataCrc16_3 = 0;
    for(i=0;i<16;i++)
    {
        SD_CLK_LOW;
        SD_CLK_HIGH;
    9934:	02400044 	movi	r9,1
    DataCrc16_1 = 0;
    DataCrc16_2 = 0;
    DataCrc16_3 = 0;
    for(i=0;i<16;i++)
    {
        SD_CLK_LOW;
    9938:	30000035 	stwio	zero,0(r6)
        SD_CLK_HIGH;
    993c:	32400035 	stwio	r9,0(r6)
        
        DataCrc16_0 <<= 1;
    9940:	a511883a 	add	r8,r20,r20
        DataCrc16_1 <<= 1;
    9944:	9ccf883a 	add	r7,r19,r19
        DataCrc16_2 <<= 1;
    9948:	948b883a 	add	r5,r18,r18
        DataCrc16_3 <<= 1;
    994c:	8c49883a 	add	r4,r17,r17
    for(i=0;i<16;i++)
    {
        SD_CLK_LOW;
        SD_CLK_HIGH;
        
        DataCrc16_0 <<= 1;
    9950:	4029883a 	mov	r20,r8
        DataCrc16_1 <<= 1;
    9954:	3827883a 	mov	r19,r7
        DataCrc16_2 <<= 1;
    9958:	2825883a 	mov	r18,r5
        DataCrc16_3 <<= 1;
    995c:	2023883a 	mov	r17,r4
        
        DataTemp = SD_TEST_DAT;
    9960:	60800037 	ldwio	r2,0(r12)
        
        if (DataTemp & 0x01)
    9964:	1280004c 	andi	r10,r2,1
    9968:	50000126 	beq	r10,zero,9970 <SDHAL_ReadData+0x1bc>
            DataCrc16_0 |= 0x01;
    996c:	45000054 	ori	r20,r8,1
         if(DataTemp & 0x02)
    9970:	1200008c 	andi	r8,r2,2
    9974:	40000126 	beq	r8,zero,997c <SDHAL_ReadData+0x1c8>
            DataCrc16_1 |= 0x01;
    9978:	3cc00054 	ori	r19,r7,1
         if(DataTemp & 0x04)
    997c:	11c0010c 	andi	r7,r2,4
    9980:	38000126 	beq	r7,zero,9988 <SDHAL_ReadData+0x1d4>
            DataCrc16_2 |= 0x01;
    9984:	2c800054 	ori	r18,r5,1
         if(DataTemp & 0x08)
    9988:	1080020c 	andi	r2,r2,8
    998c:	10000126 	beq	r2,zero,9994 <SDHAL_ReadData+0x1e0>
            DataCrc16_3 |= 0x01;
    9990:	24400054 	ori	r17,r4,1
    9994:	18ffffc4 	addi	r3,r3,-1
    // Not implement yet
    DataCrc16_0 = 0;
    DataCrc16_1 = 0;
    DataCrc16_2 = 0;
    DataCrc16_3 = 0;
    for(i=0;i<16;i++)
    9998:	183fe71e 	bne	r3,zero,9938 <_gp+0xffff376c>
         if(DataTemp & 0x08)
            DataCrc16_3 |= 0x01;
    }
    
    // check end bit (value 'one' is expected
    SD_CLK_LOW;
    999c:	30000035 	stwio	zero,0(r6)
    SD_CLK_HIGH;
    99a0:	00800044 	movi	r2,1
    99a4:	30800035 	stwio	r2,0(r6)
    if ((SD_TEST_DAT & 0x0F) != 0x0F)
    99a8:	65400037 	ldwio	r21,0(r12)
        bSuccess = FALSE;
     
    // to provide8 (eight) clock cycles for the card to complete the operation before shutting down the clock 
    SDHAL_DummyClock(8);     
    99ac:	01000204 	movi	r4,8
    99b0:	00096ac0 	call	96ac <SDHAL_DummyClock>
     
    // check crc    
    if (bSuccess){
    99b4:	ad4003cc 	andi	r21,r21,15
    99b8:	008003c4 	movi	r2,15
    99bc:	a880191e 	bne	r21,r2,9a24 <SDHAL_ReadData+0x270>
        MyCrc16_0 = crc16(szBuf_0, nBufLen/4);
    99c0:	800b883a 	mov	r5,r16
    99c4:	d9006004 	addi	r4,sp,384
    99c8:	000941c0 	call	941c <crc16>
        if (MyCrc16_0 != DataCrc16_0)
    99cc:	a53fffcc 	andi	r20,r20,65535
    99d0:	10bfffcc 	andi	r2,r2,65535
    99d4:	a080131e 	bne	r20,r2,9a24 <SDHAL_ReadData+0x270>
            bSuccess = FALSE;
    }    
    if (bSuccess){
        MyCrc16_1 = crc16(szBuf_1, nBufLen/4);
    99d8:	800b883a 	mov	r5,r16
    99dc:	d9004004 	addi	r4,sp,256
    99e0:	000941c0 	call	941c <crc16>
        if (MyCrc16_1 != DataCrc16_1)
    99e4:	9cffffcc 	andi	r19,r19,65535
    99e8:	10bfffcc 	andi	r2,r2,65535
    99ec:	98800d1e 	bne	r19,r2,9a24 <SDHAL_ReadData+0x270>
            bSuccess = FALSE;
    }   
    if (bSuccess){
        MyCrc16_2 = crc16(szBuf_2, nBufLen/4);
    99f0:	800b883a 	mov	r5,r16
    99f4:	d9002004 	addi	r4,sp,128
    99f8:	000941c0 	call	941c <crc16>
        if (MyCrc16_2 != DataCrc16_2)
    99fc:	94bfffcc 	andi	r18,r18,65535
    9a00:	10bfffcc 	andi	r2,r2,65535
    9a04:	9080071e 	bne	r18,r2,9a24 <SDHAL_ReadData+0x270>
            bSuccess = FALSE;
    } 
    if (bSuccess){
        MyCrc16_3 = crc16(szBuf_3, nBufLen/4);
    9a08:	800b883a 	mov	r5,r16
    9a0c:	d809883a 	mov	r4,sp
    9a10:	000941c0 	call	941c <crc16>
#else      
      if((SD_TEST_DAT & 0x01) == 0x00) // check start bits (zero is expected)
#endif      
        break;
      if (nTry++ > nMaxTry)
        return FALSE;        
    9a14:	8c7fffcc 	andi	r17,r17,65535
    9a18:	10bfffcc 	andi	r2,r2,65535
    9a1c:	8885003a 	cmpeq	r2,r17,r2
    9a20:	00000106 	br	9a28 <SDHAL_ReadData+0x274>
    9a24:	0005883a 	mov	r2,zero
    }            
    
#endif

    return bSuccess;
}
    9a28:	dfc08617 	ldw	ra,536(sp)
    9a2c:	dd408517 	ldw	r21,532(sp)
    9a30:	dd008417 	ldw	r20,528(sp)
    9a34:	dcc08317 	ldw	r19,524(sp)
    9a38:	dc808217 	ldw	r18,520(sp)
    9a3c:	dc408117 	ldw	r17,516(sp)
    9a40:	dc008017 	ldw	r16,512(sp)
    9a44:	dec08704 	addi	sp,sp,540
    9a48:	f800283a 	ret

00009a4c <SDHAL_WriteData>:

bool SDHAL_WriteData(alt_u8 szDataWrite[], int nDataLen){
    9a4c:	defffd04 	addi	sp,sp,-12
    9a50:	dc400115 	stw	r17,4(sp)
    9a54:	dc000015 	stw	r16,0(sp)
    9a58:	2823883a 	mov	r17,r5
    9a5c:	dfc00215 	stw	ra,8(sp)
    9a60:	2021883a 	mov	r16,r4
  //  const int nMaxTry = 5000; 
    int i, j;   
    alt_u8 Data8;
    alt_u16 DataCrc16;
    
    DataCrc16 = crc16(szDataWrite, nDataLen);
    9a64:	000941c0 	call	941c <crc16>
        break;
      if (nTry++ > nMaxTry)
        return FALSE;        
    } */    
    
    SD_DAT_OUT;
    9a68:	01400074 	movhi	r5,1
    9a6c:	00800044 	movi	r2,1
    9a70:	29440504 	addi	r5,r5,4116
    9a74:	28800035 	stwio	r2,0(r5)
    // start bits (zero value)
    SD_CLK_LOW;
    9a78:	00c00074 	movhi	r3,1
    9a7c:	18c40c04 	addi	r3,r3,4144
    9a80:	18000035 	stwio	zero,0(r3)
    SD_DAT_WRITE(0x00);  
    9a84:	01000074 	movhi	r4,1
    9a88:	21040404 	addi	r4,r4,4112
    9a8c:	20000035 	stwio	zero,0(r4)
    SD_CLK_HIGH;
    9a90:	18800035 	stwio	r2,0(r3)
    
    // write data (512byte = 1 block)
    for(i=0;i<nDataLen;i++)
    9a94:	800d883a 	mov	r6,r16
    9a98:	340fc83a 	sub	r7,r6,r16
    9a9c:	3c400c0e 	bge	r7,r17,9ad0 <SDHAL_WriteData+0x84>
    {
      Data8 = szDataWrite[i];
    9aa0:	31c00003 	ldbu	r7,0(r6)
#ifdef SD_4BIT_MODE
      for(j=0;j<2;j++)
      {
        SD_CLK_LOW;
    9aa4:	18000035 	stwio	zero,0(r3)
        //
        SD_DAT_WRITE((Data8 >> 4) & 0x0F);
    9aa8:	3a003fcc 	andi	r8,r7,255
    9aac:	4010d13a 	srli	r8,r8,4
    9ab0:	22000035 	stwio	r8,0(r4)
        //            
        SD_CLK_HIGH;
    9ab4:	18800035 	stwio	r2,0(r3)
    {
      Data8 = szDataWrite[i];
#ifdef SD_4BIT_MODE
      for(j=0;j<2;j++)
      {
        SD_CLK_LOW;
    9ab8:	18000035 	stwio	zero,0(r3)
        //
        SD_DAT_WRITE((Data8 >> 4) & 0x0F);
    9abc:	39c003cc 	andi	r7,r7,15
    9ac0:	21c00035 	stwio	r7,0(r4)
        //            
        SD_CLK_HIGH;
    9ac4:	18800035 	stwio	r2,0(r3)
    9ac8:	31800044 	addi	r6,r6,1
    9acc:	003ff206 	br	9a98 <_gp+0xffff38cc>

    
#endif    

    // stop bits (value 'one')
    SD_CLK_LOW;
    9ad0:	18000035 	stwio	zero,0(r3)
#ifdef SD_4BIT_MODE
    SD_DAT_WRITE(0x0F);
    9ad4:	008003c4 	movi	r2,15
    9ad8:	20800035 	stwio	r2,0(r4)
#else    
    SD_DAT_HIGH;
#endif     
    SD_CLK_HIGH;
    9adc:	00800044 	movi	r2,1
    9ae0:	18800035 	stwio	r2,0(r3)
    
    //===== check busy bits (data0 only)
    SD_DAT_IN;
    9ae4:	28000035 	stwio	zero,0(r5)
    9ae8:	01400804 	movi	r5,32
bool bWriteSuccess = FALSE;    
for(i=0;i<32 && !bWriteSuccess;i++){        
    SD_CLK_LOW;
    9aec:	18000035 	stwio	zero,0(r3)
    SD_CLK_HIGH;
    9af0:	18800035 	stwio	r2,0(r3)
    if ((SD_TEST_DAT & 0x01) == 0x01) // (DAT0==LOW: busy indicate
    9af4:	24000037 	ldwio	r16,0(r4)
    9af8:	297fffc4 	addi	r5,r5,-1
    9afc:	8400004c 	andi	r16,r16,1
    SD_CLK_HIGH;
    
    //===== check busy bits (data0 only)
    SD_DAT_IN;
bool bWriteSuccess = FALSE;    
for(i=0;i<32 && !bWriteSuccess;i++){        
    9b00:	28000226 	beq	r5,zero,9b0c <SDHAL_WriteData+0xc0>
    9b04:	803ff926 	beq	r16,zero,9aec <_gp+0xffff3920>

    return bSuccess;
}

bool SDHAL_WriteData(alt_u8 szDataWrite[], int nDataLen){
    bool bSuccess = TRUE;
    9b08:	04000044 	movi	r16,1
}
    if (!bWriteSuccess)
        bSuccess = FALSE;
                
    // to provide8 (eight) clock cycles for the card to complete the operation before shutting down the clock 
    SDHAL_DummyClock(8);     
    9b0c:	01000204 	movi	r4,8
    9b10:	00096ac0 	call	96ac <SDHAL_DummyClock>
        SD_CLK_HIGH;
    }*/
    
    return bSuccess;
    
}
    9b14:	8005883a 	mov	r2,r16
    9b18:	dfc00217 	ldw	ra,8(sp)
    9b1c:	dc400117 	ldw	r17,4(sp)
    9b20:	dc000017 	ldw	r16,0(sp)
    9b24:	dec00304 	addi	sp,sp,12
    9b28:	f800283a 	ret

00009b2c <SDLIB_Init>:
static SD_INFO gSdInfo;


//-------------------------------------------------------------------------
bool SDLIB_Init(void)
{
    9b2c:	defff604 	addi	sp,sp,-40
    9b30:	dc000415 	stw	r16,16(sp)
    const int nTimeout = alt_ticks_per_second();
    alt_u32 TimeStart;

    
   // alt_u8 x,y;
    memset(&gSdInfo, 0, sizeof(gSdInfo));
    9b34:	04000074 	movhi	r16,1
    9b38:	84395a04 	addi	r16,r16,-6808
    9b3c:	000b883a 	mov	r5,zero
    9b40:	01800e04 	movi	r6,56
    9b44:	8009883a 	mov	r4,r16
static SD_INFO gSdInfo;


//-------------------------------------------------------------------------
bool SDLIB_Init(void)
{
    9b48:	dfc00915 	stw	ra,36(sp)
    9b4c:	dc800615 	stw	r18,24(sp)
    9b50:	dc400515 	stw	r17,20(sp)
    9b54:	dd000815 	stw	r20,32(sp)
    9b58:	dcc00715 	stw	r19,28(sp)
 * Obtain the system clock rate in ticks/s. 
 */

static ALT_INLINE alt_u32 ALT_ALWAYS_INLINE alt_ticks_per_second (void)
{
  return _alt_tick_rate;
    9b5c:	d4a0e617 	ldw	r18,-31848(gp)
    const int nTimeout = alt_ticks_per_second();
    alt_u32 TimeStart;

    
   // alt_u8 x,y;
    memset(&gSdInfo, 0, sizeof(gSdInfo));
    9b60:	000c1700 	call	c170 <memset>
    gSdInfo.bSupport4Bits = SD_IsSupport4Bits();
    9b64:	0009dcc0 	call	9dcc <SD_IsSupport4Bits>

    SDCARD_DEBUG(("--- Power On, Card Identification Mode, Idle State\r\n"));
    SDCARD_DEBUG(("sd %d-bit mode\r\n", gSdInfo.bSupport4Bits?4:1));
  
    usleep(74*10);
    9b68:	0100b904 	movi	r4,740
    alt_u32 TimeStart;

    
   // alt_u8 x,y;
    memset(&gSdInfo, 0, sizeof(gSdInfo));
    gSdInfo.bSupport4Bits = SD_IsSupport4Bits();
    9b6c:	80800015 	stw	r2,0(r16)

    SDCARD_DEBUG(("--- Power On, Card Identification Mode, Idle State\r\n"));
    SDCARD_DEBUG(("sd %d-bit mode\r\n", gSdInfo.bSupport4Bits?4:1));
  
    usleep(74*10);
    9b70:	000d6a80 	call	d6a8 <usleep>
    
    SD_Init();
    9b74:	0009dc80 	call	9dc8 <SD_Init>

    
    //========================== CMD0 (None Response) ========
    // Reset all cards to idle state
    SD_CMD0();
    9b78:	0009dd00 	call	9dd0 <SD_CMD0>
    usleep(100*1000);
    9b7c:	010000b4 	movhi	r4,2
    9b80:	2121a804 	addi	r4,r4,-31072
    9b84:	000d6a80 	call	d6a8 <usleep>
    
    //========================== CMD8 (Response R7) ==========
    //Sends SD Memory Card interface condition (Added in SDHC 2.0)
    if (SD_CMD8(SD_VHS_2V7_3V6, CMD8_DEFAULT_TEST_PATTERN)){
    9b88:	04400044 	movi	r17,1
    9b8c:	01402a84 	movi	r5,170
    9b90:	8809883a 	mov	r4,r17
    9b94:	0009e340 	call	9e34 <SD_CMD8>
    9b98:	10000626 	beq	r2,zero,9bb4 <SDLIB_Init+0x88>
        // OCR: Operation Condistions Register
        //gSdInfo.HostOCR32 = 0x01 << 30; //argument=0x40FF8000; // support HC
        gSdInfo.HostOCR32 = 0x40FF8000;
    9b9c:	00904034 	movhi	r2,16640
    9ba0:	10a00004 	addi	r2,r2,-32768
    9ba4:	80800315 	stw	r2,12(r16)
        gSdInfo.bVer2 = TRUE;
    9ba8:	84400115 	stw	r17,4(r16)
        gSdInfo.bSDHC = TRUE;
    9bac:	84400215 	stw	r17,8(r16)
    9bb0:	00000606 	br	9bcc <SDLIB_Init+0xa0>
        SDCARD_DEBUG((" 2.0 \r\n"));
    }else{
        gSdInfo.HostOCR32 = 0x00040000;   
    9bb4:	00800134 	movhi	r2,4
    9bb8:	80800315 	stw	r2,12(r16)
        SDCARD_TRACE(("CMD8 not supported\r\n"));
        
        // Reset cards to idle state
        SD_CMD0();
    9bbc:	0009dd00 	call	9dd0 <SD_CMD0>
        usleep(100*1000);        
    9bc0:	010000b4 	movhi	r4,2
    9bc4:	2121a804 	addi	r4,r4,-31072
    9bc8:	000d6a80 	call	d6a8 <usleep>
 * alt_nticks() returns the elapsed number of system clock ticks since reset.
 */

static ALT_INLINE alt_u32 ALT_ALWAYS_INLINE alt_nticks (void)
{
  return _alt_nticks;
    9bcc:	d4e0e517 	ldw	r19,-31852(gp)
    }
    //========================== ACMD41 (CMD55) ==============
    TimeStart = alt_nticks();
    while(!bSuccess && !bTimeout){
        if (!SD_CMD55(gSdInfo.RCA16, SD_STATE_IDLE)){  // execute cmd55 before execute and ACMD
    9bd0:	05000074 	movhi	r20,1
    9bd4:	a5395a04 	addi	r20,r20,-6808
    9bd8:	8100050b 	ldhu	r4,20(r16)
    9bdc:	04400074 	movhi	r17,1
    9be0:	000b883a 	mov	r5,zero
    9be4:	8c795a04 	addi	r17,r17,-6808
    9be8:	000a4140 	call	a414 <SD_CMD55>
    9bec:	1000021e 	bne	r2,zero,9bf8 <SDLIB_Init+0xcc>
            SDCARD_ERROR(("CMD55 NG\r\n"));
            return FALSE;
    9bf0:	0005883a 	mov	r2,zero
    9bf4:	00004006 	br	9cf8 <SDLIB_Init+0x1cc>
        }else{    
            bSuccess = SD_ACMD41(gSdInfo.HostOCR32, &gSdInfo.OCR32);
    9bf8:	a1000317 	ldw	r4,12(r20)
    9bfc:	89400404 	addi	r5,r17,16
    9c00:	0009f240 	call	9f24 <SD_ACMD41>
            if (bSuccess && gSdInfo.bSDHC && ((gSdInfo.OCR32 & 0x40000000) == 0x00)){
    9c04:	10003626 	beq	r2,zero,9ce0 <SDLIB_Init+0x1b4>
    9c08:	88800217 	ldw	r2,8(r17)
    9c0c:	10000426 	beq	r2,zero,9c20 <SDLIB_Init+0xf4>
    9c10:	88800417 	ldw	r2,16(r17)
    9c14:	1090002c 	andhi	r2,r2,16384
    9c18:	1000011e 	bne	r2,zero,9c20 <SDLIB_Init+0xf4>
                gSdInfo.bSDHC = FALSE;
    9c1c:	88000215 	stw	zero,8(r17)
    }
   
    //========================== CMD2 ========================    
    // issue cmd2 & wait response 
    // ALL_SEND_CID (CMD2): Asks any card to send the CID numbers on the CMD line
    if (!SD_CMD2(gSdInfo.szCID, sizeof(gSdInfo.szCID))){
    9c20:	01000074 	movhi	r4,1
    9c24:	01400444 	movi	r5,17
    9c28:	21395f84 	addi	r4,r4,-6786
    9c2c:	000a0040 	call	a004 <SD_CMD2>
    9c30:	103fef26 	beq	r2,zero,9bf0 <_gp+0xffff3a24>
    SDCARD_TRACE(("--- Power On, Card Identification Mode, Identification State\r\n"));

    //========================== CMD3 ========================        
    // issue cmd3 & wait response, finally get RCA
    // CMD3 (SEND_RELATIVE_ADDR): Ask the card to publish a new relative address (RCA)
    if (!SD_CMD3(&gSdInfo.RCA16)){
    9c34:	01000074 	movhi	r4,1
    9c38:	21395f04 	addi	r4,r4,-6788
    9c3c:	000a10c0 	call	a10c <SD_CMD3>
    9c40:	103feb26 	beq	r2,zero,9bf0 <_gp+0xffff3a24>
    //### Standby-by state in Data-transfer mode
    
    //========================== CMD9 ========================
    SDCARD_DEBUG(("--- enter data-transfer mode, Standby state\r\n"));
    // issue cmd9 with given RCA & wait response 
    if (!SD_CMD9(gSdInfo.RCA16, gSdInfo.szCSD, sizeof(gSdInfo.szCSD))){
    9c44:	04400074 	movhi	r17,1
    9c48:	8100050b 	ldhu	r4,20(r16)
    9c4c:	8c795a04 	addi	r17,r17,-6808
    9c50:	01800444 	movi	r6,17
    9c54:	894009c4 	addi	r5,r17,39
    9c58:	000a20c0 	call	a20c <SD_CMD9>
    9c5c:	103fe426 	beq	r2,zero,9bf0 <_gp+0xffff3a24>
        return FALSE;
    }
    
    //========================== CMD10 ========================
    // richard add  (query card identification)  
    if (!SD_CMD10(gSdInfo.RCA16, szThisCID, sizeof(szThisCID))){
    9c60:	8900050b 	ldhu	r4,20(r17)
    9c64:	01800404 	movi	r6,16
    9c68:	d80b883a 	mov	r5,sp
    9c6c:	000a2fc0 	call	a2fc <SD_CMD10>
    9c70:	103fdf26 	beq	r2,zero,9bf0 <_gp+0xffff3a24>
    // issue cmd9 with given RCA & wait response
    
    //========================== CMD7 ========================
    // richard: issue cmd7 to enter transfer state
    // cmd7: toggle between Standy-by and Trasfer State
    if (!SD_CMD7(gSdInfo.RCA16)){
    9c74:	8900050b 	ldhu	r4,20(r17)
    9c78:	000a5000 	call	a500 <SD_CMD7>
    9c7c:	103fdc26 	beq	r2,zero,9bf0 <_gp+0xffff3a24>
    //### Transfer state in Data-transfer mode     
    SDCARD_DEBUG(("--- enter data-transfer mode, Transfer state\r\n"));
       
    //========================== CMD16 ========================   
    // issue cmd16 (select a block length) & wait response
    if (!SD_CMD16(512)){  // 512 bytes
    9c80:	01008004 	movi	r4,512
    9c84:	000a5d80 	call	a5d8 <SD_CMD16>
    9c88:	103fd926 	beq	r2,zero,9bf0 <_gp+0xffff3a24>
        SDCARD_DEBUG(("CMD16 fail\r\n"));
        return FALSE;
    }       
    
    if (gSdInfo.bSupport4Bits){ 
    9c8c:	88800017 	ldw	r2,0(r17)
    9c90:	10001126 	beq	r2,zero,9cd8 <SDLIB_Init+0x1ac>
        // richard add: set bus width
        // Note. This command is valid only in "transfer state", i.e. after CMD7 is issued

        if (!SD_CMD55(gSdInfo.RCA16, SD_STATE_TRAN)){  // execute cmd55 before execute and ACMD, RCA = 0
    9c94:	8900050b 	ldhu	r4,20(r17)
    9c98:	01400104 	movi	r5,4
    9c9c:	000a4140 	call	a414 <SD_CMD55>
    9ca0:	103fd326 	beq	r2,zero,9bf0 <_gp+0xffff3a24>
            SDCARD_DEBUG(("CMD55 NG\r\n"));
            return FALSE;
        }       
    
        SDCARD_DEBUG(("ACMD6[SET_BUS_WIDTH], 4-bit\r\n"));
        if (!SD_ACMD6(TRUE, SD_STATE_TRAN)){  // 4-bit mode
    9ca4:	01400104 	movi	r5,4
    9ca8:	01000044 	movi	r4,1
    9cac:	000a6b80 	call	a6b8 <SD_ACMD6>
    9cb0:	103fcf26 	beq	r2,zero,9bf0 <_gp+0xffff3a24>
            return FALSE;
        }         
    
    
        //
        if (!SD_CMD55(gSdInfo.RCA16, SD_STATE_TRAN)){  // execute cmd55 before execute and ACMD, RCA = 0
    9cb4:	8900050b 	ldhu	r4,20(r17)
    9cb8:	01400104 	movi	r5,4
    9cbc:	000a4140 	call	a414 <SD_CMD55>
    9cc0:	103fcb26 	beq	r2,zero,9bf0 <_gp+0xffff3a24>
            return FALSE;
        }    
    
       
        SDCARD_DEBUG(("ACMD42[SET_CLR_CARD_DETECT], connect card\r\n"));
        if (!SD_ACMD42(TRUE, SD_STATE_TRAN)){  // connect card
    9cc4:	01400104 	movi	r5,4
    9cc8:	01000044 	movi	r4,1
    9ccc:	000a7b00 	call	a7b0 <SD_ACMD42>
    //========================== ACMD41 (CMD55) ==============
    TimeStart = alt_nticks();
    while(!bSuccess && !bTimeout){
        if (!SD_CMD55(gSdInfo.RCA16, SD_STATE_IDLE)){  // execute cmd55 before execute and ACMD
            SDCARD_ERROR(("CMD55 NG\r\n"));
            return FALSE;
    9cd0:	1004c03a 	cmpne	r2,r2,zero
    9cd4:	00000806 	br	9cf8 <SDLIB_Init+0x1cc>
        printf("!!!!!write ng\r\n");
#endif
     
    SDCARD_DEBUG(("SDLIB_Init success\r\n"));
    
    return TRUE;
    9cd8:	00800044 	movi	r2,1
    9cdc:	00000606 	br	9cf8 <SDLIB_Init+0x1cc>
    9ce0:	d0a0e517 	ldw	r2,-31852(gp)
            if (bSuccess && gSdInfo.bSDHC && ((gSdInfo.OCR32 & 0x40000000) == 0x00)){
                gSdInfo.bSDHC = FALSE;
            }    
            // check timeout
            if (!bSuccess){
                if ((alt_nticks() - TimeStart) > nTimeout){
    9ce4:	14c5c83a 	sub	r2,r2,r19
    9ce8:	90bfc136 	bltu	r18,r2,9bf0 <_gp+0xffff3a24>
                    SDCARD_ERROR(("ACMD41[SD_APP_OP_COND] fail\r\n"));
                    bTimeout = TRUE;
                }else{
                    usleep(10*1000);
    9cec:	0109c404 	movi	r4,10000
    9cf0:	000d6a80 	call	d6a8 <usleep>
    9cf4:	003fb806 	br	9bd8 <_gp+0xffff3a0c>
#endif
     
    SDCARD_DEBUG(("SDLIB_Init success\r\n"));
    
    return TRUE;
}
    9cf8:	dfc00917 	ldw	ra,36(sp)
    9cfc:	dd000817 	ldw	r20,32(sp)
    9d00:	dcc00717 	ldw	r19,28(sp)
    9d04:	dc800617 	ldw	r18,24(sp)
    9d08:	dc400517 	ldw	r17,20(sp)
    9d0c:	dc000417 	ldw	r16,16(sp)
    9d10:	dec00a04 	addi	sp,sp,40
    9d14:	f800283a 	ret

00009d18 <SDLIB_ReadBlock512>:
    // buffer size muse be 512 byte
    bool bSuccess;  
    alt_u32  addr;
  
    // issue cmd17 for 'Single Block Read'. parameter: block address
    if (gSdInfo.bSDHC)
    9d18:	00800074 	movhi	r2,1
    9d1c:	10b95a04 	addi	r2,r2,-6808
    9d20:	10800217 	ldw	r2,8(r2)
    return TRUE;
}


bool SDLIB_ReadBlock512(alt_u32 block_number, alt_u8 *buff)
{
    9d24:	defffe04 	addi	sp,sp,-8
    9d28:	dc000015 	stw	r16,0(sp)
    9d2c:	dfc00115 	stw	ra,4(sp)
    9d30:	2821883a 	mov	r16,r5
    // buffer size muse be 512 byte
    bool bSuccess;  
    alt_u32  addr;
  
    // issue cmd17 for 'Single Block Read'. parameter: block address
    if (gSdInfo.bSDHC)
    9d34:	1000011e 	bne	r2,zero,9d3c <SDLIB_ReadBlock512+0x24>
        addr = block_number; // note. for SDHC, argument for addr of CMD7 is block number
    else 
        addr = block_number * 512;
    9d38:	2008927a 	slli	r4,r4,9
    if (!SD_CMD17(addr, SD_STATE_TRAN)){  // 4-bit mode
    9d3c:	01400104 	movi	r5,4
    9d40:	000a89c0 	call	a89c <SD_CMD17>
    9d44:	10000626 	beq	r2,zero,9d60 <SDLIB_ReadBlock512+0x48>
        SDCARD_DEBUG(("CMD17 NG\r\n"));
        return FALSE;
    }
    //

    bSuccess = SD_ReadData(buff, 512);  // read 512 bytes
    9d48:	01408004 	movi	r5,512
    9d4c:	8009883a 	mov	r4,r16
    
    //
    return bSuccess;
}
    9d50:	dfc00117 	ldw	ra,4(sp)
    9d54:	dc000017 	ldw	r16,0(sp)
    9d58:	dec00204 	addi	sp,sp,8
        SDCARD_DEBUG(("CMD17 NG\r\n"));
        return FALSE;
    }
    //

    bSuccess = SD_ReadData(buff, 512);  // read 512 bytes
    9d5c:	000a3ec1 	jmpi	a3ec <SD_ReadData>
    
    //
    return bSuccess;
}
    9d60:	dfc00117 	ldw	ra,4(sp)
    9d64:	dc000017 	ldw	r16,0(sp)
    9d68:	dec00204 	addi	sp,sp,8
    9d6c:	f800283a 	ret

00009d70 <SDLIB_WriteBlock512>:
    // buffer size muse be 512 byte
    bool bSuccess;  
    alt_u32  addr;
  
    // issue cmd24 for 'Single Block write'. parameter: block address
    if (gSdInfo.bSDHC)
    9d70:	00800074 	movhi	r2,1
    9d74:	10b95a04 	addi	r2,r2,-6808
    9d78:	10800217 	ldw	r2,8(r2)
    //
    return bSuccess;
}

bool SDLIB_WriteBlock512(alt_u32 block_number, alt_u8 *szDataWrite)
{
    9d7c:	defffe04 	addi	sp,sp,-8
    9d80:	dc000015 	stw	r16,0(sp)
    9d84:	dfc00115 	stw	ra,4(sp)
    9d88:	2821883a 	mov	r16,r5
    // buffer size muse be 512 byte
    bool bSuccess;  
    alt_u32  addr;
  
    // issue cmd24 for 'Single Block write'. parameter: block address
    if (gSdInfo.bSDHC)
    9d8c:	1000011e 	bne	r2,zero,9d94 <SDLIB_WriteBlock512+0x24>
        addr = block_number; // note. for SDHC, argument for addr of CMD7 is block number
    else 
        addr = block_number * 512;
    9d90:	2008927a 	slli	r4,r4,9
    if (!SD_CMD24(addr, SD_STATE_TRAN)){ 
    9d94:	01400104 	movi	r5,4
    9d98:	000a97c0 	call	a97c <SD_CMD24>
    9d9c:	10000626 	beq	r2,zero,9db8 <SDLIB_WriteBlock512+0x48>
        SDCARD_DEBUG(("CMD24 NG\r\n"));
        return FALSE;
    }
    //

    bSuccess = SD_WriteData(szDataWrite, 512);  // Write 512 bytes
    9da0:	01408004 	movi	r5,512
    9da4:	8009883a 	mov	r4,r16
    
    //
    return bSuccess;
}
    9da8:	dfc00117 	ldw	ra,4(sp)
    9dac:	dc000017 	ldw	r16,0(sp)
    9db0:	dec00204 	addi	sp,sp,8
        SDCARD_DEBUG(("CMD24 NG\r\n"));
        return FALSE;
    }
    //

    bSuccess = SD_WriteData(szDataWrite, 512);  // Write 512 bytes
    9db4:	000a3f01 	jmpi	a3f0 <SD_WriteData>
    
    //
    return bSuccess;
}
    9db8:	dfc00117 	ldw	ra,4(sp)
    9dbc:	dc000017 	ldw	r16,0(sp)
    9dc0:	dec00204 	addi	sp,sp,8
    9dc4:	f800283a 	ret

00009dc8 <SD_Init>:
alt_u32 ArrayToU32(alt_u8 szData[]);

//============================================================

void SD_Init(void){
    SDHAL_Init();
    9dc8:	00095e81 	jmpi	95e8 <SDHAL_Init>

00009dcc <SD_IsSupport4Bits>:
}

bool SD_IsSupport4Bits(void){
    return SDHAL_IsSupport4Bits();
    9dcc:	00095e01 	jmpi	95e0 <SDHAL_IsSupport4Bits>

00009dd0 <SD_CMD0>:
}



void SD_CMD0(void){
    9dd0:	defffd04 	addi	sp,sp,-12
    alt_u8 szCmd[6]  = {0x40,0x00,0x00,0x00,0x00, 0x00}, crc;

    SDCARD_TRACE(("CMD0\r\n"));
    // build packet    
    szCmd[0] |= 0X00;
    crc = crc7(0, szCmd, 5);
    9dd4:	01800144 	movi	r6,5
    9dd8:	d80b883a 	mov	r5,sp
}



void SD_CMD0(void){
    alt_u8 szCmd[6]  = {0x40,0x00,0x00,0x00,0x00, 0x00}, crc;
    9ddc:	00801004 	movi	r2,64

    SDCARD_TRACE(("CMD0\r\n"));
    // build packet    
    szCmd[0] |= 0X00;
    crc = crc7(0, szCmd, 5);
    9de0:	0009883a 	mov	r4,zero
    return SDHAL_IsSupport4Bits();
}



void SD_CMD0(void){
    9de4:	dfc00215 	stw	ra,8(sp)
    alt_u8 szCmd[6]  = {0x40,0x00,0x00,0x00,0x00, 0x00}, crc;
    9de8:	d8800005 	stb	r2,0(sp)
    9dec:	d8000045 	stb	zero,1(sp)
    9df0:	d8000085 	stb	zero,2(sp)
    9df4:	d80000c5 	stb	zero,3(sp)
    9df8:	d8000105 	stb	zero,4(sp)
    9dfc:	d8000145 	stb	zero,5(sp)

    SDCARD_TRACE(("CMD0\r\n"));
    // build packet    
    szCmd[0] |= 0X00;
    crc = crc7(0, szCmd, 5);
    9e00:	00094880 	call	9488 <crc7>
    szCmd[5] = (crc << 1) | 0x01;
    9e04:	10803fcc 	andi	r2,r2,255
    9e08:	1085883a 	add	r2,r2,r2
    9e0c:	10800054 	ori	r2,r2,1
    
    // Tx 100 clock for power on sequence 
   // SDHAL_DummyClock(100);
    //
    
    SDHAL_SendCmd(szCmd, sizeof(szCmd));
    9e10:	01400184 	movi	r5,6
    9e14:	d809883a 	mov	r4,sp

    SDCARD_TRACE(("CMD0\r\n"));
    // build packet    
    szCmd[0] |= 0X00;
    crc = crc7(0, szCmd, 5);
    szCmd[5] = (crc << 1) | 0x01;
    9e18:	d8800145 	stb	r2,5(sp)
    
    // Tx 100 clock for power on sequence 
   // SDHAL_DummyClock(100);
    //
    
    SDHAL_SendCmd(szCmd, sizeof(szCmd));
    9e1c:	00096300 	call	9630 <SDHAL_SendCmd>
    
    // A command with no response. 8 clocks after the host command end bit.
    // !!!!!!!!!! Note. Remember to add dummy clock here
    SDHAL_DummyClock(8);
    9e20:	01000204 	movi	r4,8
    9e24:	00096ac0 	call	96ac <SDHAL_DummyClock>
    
}
    9e28:	dfc00217 	ldw	ra,8(sp)
    9e2c:	dec00304 	addi	sp,sp,12
    9e30:	f800283a 	ret

00009e34 <SD_CMD8>:


bool SD_CMD8(alt_u8 VolId, alt_u8 TestPattern){
    9e34:	defff904 	addi	sp,sp,-28
   // int x;
    alt_u8 szCmd[6]  = {0x40,0x00,0x00,0x00,0x00, 0x00}, crc;

    SDCARD_TRACE(("CMD8\r\n"));
    // build packet    
    szCmd[0] |= Cmd;
    9e38:	00801204 	movi	r2,72
    SDHAL_DummyClock(8);
    
}


bool SD_CMD8(alt_u8 VolId, alt_u8 TestPattern){
    9e3c:	dc400415 	stw	r17,16(sp)
    9e40:	dc000315 	stw	r16,12(sp)
   // int x;
    alt_u8 szCmd[6]  = {0x40,0x00,0x00,0x00,0x00, 0x00}, crc;

    SDCARD_TRACE(("CMD8\r\n"));
    // build packet    
    szCmd[0] |= Cmd;
    9e44:	d8800005 	stb	r2,0(sp)
    szCmd[3] |= (VolId & 0x0F);
    szCmd[4] = TestPattern;
    9e48:	d9400105 	stb	r5,4(sp)
    alt_u8 szCmd[6]  = {0x40,0x00,0x00,0x00,0x00, 0x00}, crc;

    SDCARD_TRACE(("CMD8\r\n"));
    // build packet    
    szCmd[0] |= Cmd;
    szCmd[3] |= (VolId & 0x0F);
    9e4c:	208003cc 	andi	r2,r4,15
    szCmd[4] = TestPattern;
    crc = crc7(0, szCmd, 5);
    9e50:	01800144 	movi	r6,5
    SDHAL_DummyClock(8);
    
}


bool SD_CMD8(alt_u8 VolId, alt_u8 TestPattern){
    9e54:	2023883a 	mov	r17,r4
    9e58:	2821883a 	mov	r16,r5
    SDCARD_TRACE(("CMD8\r\n"));
    // build packet    
    szCmd[0] |= Cmd;
    szCmd[3] |= (VolId & 0x0F);
    szCmd[4] = TestPattern;
    crc = crc7(0, szCmd, 5);
    9e5c:	0009883a 	mov	r4,zero
    9e60:	d80b883a 	mov	r5,sp
    SDHAL_DummyClock(8);
    
}


bool SD_CMD8(alt_u8 VolId, alt_u8 TestPattern){
    9e64:	dfc00615 	stw	ra,24(sp)
    9e68:	dc800515 	stw	r18,20(sp)
    bool bSuccess;
    alt_u8 szResponse[6];
    const alt_u8 Cmd = 8;
   // int x;
    alt_u8 szCmd[6]  = {0x40,0x00,0x00,0x00,0x00, 0x00}, crc;
    9e6c:	d8000045 	stb	zero,1(sp)
    9e70:	d8000085 	stb	zero,2(sp)
    9e74:	d8000145 	stb	zero,5(sp)

    SDCARD_TRACE(("CMD8\r\n"));
    // build packet    
    szCmd[0] |= Cmd;
    szCmd[3] |= (VolId & 0x0F);
    9e78:	d88000c5 	stb	r2,3(sp)
    szCmd[4] = TestPattern;
    crc = crc7(0, szCmd, 5);
    9e7c:	00094880 	call	9488 <crc7>
    szCmd[5] = (crc << 1) | 0x01;
    9e80:	10803fcc 	andi	r2,r2,255
    9e84:	1085883a 	add	r2,r2,r2
    9e88:	10800054 	ori	r2,r2,1
    
    SDHAL_SendCmd(szCmd, sizeof(szCmd));
    9e8c:	01400184 	movi	r5,6
    9e90:	d809883a 	mov	r4,sp
    // build packet    
    szCmd[0] |= Cmd;
    szCmd[3] |= (VolId & 0x0F);
    szCmd[4] = TestPattern;
    crc = crc7(0, szCmd, 5);
    szCmd[5] = (crc << 1) | 0x01;
    9e94:	d8800145 	stb	r2,5(sp)
    
    SDHAL_SendCmd(szCmd, sizeof(szCmd));
    9e98:	00096300 	call	9630 <SDHAL_SendCmd>
    
    bSuccess = SDHAL_GetResponse(szResponse, sizeof(szResponse));
    9e9c:	01400184 	movi	r5,6
    9ea0:	d949883a 	add	r4,sp,r5
    9ea4:	00096d40 	call	96d4 <SDHAL_GetResponse>
    
    // check response content
    if (bSuccess){
    9ea8:	10000426 	beq	r2,zero,9ebc <SD_CMD8+0x88>
        // check command
        if (bSuccess && szResponse[0] != Cmd){
    9eac:	d8c00183 	ldbu	r3,6(sp)
    9eb0:	1025883a 	mov	r18,r2
    9eb4:	00800204 	movi	r2,8
    9eb8:	18800226 	beq	r3,r2,9ec4 <SD_CMD8+0x90>
        }            
        
        // check end-bits
        if (bSuccess && ((szResponse[5] & 0x01) != 0x01)){
            SDCARD_DEBUG(("CMD%d Response: Invalid end-bits\r\n", Cmd));
            bSuccess = FALSE;
    9ebc:	0025883a 	mov	r18,zero
    9ec0:	00001106 	br	9f08 <SD_CMD8+0xd4>
            SDCARD_DEBUG(("CMD%d Response: Invalid command index\r\n", Cmd));
            bSuccess = FALSE;
        }
        
        // check voltage supplied        
        if (bSuccess && szResponse[3] != VolId){
    9ec4:	d8800243 	ldbu	r2,9(sp)
    9ec8:	8c403fcc 	andi	r17,r17,255
    9ecc:	88bffb1e 	bne	r17,r2,9ebc <_gp+0xffff3cf0>
            SDCARD_DEBUG(("CMD%d Response: Invalid Void Id\r\n", Cmd));
            bSuccess = FALSE;
        }        

        // check test pattern        
        if (bSuccess && szResponse[4] != TestPattern){
    9ed0:	d8800283 	ldbu	r2,10(sp)
    9ed4:	84003fcc 	andi	r16,r16,255
    9ed8:	80bff81e 	bne	r16,r2,9ebc <_gp+0xffff3cf0>
        }
        
        // check crc
        if (bSuccess){
            alt_u8 crc;
            crc = crc7(0, szResponse, 5);
    9edc:	0009883a 	mov	r4,zero
    9ee0:	01800144 	movi	r6,5
    9ee4:	d9400184 	addi	r5,sp,6
    9ee8:	00094880 	call	9488 <crc7>
            if (crc != (szResponse[5] >> 1)){
    9eec:	d8c002c3 	ldbu	r3,11(sp)
    9ef0:	10803fcc 	andi	r2,r2,255
    9ef4:	19003fcc 	andi	r4,r3,255
    9ef8:	2008d07a 	srli	r4,r4,1
    9efc:	113fef1e 	bne	r2,r4,9ebc <_gp+0xffff3cf0>
                bSuccess = FALSE;
            }
        }            
        
        // check end-bits
        if (bSuccess && ((szResponse[5] & 0x01) != 0x01)){
    9f00:	18c0004c 	andi	r3,r3,1
    9f04:	183fed26 	beq	r3,zero,9ebc <_gp+0xffff3cf0>
         
    }
    
    return bSuccess;
    
}
    9f08:	9005883a 	mov	r2,r18
    9f0c:	dfc00617 	ldw	ra,24(sp)
    9f10:	dc800517 	ldw	r18,20(sp)
    9f14:	dc400417 	ldw	r17,16(sp)
    9f18:	dc000317 	ldw	r16,12(sp)
    9f1c:	dec00704 	addi	sp,sp,28
    9f20:	f800283a 	ret

00009f24 <SD_ACMD41>:
    return bSuccess;
    
}

// Response: R3
bool SD_ACMD41(alt_u32 HostOCR32, alt_u32 *pOCR32){
    9f24:	defffb04 	addi	sp,sp,-20
    //alt_u8 szCmd[6]  = {0x40,0x00,0xff,0x80,0x00, 0x00}, crc;  // 2.7~3.6V
    alt_u8 szCmd[6]  = {0x40,0x00,0x00,0x00,0x00, 0x00}, crc;  
    
    SDCARD_TRACE(("ACMD41\r\n"));
    // build packet    
    szCmd[0] |= Cmd;
    9f28:	00801a44 	movi	r2,105
    9f2c:	d8800005 	stb	r2,0(sp)
    szCmd[1] |= (HostOCR32>> 24) & 0x40;
    9f30:	2004d63a 	srli	r2,r4,24
    return bSuccess;
    
}

// Response: R3
bool SD_ACMD41(alt_u32 HostOCR32, alt_u32 *pOCR32){
    9f34:	dc000315 	stw	r16,12(sp)
    // build packet    
    szCmd[0] |= Cmd;
    szCmd[1] |= (HostOCR32>> 24) & 0x40;
    szCmd[2] = (HostOCR32 >> 16) & 0xFF;
    szCmd[3] = (HostOCR32 >> 8) & 0xFF;
    szCmd[4] = HostOCR32 & 0xFF;
    9f38:	d9000105 	stb	r4,4(sp)
    alt_u8 szCmd[6]  = {0x40,0x00,0x00,0x00,0x00, 0x00}, crc;  
    
    SDCARD_TRACE(("ACMD41\r\n"));
    // build packet    
    szCmd[0] |= Cmd;
    szCmd[1] |= (HostOCR32>> 24) & 0x40;
    9f3c:	1080100c 	andi	r2,r2,64
    9f40:	d8800045 	stb	r2,1(sp)
    szCmd[2] = (HostOCR32 >> 16) & 0xFF;
    9f44:	2004d43a 	srli	r2,r4,16
    /*szCmd[0] = 0x69;
    szCmd[1] = 0x40;
    szCmd[2] = 0xFF;
    szCmd[3] = 0x80;
    szCmd[4] = 0x00;*/
    crc = crc7(0, szCmd, 5);
    9f48:	01800144 	movi	r6,5
    return bSuccess;
    
}

// Response: R3
bool SD_ACMD41(alt_u32 HostOCR32, alt_u32 *pOCR32){
    9f4c:	2821883a 	mov	r16,r5
    
    SDCARD_TRACE(("ACMD41\r\n"));
    // build packet    
    szCmd[0] |= Cmd;
    szCmd[1] |= (HostOCR32>> 24) & 0x40;
    szCmd[2] = (HostOCR32 >> 16) & 0xFF;
    9f50:	d8800085 	stb	r2,2(sp)
    szCmd[3] = (HostOCR32 >> 8) & 0xFF;
    9f54:	2004d23a 	srli	r2,r4,8
    /*szCmd[0] = 0x69;
    szCmd[1] = 0x40;
    szCmd[2] = 0xFF;
    szCmd[3] = 0x80;
    szCmd[4] = 0x00;*/
    crc = crc7(0, szCmd, 5);
    9f58:	d80b883a 	mov	r5,sp
    9f5c:	0009883a 	mov	r4,zero
    return bSuccess;
    
}

// Response: R3
bool SD_ACMD41(alt_u32 HostOCR32, alt_u32 *pOCR32){
    9f60:	dfc00415 	stw	ra,16(sp)
    
    alt_u8 szResponse[6];  // Response: R1, see section 4.9.4 (OCR Register)
    const alt_u8 Cmd = 41;
    //alt_u8 szCmd[6]  = {0x40,0x0f,0xf0,0x00,0x00, 0x00}, crc;
    //alt_u8 szCmd[6]  = {0x40,0x00,0xff,0x80,0x00, 0x00}, crc;  // 2.7~3.6V
    alt_u8 szCmd[6]  = {0x40,0x00,0x00,0x00,0x00, 0x00}, crc;  
    9f64:	d8000145 	stb	zero,5(sp)
    SDCARD_TRACE(("ACMD41\r\n"));
    // build packet    
    szCmd[0] |= Cmd;
    szCmd[1] |= (HostOCR32>> 24) & 0x40;
    szCmd[2] = (HostOCR32 >> 16) & 0xFF;
    szCmd[3] = (HostOCR32 >> 8) & 0xFF;
    9f68:	d88000c5 	stb	r2,3(sp)
    /*szCmd[0] = 0x69;
    szCmd[1] = 0x40;
    szCmd[2] = 0xFF;
    szCmd[3] = 0x80;
    szCmd[4] = 0x00;*/
    crc = crc7(0, szCmd, 5);
    9f6c:	00094880 	call	9488 <crc7>
    szCmd[5] = (crc << 1) | 0x01;
    9f70:	10803fcc 	andi	r2,r2,255
    9f74:	1085883a 	add	r2,r2,r2
    9f78:	10800054 	ori	r2,r2,1
    
    SDHAL_SendCmd(szCmd, sizeof(szCmd));
    9f7c:	01400184 	movi	r5,6
    9f80:	d809883a 	mov	r4,sp
    szCmd[1] = 0x40;
    szCmd[2] = 0xFF;
    szCmd[3] = 0x80;
    szCmd[4] = 0x00;*/
    crc = crc7(0, szCmd, 5);
    szCmd[5] = (crc << 1) | 0x01;
    9f84:	d8800145 	stb	r2,5(sp)
    
    SDHAL_SendCmd(szCmd, sizeof(szCmd));
    9f88:	00096300 	call	9630 <SDHAL_SendCmd>
    
    bSuccess = SDHAL_GetResponse(szResponse, sizeof(szResponse));
    9f8c:	01400184 	movi	r5,6
    9f90:	d949883a 	add	r4,sp,r5
    9f94:	00096d40 	call	96d4 <SDHAL_GetResponse>
    
    if (bSuccess){
    9f98:	10001626 	beq	r2,zero,9ff4 <SD_ACMD41+0xd0>
        int i;
        // check command
        if (bSuccess && szResponse[0] != 0x3F){
    9f9c:	d9000183 	ldbu	r4,6(sp)
    9fa0:	00c00fc4 	movi	r3,63
    9fa4:	20c00126 	beq	r4,r3,9fac <SD_ACMD41+0x88>
            SDCARD_DEBUG(("ACMD%d Response: Invalid reserved bits\r\n", Cmd));
            bSuccess = FALSE;
    9fa8:	0005883a 	mov	r2,zero
        }
        
        // [1]~[4]: 32-bits OCR (exampe: 0xFF8000)
        OCR = 0;
        for(i=0;i<4;i++){
    9fac:	0009883a 	mov	r4,zero
            SDCARD_DEBUG(("ACMD%d Response: Invalid reserved bits\r\n", Cmd));
            bSuccess = FALSE;
        }
        
        // [1]~[4]: 32-bits OCR (exampe: 0xFF8000)
        OCR = 0;
    9fb0:	0007883a 	mov	r3,zero
        for(i=0;i<4;i++){
    9fb4:	01400104 	movi	r5,4
            OCR <<= 8;
            OCR |= szResponse[i+1];
    9fb8:	21000044 	addi	r4,r4,1
    9fbc:	d9c00184 	addi	r7,sp,6
    9fc0:	390d883a 	add	r6,r7,r4
        }
        
        // [1]~[4]: 32-bits OCR (exampe: 0xFF8000)
        OCR = 0;
        for(i=0;i<4;i++){
            OCR <<= 8;
    9fc4:	1806923a 	slli	r3,r3,8
            OCR |= szResponse[i+1];
    9fc8:	31800003 	ldbu	r6,0(r6)
    9fcc:	30c6b03a 	or	r3,r6,r3
            bSuccess = FALSE;
        }
        
        // [1]~[4]: 32-bits OCR (exampe: 0xFF8000)
        OCR = 0;
        for(i=0;i<4;i++){
    9fd0:	217ff91e 	bne	r4,r5,9fb8 <_gp+0xffff3dec>
            OCR <<= 8;
            OCR |= szResponse[i+1];
        }           
        
        //!!!!!!!!!! note. bit31(Card power up status bit) is LOW when the card is busy.
        if ((OCR & 0x80000000) != 0x80000000){
    9fd4:	1800040e 	bge	r3,zero,9fe8 <SD_ACMD41+0xc4>
            SDCARD_DEBUG(("ACMD%d Response: card is busy\r\n", Cmd));
            bSuccess = FALSE;
        } 
        
        // check reserved bits and end-bits
        if (bSuccess && (szResponse[5] != 0xFF)){
    9fd8:	10000626 	beq	r2,zero,9ff4 <SD_ACMD41+0xd0>
    9fdc:	d94002c3 	ldbu	r5,11(sp)
    9fe0:	01003fc4 	movi	r4,255
    9fe4:	29000226 	beq	r5,r4,9ff0 <SD_ACMD41+0xcc>
    9fe8:	0005883a 	mov	r2,zero
    9fec:	00000106 	br	9ff4 <SD_ACMD41+0xd0>
        }
          
    }      
    
   if (bSuccess)
      *pOCR32 = OCR;  
    9ff0:	80c00015 	stw	r3,0(r16)

    return bSuccess;
}
    9ff4:	dfc00417 	ldw	ra,16(sp)
    9ff8:	dc000317 	ldw	r16,12(sp)
    9ffc:	dec00504 	addi	sp,sp,20
    a000:	f800283a 	ret

0000a004 <SD_CMD2>:

// function: Asks any card to send the CID numbers on the CMD line (4.7.4)
// response: 4.9.3 R2 (CMD2 & CMD10)
// CID(Card IDentification): 128 bits = 128/8 = 16 bytes
bool SD_CMD2(alt_u8 szCID[], int nBufLen){
    a004:	defff604 	addi	sp,sp,-40
    a008:	dc400715 	stw	r17,28(sp)
    a00c:	dc000615 	stw	r16,24(sp)
    const alt_u8 Cmd = 2;
    alt_u8 szCmd[6]  = {0x40,0x00,0x00,0x00,0x00, 0x00}, crc;

    SDCARD_TRACE(("CMD2\r\n"));
    // build packet    
    szCmd[0] |= Cmd;
    a010:	00801084 	movi	r2,66
    crc = crc7(0, szCmd, 5);
    a014:	01800144 	movi	r6,5
}

// function: Asks any card to send the CID numbers on the CMD line (4.7.4)
// response: 4.9.3 R2 (CMD2 & CMD10)
// CID(Card IDentification): 128 bits = 128/8 = 16 bytes
bool SD_CMD2(alt_u8 szCID[], int nBufLen){
    a018:	2021883a 	mov	r16,r4
    a01c:	2823883a 	mov	r17,r5
    alt_u8 szCmd[6]  = {0x40,0x00,0x00,0x00,0x00, 0x00}, crc;

    SDCARD_TRACE(("CMD2\r\n"));
    // build packet    
    szCmd[0] |= Cmd;
    crc = crc7(0, szCmd, 5);
    a020:	0009883a 	mov	r4,zero
    a024:	d9400444 	addi	r5,sp,17
}

// function: Asks any card to send the CID numbers on the CMD line (4.7.4)
// response: 4.9.3 R2 (CMD2 & CMD10)
// CID(Card IDentification): 128 bits = 128/8 = 16 bytes
bool SD_CMD2(alt_u8 szCID[], int nBufLen){
    a028:	dfc00915 	stw	ra,36(sp)
    a02c:	dc800815 	stw	r18,32(sp)
    bool bSuccess;
    alt_u8 szResponse[17];  // 136/8 = 17
    const alt_u8 Cmd = 2;
    alt_u8 szCmd[6]  = {0x40,0x00,0x00,0x00,0x00, 0x00}, crc;
    a030:	d8000485 	stb	zero,18(sp)
    a034:	d80004c5 	stb	zero,19(sp)
    a038:	d8000505 	stb	zero,20(sp)
    a03c:	d8000545 	stb	zero,21(sp)
    a040:	d8000585 	stb	zero,22(sp)

    SDCARD_TRACE(("CMD2\r\n"));
    // build packet    
    szCmd[0] |= Cmd;
    a044:	d8800445 	stb	r2,17(sp)
    crc = crc7(0, szCmd, 5);
    a048:	00094880 	call	9488 <crc7>
    szCmd[5] = (crc << 1) | 0x01;
    a04c:	10803fcc 	andi	r2,r2,255
    a050:	1085883a 	add	r2,r2,r2
    a054:	10800054 	ori	r2,r2,1
    
    //
 //   sd_Ncc();
    //for(x=0;x<40;x++)
    //    sd_Ncr();
    SDHAL_SendCmd(szCmd, sizeof(szCmd));
    a058:	01400184 	movi	r5,6
    a05c:	d9000444 	addi	r4,sp,17

    SDCARD_TRACE(("CMD2\r\n"));
    // build packet    
    szCmd[0] |= Cmd;
    crc = crc7(0, szCmd, 5);
    szCmd[5] = (crc << 1) | 0x01;
    a060:	d8800585 	stb	r2,22(sp)
    
    //
 //   sd_Ncc();
    //for(x=0;x<40;x++)
    //    sd_Ncr();
    SDHAL_SendCmd(szCmd, sizeof(szCmd));
    a064:	00096300 	call	9630 <SDHAL_SendCmd>
  //  sd_Ncr();
    
    bSuccess = SDHAL_GetResponse(szResponse, sizeof(szResponse));
    a068:	01400444 	movi	r5,17
    a06c:	d809883a 	mov	r4,sp
    a070:	00096d40 	call	96d4 <SDHAL_GetResponse>
    
    // check response content
    if (bSuccess){
    a074:	10000d26 	beq	r2,zero,a0ac <SD_CMD2+0xa8>
        // check command
        if (bSuccess && szResponse[0] != 0x3F){ 
    a078:	d8c00003 	ldbu	r3,0(sp)
    a07c:	1025883a 	mov	r18,r2
    a080:	00800fc4 	movi	r2,63
    a084:	1880091e 	bne	r3,r2,a0ac <SD_CMD2+0xa8>
        
        
        // check crc
        if (bSuccess){
            alt_u8 crc;
            crc = crc7(0, &szResponse[1], 15);
    a088:	0009883a 	mov	r4,zero
    a08c:	018003c4 	movi	r6,15
    a090:	d9400044 	addi	r5,sp,1
    a094:	00094880 	call	9488 <crc7>
            if (crc != (szResponse[16] >> 1)){
    a098:	d8c00403 	ldbu	r3,16(sp)
    a09c:	10803fcc 	andi	r2,r2,255
    a0a0:	19003fcc 	andi	r4,r3,255
    a0a4:	2008d07a 	srli	r4,r4,1
    a0a8:	11000226 	beq	r2,r4,a0b4 <SD_CMD2+0xb0>
        int nCopyLen, x;
        // [1]~[16]: CIS or CSD register
        nCopyLen = nBufLen;
        if (nCopyLen > 16)
            nCopyLen = 16;
        for(x=0;x<nCopyLen;x++)
    a0ac:	0025883a 	mov	r18,zero
            szCID[x] = szResponse[x+1];
        
    }
    
    return bSuccess;
    a0b0:	00000f06 	br	a0f0 <SD_CMD2+0xec>
                bSuccess = FALSE;
            }
        }            
        
        // check end-bits
        if (bSuccess && ((szResponse[16] & 0x01) != 0x01)){
    a0b4:	18c0004c 	andi	r3,r3,1
    a0b8:	183ffc26 	beq	r3,zero,a0ac <_gp+0xffff3ee0>
    a0bc:	00800404 	movi	r2,16
    a0c0:	880b883a 	mov	r5,r17
    a0c4:	1440010e 	bge	r2,r17,a0cc <SD_CMD2+0xc8>
    a0c8:	100b883a 	mov	r5,r2
    a0cc:	8009883a 	mov	r4,r16
        int nCopyLen, x;
        // [1]~[16]: CIS or CSD register
        nCopyLen = nBufLen;
        if (nCopyLen > 16)
            nCopyLen = 16;
        for(x=0;x<nCopyLen;x++)
    a0d0:	0005883a 	mov	r2,zero
    a0d4:	1140060e 	bge	r2,r5,a0f0 <SD_CMD2+0xec>
            szCID[x] = szResponse[x+1];
    a0d8:	10800044 	addi	r2,r2,1
    a0dc:	d887883a 	add	r3,sp,r2
    a0e0:	18c00003 	ldbu	r3,0(r3)
    a0e4:	21000044 	addi	r4,r4,1
    a0e8:	20ffffc5 	stb	r3,-1(r4)
    a0ec:	003ff906 	br	a0d4 <_gp+0xffff3f08>
        
    }
    
    return bSuccess;
    
}
    a0f0:	9005883a 	mov	r2,r18
    a0f4:	dfc00917 	ldw	ra,36(sp)
    a0f8:	dc800817 	ldw	r18,32(sp)
    a0fc:	dc400717 	ldw	r17,28(sp)
    a100:	dc000617 	ldw	r16,24(sp)
    a104:	dec00a04 	addi	sp,sp,40
    a108:	f800283a 	ret

0000a10c <SD_CMD3>:

//
bool SD_CMD3(alt_u16 *pRCA16){
    a10c:	defff904 	addi	sp,sp,-28
    a110:	dc400415 	stw	r17,16(sp)
    const alt_u8 Cmd = 3;
    alt_u8 szCmd[6]  = {0x40,0x00,0x00,0x00,0x00, 0x00}, crc;

    SDCARD_TRACE(("CMD3\r\n"));
    // build packet    
    szCmd[0] |= Cmd;
    a114:	008010c4 	movi	r2,67
    crc = crc7(0, szCmd, 5);
    a118:	01800144 	movi	r6,5
    a11c:	d80b883a 	mov	r5,sp
    return bSuccess;
    
}

//
bool SD_CMD3(alt_u16 *pRCA16){
    a120:	2023883a 	mov	r17,r4
    alt_u8 szCmd[6]  = {0x40,0x00,0x00,0x00,0x00, 0x00}, crc;

    SDCARD_TRACE(("CMD3\r\n"));
    // build packet    
    szCmd[0] |= Cmd;
    crc = crc7(0, szCmd, 5);
    a124:	0009883a 	mov	r4,zero
    return bSuccess;
    
}

//
bool SD_CMD3(alt_u16 *pRCA16){
    a128:	dfc00615 	stw	ra,24(sp)
    a12c:	dc800515 	stw	r18,20(sp)
    a130:	dc000315 	stw	r16,12(sp)
    bool bSuccess;
    alt_u16 RCA16;
    alt_u8 szResponse[6];
    const alt_u8 Cmd = 3;
    alt_u8 szCmd[6]  = {0x40,0x00,0x00,0x00,0x00, 0x00}, crc;
    a134:	d8000045 	stb	zero,1(sp)
    a138:	d8000085 	stb	zero,2(sp)
    a13c:	d80000c5 	stb	zero,3(sp)
    a140:	d8000105 	stb	zero,4(sp)
    a144:	d8000145 	stb	zero,5(sp)

    SDCARD_TRACE(("CMD3\r\n"));
    // build packet    
    szCmd[0] |= Cmd;
    a148:	d8800005 	stb	r2,0(sp)
    crc = crc7(0, szCmd, 5);
    a14c:	00094880 	call	9488 <crc7>
    szCmd[5] = (crc << 1) | 0x01;
    a150:	10803fcc 	andi	r2,r2,255
    a154:	1085883a 	add	r2,r2,r2
    a158:	10800054 	ori	r2,r2,1

    // send package    
    SDHAL_SendCmd(szCmd, sizeof(szCmd));
    a15c:	01400184 	movi	r5,6
    a160:	d809883a 	mov	r4,sp

    SDCARD_TRACE(("CMD3\r\n"));
    // build packet    
    szCmd[0] |= Cmd;
    crc = crc7(0, szCmd, 5);
    szCmd[5] = (crc << 1) | 0x01;
    a164:	d8800145 	stb	r2,5(sp)

    // send package    
    SDHAL_SendCmd(szCmd, sizeof(szCmd));
    a168:	00096300 	call	9630 <SDHAL_SendCmd>
  
    // get response  
    bSuccess = SDHAL_GetResponse(szResponse, sizeof(szResponse));
    a16c:	01400184 	movi	r5,6
    a170:	d949883a 	add	r4,sp,r5
    a174:	00096d40 	call	96d4 <SDHAL_GetResponse>
    
    // check response content
    if (bSuccess){
    a178:	10001a26 	beq	r2,zero,a1e4 <SD_CMD3+0xd8>
        alt_u16 Status16;
        alt_u8  State8;
        // check command
        if (bSuccess && szResponse[0] != Cmd){ 
    a17c:	d8c00183 	ldbu	r3,6(sp)
    a180:	1021883a 	mov	r16,r2
    a184:	008000c4 	movi	r2,3
    a188:	18800126 	beq	r3,r2,a190 <SD_CMD3+0x84>
            SDCARD_DEBUG(("CMD%d Response: Invalid strat+tx+reserved bit\r\n", Cmd));
            bSuccess = FALSE;
    a18c:	0021883a 	mov	r16,zero
        }
        
        // New published RCA[31:16] of the card
        RCA16 = (szResponse[1] << 8) | szResponse[2];
    a190:	dc8001c3 	ldbu	r18,7(sp)
    a194:	d8800203 	ldbu	r2,8(sp)
        
        // [15:0] card status bits (16 bits: 23, 22, 19, 12~0) 0x500   
        Status16 = (szResponse[3] << 8) | szResponse[4];
        State8 = SD_CURRENT_STATE_DECODE(Status16);
        if (State8 != SD_STATE_IDENT){
    a198:	00c00084 	movi	r3,2
            SDCARD_DEBUG(("CMD%d Response: Invalid strat+tx+reserved bit\r\n", Cmd));
            bSuccess = FALSE;
        }
        
        // New published RCA[31:16] of the card
        RCA16 = (szResponse[1] << 8) | szResponse[2];
    a19c:	9024923a 	slli	r18,r18,8
    a1a0:	90a4b03a 	or	r18,r18,r2
        
        // [15:0] card status bits (16 bits: 23, 22, 19, 12~0) 0x500   
        Status16 = (szResponse[3] << 8) | szResponse[4];
        State8 = SD_CURRENT_STATE_DECODE(Status16);
        if (State8 != SD_STATE_IDENT){
    a1a4:	d8800243 	ldbu	r2,9(sp)
    a1a8:	1004d07a 	srli	r2,r2,1
    a1ac:	108003cc 	andi	r2,r2,15
    a1b0:	10c00c1e 	bne	r2,r3,a1e4 <SD_CMD3+0xd8>
           SDCARD_DEBUG(("CMD%d Response: Unexpected CURRENT_STATE\r\n", Cmd));
           bSuccess = FALSE;
        }
        
        // check crc
        if (bSuccess){
    a1b4:	80000b26 	beq	r16,zero,a1e4 <SD_CMD3+0xd8>
            alt_u8 crc;
            crc = crc7(0, szResponse, 5);
    a1b8:	0009883a 	mov	r4,zero
    a1bc:	01800144 	movi	r6,5
    a1c0:	d9400184 	addi	r5,sp,6
    a1c4:	00094880 	call	9488 <crc7>
            if (crc != (szResponse[5] >> 1)){
    a1c8:	d8c002c3 	ldbu	r3,11(sp)
    a1cc:	10803fcc 	andi	r2,r2,255
    a1d0:	19003fcc 	andi	r4,r3,255
    a1d4:	2008d07a 	srli	r4,r4,1
    a1d8:	1100021e 	bne	r2,r4,a1e4 <SD_CMD3+0xd8>
                bSuccess = FALSE;
            }
        }            
        
        // check end-bits
        if (bSuccess && ((szResponse[5] & 0x01) != 0x01)){
    a1dc:	18c0004c 	andi	r3,r3,1
    a1e0:	1800021e 	bne	r3,zero,a1ec <SD_CMD3+0xe0>
        alt_u16 Status16;
        alt_u8  State8;
        // check command
        if (bSuccess && szResponse[0] != Cmd){ 
            SDCARD_DEBUG(("CMD%d Response: Invalid strat+tx+reserved bit\r\n", Cmd));
            bSuccess = FALSE;
    a1e4:	0021883a 	mov	r16,zero
    a1e8:	00000106 	br	a1f0 <SD_CMD3+0xe4>
        }
          
    }
    
    if (bSuccess)
        *pRCA16 = RCA16;
    a1ec:	8c80000d 	sth	r18,0(r17)
    
    return bSuccess;
    
}
    a1f0:	8005883a 	mov	r2,r16
    a1f4:	dfc00617 	ldw	ra,24(sp)
    a1f8:	dc800517 	ldw	r18,20(sp)
    a1fc:	dc400417 	ldw	r17,16(sp)
    a200:	dc000317 	ldw	r16,12(sp)
    a204:	dec00704 	addi	sp,sp,28
    a208:	f800283a 	ret

0000a20c <SD_CMD9>:

bool SD_CMD9(alt_u16 RCA16, alt_u8 szCSD[], int nBufLen){
    a20c:	defff704 	addi	sp,sp,-36
    alt_u8 szCmd[6]  = {0x40,0x00,0x00,0x00,0x00, 0x00}, crc;

    SDCARD_TRACE(("CMD9\r\n"));

    // build packet    
    szCmd[0] |= Cmd;
    a210:	00801244 	movi	r2,73
    a214:	d8800445 	stb	r2,17(sp)
    szCmd[1] |= RCA16 >> 8;
    a218:	2004d23a 	srli	r2,r4,8
    
    return bSuccess;
    
}

bool SD_CMD9(alt_u16 RCA16, alt_u8 szCSD[], int nBufLen){
    a21c:	dc000615 	stw	r16,24(sp)
    SDCARD_TRACE(("CMD9\r\n"));

    // build packet    
    szCmd[0] |= Cmd;
    szCmd[1] |= RCA16 >> 8;
    szCmd[2] |= RCA16 & 0xFF;
    a220:	d90004c5 	stb	r4,19(sp)
    crc = crc7(0, szCmd, 5);
    a224:	01800144 	movi	r6,5
    a228:	0009883a 	mov	r4,zero
    
    return bSuccess;
    
}

bool SD_CMD9(alt_u16 RCA16, alt_u8 szCSD[], int nBufLen){
    a22c:	2821883a 	mov	r16,r5

    // build packet    
    szCmd[0] |= Cmd;
    szCmd[1] |= RCA16 >> 8;
    szCmd[2] |= RCA16 & 0xFF;
    crc = crc7(0, szCmd, 5);
    a230:	d9400444 	addi	r5,sp,17
    
    return bSuccess;
    
}

bool SD_CMD9(alt_u16 RCA16, alt_u8 szCSD[], int nBufLen){
    a234:	dfc00815 	stw	ra,32(sp)
    a238:	dc400715 	stw	r17,28(sp)
    bool bSuccess;
    alt_u8 szResponse[17];
    const alt_u8 Cmd = 9;
    alt_u8 szCmd[6]  = {0x40,0x00,0x00,0x00,0x00, 0x00}, crc;
    a23c:	d8000505 	stb	zero,20(sp)
    a240:	d8000545 	stb	zero,21(sp)
    a244:	d8000585 	stb	zero,22(sp)

    SDCARD_TRACE(("CMD9\r\n"));

    // build packet    
    szCmd[0] |= Cmd;
    szCmd[1] |= RCA16 >> 8;
    a248:	d8800485 	stb	r2,18(sp)
    szCmd[2] |= RCA16 & 0xFF;
    crc = crc7(0, szCmd, 5);
    a24c:	00094880 	call	9488 <crc7>
    szCmd[5] = (crc << 1) | 0x01;
    a250:	10803fcc 	andi	r2,r2,255
    a254:	1085883a 	add	r2,r2,r2
    a258:	10800054 	ori	r2,r2,1

    // send package    
    SDHAL_SendCmd(szCmd, sizeof(szCmd));
    a25c:	01400184 	movi	r5,6
    a260:	d9000444 	addi	r4,sp,17
    // build packet    
    szCmd[0] |= Cmd;
    szCmd[1] |= RCA16 >> 8;
    szCmd[2] |= RCA16 & 0xFF;
    crc = crc7(0, szCmd, 5);
    szCmd[5] = (crc << 1) | 0x01;
    a264:	d8800585 	stb	r2,22(sp)

    // send package    
    SDHAL_SendCmd(szCmd, sizeof(szCmd));
    a268:	00096300 	call	9630 <SDHAL_SendCmd>
  
    // get response  
    bSuccess = SDHAL_GetResponse(szResponse, sizeof(szResponse));
    a26c:	01400444 	movi	r5,17
    a270:	d809883a 	mov	r4,sp
    a274:	00096d40 	call	96d4 <SDHAL_GetResponse>
    
    // check response content
    if (bSuccess){
    a278:	10000d26 	beq	r2,zero,a2b0 <SD_CMD9+0xa4>
        // check command
        if (bSuccess && szResponse[0] != 0x3F){ 
    a27c:	d8c00003 	ldbu	r3,0(sp)
    a280:	1023883a 	mov	r17,r2
    a284:	00800fc4 	movi	r2,63
    a288:	1880091e 	bne	r3,r2,a2b0 <SD_CMD9+0xa4>
        }
        
        // check crc
        if (bSuccess){
            alt_u8 crc;
            crc = crc7(0, &szResponse[1], 15);
    a28c:	0009883a 	mov	r4,zero
    a290:	018003c4 	movi	r6,15
    a294:	d9400044 	addi	r5,sp,1
    a298:	00094880 	call	9488 <crc7>
            if (crc != (szResponse[16] >> 1)){
    a29c:	d8c00403 	ldbu	r3,16(sp)
    a2a0:	10803fcc 	andi	r2,r2,255
    a2a4:	19003fcc 	andi	r4,r3,255
    a2a8:	2008d07a 	srli	r4,r4,1
    a2ac:	11000226 	beq	r2,r4,a2b8 <SD_CMD9+0xac>
                bSuccess = FALSE;
            }
        }            
        
        // check end-bits
        if (bSuccess && ((szResponse[16] & 0x01) != 0x01)){
    a2b0:	0023883a 	mov	r17,zero
            nCopyLen = 16;
        for(x=0;x<nCopyLen;x++)
            szCSD[x] = szResponse[x+1];           
    }        
    
    return bSuccess;
    a2b4:	00000b06 	br	a2e4 <SD_CMD9+0xd8>
                bSuccess = FALSE;
            }
        }            
        
        // check end-bits
        if (bSuccess && ((szResponse[16] & 0x01) != 0x01)){
    a2b8:	18c0004c 	andi	r3,r3,1
    a2bc:	183ffc26 	beq	r3,zero,a2b0 <_gp+0xffff40e4>
    a2c0:	800b883a 	mov	r5,r16
    a2c4:	0005883a 	mov	r2,zero
    
    if (bSuccess){
        int nCopyLen, x;
        if (nCopyLen > 16)
            nCopyLen = 16;
        for(x=0;x<nCopyLen;x++)
    a2c8:	00c00404 	movi	r3,16
            szCSD[x] = szResponse[x+1];           
    a2cc:	10800044 	addi	r2,r2,1
    a2d0:	d889883a 	add	r4,sp,r2
    a2d4:	21000003 	ldbu	r4,0(r4)
    a2d8:	29400044 	addi	r5,r5,1
    a2dc:	293fffc5 	stb	r4,-1(r5)
    
    if (bSuccess){
        int nCopyLen, x;
        if (nCopyLen > 16)
            nCopyLen = 16;
        for(x=0;x<nCopyLen;x++)
    a2e0:	10fffa1e 	bne	r2,r3,a2cc <_gp+0xffff4100>
            szCSD[x] = szResponse[x+1];           
    }        
    
    return bSuccess;
}
    a2e4:	8805883a 	mov	r2,r17
    a2e8:	dfc00817 	ldw	ra,32(sp)
    a2ec:	dc400717 	ldw	r17,28(sp)
    a2f0:	dc000617 	ldw	r16,24(sp)
    a2f4:	dec00904 	addi	sp,sp,36
    a2f8:	f800283a 	ret

0000a2fc <SD_CMD10>:

bool SD_CMD10(alt_u16 RCA16, alt_u8 szCID[], int nBufLen){
    a2fc:	defff704 	addi	sp,sp,-36
    alt_u8 szCmd[6]  = {0x40,0x00,0x00,0x00,0x00, 0x00}, crc;

    SDCARD_TRACE(("CMD10\r\n"));

    // build packet    
    szCmd[0] |= Cmd;
    a300:	00801284 	movi	r2,74
    a304:	d8800445 	stb	r2,17(sp)
    szCmd[1] |= RCA16 >> 8;
    a308:	2004d23a 	srli	r2,r4,8
    }        
    
    return bSuccess;
}

bool SD_CMD10(alt_u16 RCA16, alt_u8 szCID[], int nBufLen){
    a30c:	dc000615 	stw	r16,24(sp)
    SDCARD_TRACE(("CMD10\r\n"));

    // build packet    
    szCmd[0] |= Cmd;
    szCmd[1] |= RCA16 >> 8;
    szCmd[2] |= RCA16 & 0xFF;
    a310:	d90004c5 	stb	r4,19(sp)
    crc = crc7(0, szCmd, 5);
    a314:	01800144 	movi	r6,5
    a318:	0009883a 	mov	r4,zero
    }        
    
    return bSuccess;
}

bool SD_CMD10(alt_u16 RCA16, alt_u8 szCID[], int nBufLen){
    a31c:	2821883a 	mov	r16,r5

    // build packet    
    szCmd[0] |= Cmd;
    szCmd[1] |= RCA16 >> 8;
    szCmd[2] |= RCA16 & 0xFF;
    crc = crc7(0, szCmd, 5);
    a320:	d9400444 	addi	r5,sp,17
    }        
    
    return bSuccess;
}

bool SD_CMD10(alt_u16 RCA16, alt_u8 szCID[], int nBufLen){
    a324:	dfc00815 	stw	ra,32(sp)
    a328:	dc400715 	stw	r17,28(sp)
    bool bSuccess;
    alt_u8 szResponse[17];
    const alt_u8 Cmd = 10;
    alt_u8 szCmd[6]  = {0x40,0x00,0x00,0x00,0x00, 0x00}, crc;
    a32c:	d8000505 	stb	zero,20(sp)
    a330:	d8000545 	stb	zero,21(sp)
    a334:	d8000585 	stb	zero,22(sp)

    SDCARD_TRACE(("CMD10\r\n"));

    // build packet    
    szCmd[0] |= Cmd;
    szCmd[1] |= RCA16 >> 8;
    a338:	d8800485 	stb	r2,18(sp)
    szCmd[2] |= RCA16 & 0xFF;
    crc = crc7(0, szCmd, 5);
    a33c:	00094880 	call	9488 <crc7>
    szCmd[5] = (crc << 1) | 0x01;
    a340:	10803fcc 	andi	r2,r2,255
    a344:	1085883a 	add	r2,r2,r2
    a348:	10800054 	ori	r2,r2,1

    // send package    
    SDHAL_SendCmd(szCmd, sizeof(szCmd));
    a34c:	01400184 	movi	r5,6
    a350:	d9000444 	addi	r4,sp,17
    // build packet    
    szCmd[0] |= Cmd;
    szCmd[1] |= RCA16 >> 8;
    szCmd[2] |= RCA16 & 0xFF;
    crc = crc7(0, szCmd, 5);
    szCmd[5] = (crc << 1) | 0x01;
    a354:	d8800585 	stb	r2,22(sp)

    // send package    
    SDHAL_SendCmd(szCmd, sizeof(szCmd));
    a358:	00096300 	call	9630 <SDHAL_SendCmd>
  
    // get response  
    bSuccess = SDHAL_GetResponse(szResponse, sizeof(szResponse));
    a35c:	01400444 	movi	r5,17
    a360:	d809883a 	mov	r4,sp
    a364:	00096d40 	call	96d4 <SDHAL_GetResponse>
    
    // check response content
    if (bSuccess){
    a368:	10000d26 	beq	r2,zero,a3a0 <SD_CMD10+0xa4>
        // check command
        if (bSuccess && szResponse[0] != 0x3F){ 
    a36c:	d8c00003 	ldbu	r3,0(sp)
    a370:	1023883a 	mov	r17,r2
    a374:	00800fc4 	movi	r2,63
    a378:	1880091e 	bne	r3,r2,a3a0 <SD_CMD10+0xa4>
        }
        
        // check crc
        if (bSuccess){
            alt_u8 crc;
            crc = crc7(0, &szResponse[1], 15);
    a37c:	0009883a 	mov	r4,zero
    a380:	018003c4 	movi	r6,15
    a384:	d9400044 	addi	r5,sp,1
    a388:	00094880 	call	9488 <crc7>
            if (crc != (szResponse[16] >> 1)){
    a38c:	d8c00403 	ldbu	r3,16(sp)
    a390:	10803fcc 	andi	r2,r2,255
    a394:	19003fcc 	andi	r4,r3,255
    a398:	2008d07a 	srli	r4,r4,1
    a39c:	11000226 	beq	r2,r4,a3a8 <SD_CMD10+0xac>
                bSuccess = FALSE;
            }
        }            
        
        // check end-bits
        if (bSuccess && ((szResponse[16] & 0x01) != 0x01)){
    a3a0:	0023883a 	mov	r17,zero
            nCopyLen = 16;
        for(x=0;x<nCopyLen;x++)
            szCID[x] = szResponse[x+1];           
    }        
    
    return bSuccess;
    a3a4:	00000b06 	br	a3d4 <SD_CMD10+0xd8>
                bSuccess = FALSE;
            }
        }            
        
        // check end-bits
        if (bSuccess && ((szResponse[16] & 0x01) != 0x01)){
    a3a8:	18c0004c 	andi	r3,r3,1
    a3ac:	183ffc26 	beq	r3,zero,a3a0 <_gp+0xffff41d4>
    a3b0:	800b883a 	mov	r5,r16
    a3b4:	0005883a 	mov	r2,zero
    
    if (bSuccess){
        int nCopyLen, x;
        if (nCopyLen > 16)
            nCopyLen = 16;
        for(x=0;x<nCopyLen;x++)
    a3b8:	00c00404 	movi	r3,16
            szCID[x] = szResponse[x+1];           
    a3bc:	10800044 	addi	r2,r2,1
    a3c0:	d889883a 	add	r4,sp,r2
    a3c4:	21000003 	ldbu	r4,0(r4)
    a3c8:	29400044 	addi	r5,r5,1
    a3cc:	293fffc5 	stb	r4,-1(r5)
    
    if (bSuccess){
        int nCopyLen, x;
        if (nCopyLen > 16)
            nCopyLen = 16;
        for(x=0;x<nCopyLen;x++)
    a3d0:	10fffa1e 	bne	r2,r3,a3bc <_gp+0xffff41f0>
            szCID[x] = szResponse[x+1];           
    }        
    
    return bSuccess;
}
    a3d4:	8805883a 	mov	r2,r17
    a3d8:	dfc00817 	ldw	ra,32(sp)
    a3dc:	dc400717 	ldw	r17,28(sp)
    a3e0:	dc000617 	ldw	r16,24(sp)
    a3e4:	dec00904 	addi	sp,sp,36
    a3e8:	f800283a 	ret

0000a3ec <SD_ReadData>:
}


bool SD_ReadData(alt_u8 szBuf[], int nBufLen){
    bool bSuccess;
    bSuccess = SDHAL_ReadData(szBuf, nBufLen);
    a3ec:	00097b41 	jmpi	97b4 <SDHAL_ReadData>

0000a3f0 <SD_WriteData>:
    return bSuccess;
}

bool SD_WriteData(alt_u8 szDataWrite[], int nDataLen){
    bool bSuccess;
    bSuccess = SDHAL_WriteData(szDataWrite, nDataLen);
    a3f0:	0009a4c1 	jmpi	9a4c <SDHAL_WriteData>

0000a3f4 <ArrayToU32>:
    return bSuccess;
}


alt_u32 ArrayToU32(alt_u8 szData[]){
    a3f4:	20c00104 	addi	r3,r4,4
    alt_u32 Value32 = 0;
    a3f8:	0005883a 	mov	r2,zero
    int i;
    
    for(i=0;i<4;i++){
        Value32 <<= 8;
        Value32 |= szData[i];
    a3fc:	21400003 	ldbu	r5,0(r4)
alt_u32 ArrayToU32(alt_u8 szData[]){
    alt_u32 Value32 = 0;
    int i;
    
    for(i=0;i<4;i++){
        Value32 <<= 8;
    a400:	1004923a 	slli	r2,r2,8
    a404:	21000044 	addi	r4,r4,1
        Value32 |= szData[i];
    a408:	2884b03a 	or	r2,r5,r2

alt_u32 ArrayToU32(alt_u8 szData[]){
    alt_u32 Value32 = 0;
    int i;
    
    for(i=0;i<4;i++){
    a40c:	20fffb1e 	bne	r4,r3,a3fc <_gp+0xffff4230>
        Value32 <<= 8;
        Value32 |= szData[i];
    }
    return Value32;
}
    a410:	f800283a 	ret

0000a414 <SD_CMD55>:
    
    return bSuccess;
    
}

bool SD_CMD55(alt_u16 RCA16, alt_u8 ExpectedState){
    a414:	defffa04 	addi	sp,sp,-24
    alt_u8 szCmd[6]  = {0x40,0x00,0x00,0x00,0x00, 0x00}, crc;

    SDCARD_TRACE(("CMD55\r\n"));

    // build packet    
    szCmd[0] |= Cmd;
    a418:	00801dc4 	movi	r2,119
    a41c:	d8800005 	stb	r2,0(sp)
    szCmd[1] = RCA16 >> 8;
    a420:	2004d23a 	srli	r2,r4,8
    
    return bSuccess;
    
}

bool SD_CMD55(alt_u16 RCA16, alt_u8 ExpectedState){
    a424:	dc000315 	stw	r16,12(sp)
    SDCARD_TRACE(("CMD55\r\n"));

    // build packet    
    szCmd[0] |= Cmd;
    szCmd[1] = RCA16 >> 8;
    szCmd[2] = RCA16 & 0xFF;
    a428:	d9000085 	stb	r4,2(sp)
    crc = crc7(0, szCmd, 5);
    a42c:	01800144 	movi	r6,5
    a430:	0009883a 	mov	r4,zero
    
    return bSuccess;
    
}

bool SD_CMD55(alt_u16 RCA16, alt_u8 ExpectedState){
    a434:	2821883a 	mov	r16,r5

    // build packet    
    szCmd[0] |= Cmd;
    szCmd[1] = RCA16 >> 8;
    szCmd[2] = RCA16 & 0xFF;
    crc = crc7(0, szCmd, 5);
    a438:	d80b883a 	mov	r5,sp
    
    return bSuccess;
    
}

bool SD_CMD55(alt_u16 RCA16, alt_u8 ExpectedState){
    a43c:	dfc00515 	stw	ra,20(sp)
    a440:	dc400415 	stw	r17,16(sp)
    bool bSuccess;
    alt_u8 szResponse[6];
    const alt_u8 Cmd = 55;
    alt_u8 szCmd[6]  = {0x40,0x00,0x00,0x00,0x00, 0x00}, crc;
    a444:	d80000c5 	stb	zero,3(sp)
    a448:	d8000105 	stb	zero,4(sp)
    a44c:	d8000145 	stb	zero,5(sp)

    SDCARD_TRACE(("CMD55\r\n"));

    // build packet    
    szCmd[0] |= Cmd;
    szCmd[1] = RCA16 >> 8;
    a450:	d8800045 	stb	r2,1(sp)
    szCmd[2] = RCA16 & 0xFF;
    crc = crc7(0, szCmd, 5);
    a454:	00094880 	call	9488 <crc7>
    szCmd[5] = (crc << 1) | 0x01;
    a458:	10803fcc 	andi	r2,r2,255
    a45c:	1085883a 	add	r2,r2,r2
    a460:	10800054 	ori	r2,r2,1
    
    SDHAL_SendCmd(szCmd, sizeof(szCmd));
    a464:	01400184 	movi	r5,6
    a468:	d809883a 	mov	r4,sp
    // build packet    
    szCmd[0] |= Cmd;
    szCmd[1] = RCA16 >> 8;
    szCmd[2] = RCA16 & 0xFF;
    crc = crc7(0, szCmd, 5);
    szCmd[5] = (crc << 1) | 0x01;
    a46c:	d8800145 	stb	r2,5(sp)
    
    SDHAL_SendCmd(szCmd, sizeof(szCmd));
    a470:	00096300 	call	9630 <SDHAL_SendCmd>
  
    bSuccess = SDHAL_GetResponse(szResponse, sizeof(szResponse));
    a474:	01400184 	movi	r5,6
    a478:	d949883a 	add	r4,sp,r5
    a47c:	00096d40 	call	96d4 <SDHAL_GetResponse>
    
    // check response content
    if (bSuccess){
    a480:	10001526 	beq	r2,zero,a4d8 <SD_CMD55+0xc4>
        alt_u32 CardStatus, ExpectedStatus;  // define in 4.10
        // check command
        if (bSuccess && szResponse[0] != Cmd){
    a484:	d8c00183 	ldbu	r3,6(sp)
    a488:	1023883a 	mov	r17,r2
    a48c:	00800dc4 	movi	r2,55
    a490:	18800126 	beq	r3,r2,a498 <SD_CMD55+0x84>
            SDCARD_DEBUG(("CMD%d Response: Invalid command index\r\n", Cmd));
            bSuccess = FALSE;
    a494:	0023883a 	mov	r17,zero
        }
        
        // [1]~[4]: 32-bits card status
        CardStatus = ArrayToU32(&szResponse[1]);
        ExpectedStatus = SD_BIT_APP_CMD | SD_BIT_READY_FOR_DATA | SD_CURRENT_STATE_ENCODE(ExpectedState);
        if (CardStatus != ExpectedStatus){
    a498:	840003cc 	andi	r16,r16,15
    a49c:	8020927a 	slli	r16,r16,9
            SDCARD_DEBUG(("CMD%d Response: Invalid command index\r\n", Cmd));
            bSuccess = FALSE;
        }
        
        // [1]~[4]: 32-bits card status
        CardStatus = ArrayToU32(&szResponse[1]);
    a4a0:	d90001c4 	addi	r4,sp,7
    a4a4:	000a3f40 	call	a3f4 <ArrayToU32>
        ExpectedStatus = SD_BIT_APP_CMD | SD_BIT_READY_FOR_DATA | SD_CURRENT_STATE_ENCODE(ExpectedState);
        if (CardStatus != ExpectedStatus){
    a4a8:	84004814 	ori	r16,r16,288
    a4ac:	14000a1e 	bne	r2,r16,a4d8 <SD_CMD55+0xc4>
            SDCARD_DEBUG(("CMD%d Response: unexpected stauts\r\n", Cmd));
            bSuccess = FALSE;
        }
        
        // check crc
        if (bSuccess){
    a4b0:	88000926 	beq	r17,zero,a4d8 <SD_CMD55+0xc4>
            alt_u8 crc;
            crc = crc7(0, szResponse, 5);
    a4b4:	0009883a 	mov	r4,zero
    a4b8:	01800144 	movi	r6,5
    a4bc:	d9400184 	addi	r5,sp,6
    a4c0:	00094880 	call	9488 <crc7>
            if (crc != (szResponse[5] >> 1)){
    a4c4:	d8c002c3 	ldbu	r3,11(sp)
    a4c8:	10803fcc 	andi	r2,r2,255
    a4cc:	19003fcc 	andi	r4,r3,255
    a4d0:	2008d07a 	srli	r4,r4,1
    a4d4:	11000226 	beq	r2,r4,a4e0 <SD_CMD55+0xcc>
        }            
        
        // check end-bits
        if (bSuccess && ((szResponse[5] & 0x01) != 0x01)){
            SDCARD_DEBUG(("CMD%d Response: Invalid end-bits\r\n", Cmd));
            bSuccess = FALSE;
    a4d8:	0023883a 	mov	r17,zero
    a4dc:	00000206 	br	a4e8 <SD_CMD55+0xd4>
                bSuccess = FALSE;
            }
        }            
        
        // check end-bits
        if (bSuccess && ((szResponse[5] & 0x01) != 0x01)){
    a4e0:	18c0004c 	andi	r3,r3,1
    a4e4:	183ffc26 	beq	r3,zero,a4d8 <_gp+0xffff430c>
          
    }
    
    return bSuccess;
    
}
    a4e8:	8805883a 	mov	r2,r17
    a4ec:	dfc00517 	ldw	ra,20(sp)
    a4f0:	dc400417 	ldw	r17,16(sp)
    a4f4:	dc000317 	ldw	r16,12(sp)
    a4f8:	dec00604 	addi	sp,sp,24
    a4fc:	f800283a 	ret

0000a500 <SD_CMD7>:
    
    return bSuccess;
}


bool SD_CMD7(alt_u16 RCA16){
    a500:	defffb04 	addi	sp,sp,-20
    alt_u8 szCmd[6]  = {0x40,0x00,0x00,0x00,0x00, 0x00}, crc;

    SDCARD_TRACE(("CMD7\r\n"));

    // build packet    
    szCmd[0] |= Cmd;
    a504:	008011c4 	movi	r2,71
    a508:	d8800005 	stb	r2,0(sp)
    szCmd[1] |= RCA16 >> 8;
    a50c:	2004d23a 	srli	r2,r4,8
    szCmd[2] |= RCA16 & 0xFF;
    a510:	d9000085 	stb	r4,2(sp)
    crc = crc7(0, szCmd, 5);
    a514:	01800144 	movi	r6,5
    a518:	d80b883a 	mov	r5,sp
    a51c:	0009883a 	mov	r4,zero
    
    return bSuccess;
}


bool SD_CMD7(alt_u16 RCA16){
    a520:	dfc00415 	stw	ra,16(sp)
    a524:	dc000315 	stw	r16,12(sp)
    bool bSuccess;
    alt_u8 szResponse[6];
    const alt_u8 Cmd = 7;
    alt_u8 szCmd[6]  = {0x40,0x00,0x00,0x00,0x00, 0x00}, crc;
    a528:	d80000c5 	stb	zero,3(sp)
    a52c:	d8000105 	stb	zero,4(sp)
    a530:	d8000145 	stb	zero,5(sp)

    SDCARD_TRACE(("CMD7\r\n"));

    // build packet    
    szCmd[0] |= Cmd;
    szCmd[1] |= RCA16 >> 8;
    a534:	d8800045 	stb	r2,1(sp)
    szCmd[2] |= RCA16 & 0xFF;
    crc = crc7(0, szCmd, 5);
    a538:	00094880 	call	9488 <crc7>
    szCmd[5] = (crc << 1) | 0x01;
    a53c:	10803fcc 	andi	r2,r2,255
    a540:	1085883a 	add	r2,r2,r2
    a544:	10800054 	ori	r2,r2,1

    // send package    
    SDHAL_SendCmd(szCmd, sizeof(szCmd));
    a548:	01400184 	movi	r5,6
    a54c:	d809883a 	mov	r4,sp
    // build packet    
    szCmd[0] |= Cmd;
    szCmd[1] |= RCA16 >> 8;
    szCmd[2] |= RCA16 & 0xFF;
    crc = crc7(0, szCmd, 5);
    szCmd[5] = (crc << 1) | 0x01;
    a550:	d8800145 	stb	r2,5(sp)

    // send package    
    SDHAL_SendCmd(szCmd, sizeof(szCmd));
    a554:	00096300 	call	9630 <SDHAL_SendCmd>
  
    // get response  
    bSuccess = SDHAL_GetResponse(szResponse, sizeof(szResponse));
    a558:	01400184 	movi	r5,6
    a55c:	d949883a 	add	r4,sp,r5
    a560:	00096d40 	call	96d4 <SDHAL_GetResponse>
    
    // check response content
    if (bSuccess){
    a564:	10001326 	beq	r2,zero,a5b4 <SD_CMD7+0xb4>
        alt_u32 CardStatus, ExpectedStatus;
        // check command
        if (bSuccess && szResponse[0] != Cmd){ 
    a568:	d8c00183 	ldbu	r3,6(sp)
    a56c:	1021883a 	mov	r16,r2
    a570:	008001c4 	movi	r2,7
    a574:	18800126 	beq	r3,r2,a57c <SD_CMD7+0x7c>
            SDCARD_DEBUG(("CMD%d Response: Invalid strat+tx+reserved bit\r\n", Cmd));
            bSuccess = FALSE;
    a578:	0021883a 	mov	r16,zero
        }

        // [1]~[4]: 32-bits card status
        CardStatus = ArrayToU32(&szResponse[1]);
    a57c:	d90001c4 	addi	r4,sp,7
    a580:	000a3f40 	call	a3f4 <ArrayToU32>
        ExpectedStatus = SD_BIT_READY_FOR_DATA | SD_CURRENT_STATE_ENCODE(SD_STATE_STBY);
        if (CardStatus != ExpectedStatus){
    a584:	00c1c004 	movi	r3,1792
    a588:	10c00a1e 	bne	r2,r3,a5b4 <SD_CMD7+0xb4>
            SDCARD_DEBUG(("CMD%d Response: unexpected stauts\r\n", Cmd));
            bSuccess = FALSE;
        }        
        
        // check crc
        if (bSuccess){
    a58c:	80000926 	beq	r16,zero,a5b4 <SD_CMD7+0xb4>
            alt_u8 crc;
            crc = crc7(0, szResponse, 5);
    a590:	0009883a 	mov	r4,zero
    a594:	01800144 	movi	r6,5
    a598:	d9400184 	addi	r5,sp,6
    a59c:	00094880 	call	9488 <crc7>
            if (crc != (szResponse[5] >> 1)){
    a5a0:	d8c002c3 	ldbu	r3,11(sp)
    a5a4:	10803fcc 	andi	r2,r2,255
    a5a8:	19003fcc 	andi	r4,r3,255
    a5ac:	2008d07a 	srli	r4,r4,1
    a5b0:	11000226 	beq	r2,r4,a5bc <SD_CMD7+0xbc>
        }            
        
        // check end-bits
        if (bSuccess && ((szResponse[5] & 0x01) != 0x01)){
            SDCARD_DEBUG(("CMD%d Response: Invalid end-bits\r\n", Cmd));
            bSuccess = FALSE;
    a5b4:	0021883a 	mov	r16,zero
    a5b8:	00000206 	br	a5c4 <SD_CMD7+0xc4>
                bSuccess = FALSE;
            }
        }            
        
        // check end-bits
        if (bSuccess && ((szResponse[5] & 0x01) != 0x01)){
    a5bc:	18c0004c 	andi	r3,r3,1
    a5c0:	183ffc26 	beq	r3,zero,a5b4 <_gp+0xffff43e8>
    }
    
     
    
    return bSuccess;
}
    a5c4:	8005883a 	mov	r2,r16
    a5c8:	dfc00417 	ldw	ra,16(sp)
    a5cc:	dc000317 	ldw	r16,12(sp)
    a5d0:	dec00504 	addi	sp,sp,20
    a5d4:	f800283a 	ret

0000a5d8 <SD_CMD16>:

bool SD_CMD16(alt_u32 BlockSize){
    a5d8:	defffb04 	addi	sp,sp,-20
    alt_u8 szCmd[6]  = {0x40,0x00,0x00,0x00,0x00, 0x00}, crc;

    SDCARD_TRACE(("CMD16\r\n"));

    // build packet    
    szCmd[0] |= Cmd;
    a5dc:	00801404 	movi	r2,80
    a5e0:	d8800005 	stb	r2,0(sp)
    szCmd[1] |= BlockSize >> 24;
    a5e4:	2004d63a 	srli	r2,r4,24
    szCmd[2] |= BlockSize >> 16;
    szCmd[3] |= BlockSize >> 8;
    szCmd[4] |= BlockSize & 0xFF;
    a5e8:	d9000105 	stb	r4,4(sp)
    crc = crc7(0, szCmd, 5);
    a5ec:	01800144 	movi	r6,5

    SDCARD_TRACE(("CMD16\r\n"));

    // build packet    
    szCmd[0] |= Cmd;
    szCmd[1] |= BlockSize >> 24;
    a5f0:	d8800045 	stb	r2,1(sp)
    szCmd[2] |= BlockSize >> 16;
    a5f4:	2004d43a 	srli	r2,r4,16
    szCmd[3] |= BlockSize >> 8;
    szCmd[4] |= BlockSize & 0xFF;
    crc = crc7(0, szCmd, 5);
    a5f8:	d80b883a 	mov	r5,sp
     
    
    return bSuccess;
}

bool SD_CMD16(alt_u32 BlockSize){
    a5fc:	dfc00415 	stw	ra,16(sp)
    SDCARD_TRACE(("CMD16\r\n"));

    // build packet    
    szCmd[0] |= Cmd;
    szCmd[1] |= BlockSize >> 24;
    szCmd[2] |= BlockSize >> 16;
    a600:	d8800085 	stb	r2,2(sp)
    szCmd[3] |= BlockSize >> 8;
    a604:	2004d23a 	srli	r2,r4,8
    szCmd[4] |= BlockSize & 0xFF;
    crc = crc7(0, szCmd, 5);
    a608:	0009883a 	mov	r4,zero
     
    
    return bSuccess;
}

bool SD_CMD16(alt_u32 BlockSize){
    a60c:	dc000315 	stw	r16,12(sp)
    bool bSuccess;
    alt_u8 szResponse[6];
    const alt_u8 Cmd = 16;
    alt_u8 szCmd[6]  = {0x40,0x00,0x00,0x00,0x00, 0x00}, crc;
    a610:	d8000145 	stb	zero,5(sp)

    // build packet    
    szCmd[0] |= Cmd;
    szCmd[1] |= BlockSize >> 24;
    szCmd[2] |= BlockSize >> 16;
    szCmd[3] |= BlockSize >> 8;
    a614:	d88000c5 	stb	r2,3(sp)
    szCmd[4] |= BlockSize & 0xFF;
    crc = crc7(0, szCmd, 5);
    a618:	00094880 	call	9488 <crc7>
    szCmd[5] = (crc << 1) | 0x01;
    a61c:	10803fcc 	andi	r2,r2,255
    a620:	1085883a 	add	r2,r2,r2
    a624:	10800054 	ori	r2,r2,1

    // send package    
    SDHAL_SendCmd(szCmd, sizeof(szCmd));
    a628:	01400184 	movi	r5,6
    a62c:	d809883a 	mov	r4,sp
    szCmd[1] |= BlockSize >> 24;
    szCmd[2] |= BlockSize >> 16;
    szCmd[3] |= BlockSize >> 8;
    szCmd[4] |= BlockSize & 0xFF;
    crc = crc7(0, szCmd, 5);
    szCmd[5] = (crc << 1) | 0x01;
    a630:	d8800145 	stb	r2,5(sp)

    // send package    
    SDHAL_SendCmd(szCmd, sizeof(szCmd));
    a634:	00096300 	call	9630 <SDHAL_SendCmd>
  
    // get response  
    bSuccess = SDHAL_GetResponse(szResponse, sizeof(szResponse));
    a638:	01400184 	movi	r5,6
    a63c:	d949883a 	add	r4,sp,r5
    a640:	00096d40 	call	96d4 <SDHAL_GetResponse>
    
    // check response content
    if (bSuccess){
    a644:	10001326 	beq	r2,zero,a694 <SD_CMD16+0xbc>
        alt_u32 CardStatus, ExpectedStatus;
        // check command
        if (bSuccess && szResponse[0] != Cmd){ 
    a648:	d8c00183 	ldbu	r3,6(sp)
    a64c:	1021883a 	mov	r16,r2
    a650:	00800404 	movi	r2,16
    a654:	18800126 	beq	r3,r2,a65c <SD_CMD16+0x84>
            SDCARD_DEBUG(("CMD%d Response: Invalid strat+tx+reserved bit\r\n", Cmd));
            bSuccess = FALSE;
    a658:	0021883a 	mov	r16,zero
        }

        // [1]~[4]: 32-bits card status
        CardStatus = ArrayToU32(&szResponse[1]);
    a65c:	d90001c4 	addi	r4,sp,7
    a660:	000a3f40 	call	a3f4 <ArrayToU32>
        ExpectedStatus = SD_BIT_READY_FOR_DATA | SD_CURRENT_STATE_ENCODE(SD_STATE_TRAN);
        if (CardStatus != ExpectedStatus){
    a664:	00c24004 	movi	r3,2304
    a668:	10c00a1e 	bne	r2,r3,a694 <SD_CMD16+0xbc>
            SDCARD_DEBUG(("CMD%d Response: unexpected stauts\r\n", Cmd));
            bSuccess = FALSE;
        }        
        
        // check crc
        if (bSuccess){
    a66c:	80000926 	beq	r16,zero,a694 <SD_CMD16+0xbc>
            alt_u8 crc;
            crc = crc7(0, szResponse, 5);
    a670:	0009883a 	mov	r4,zero
    a674:	01800144 	movi	r6,5
    a678:	d9400184 	addi	r5,sp,6
    a67c:	00094880 	call	9488 <crc7>
            if (crc != (szResponse[5] >> 1)){
    a680:	d8c002c3 	ldbu	r3,11(sp)
    a684:	10803fcc 	andi	r2,r2,255
    a688:	19003fcc 	andi	r4,r3,255
    a68c:	2008d07a 	srli	r4,r4,1
    a690:	11000226 	beq	r2,r4,a69c <SD_CMD16+0xc4>
        }            
        
        // check end-bits
        if (bSuccess && ((szResponse[5] & 0x01) != 0x01)){
            SDCARD_DEBUG(("CMD%d Response: Invalid end-bits\r\n", Cmd));
            bSuccess = FALSE;
    a694:	0021883a 	mov	r16,zero
    a698:	00000206 	br	a6a4 <SD_CMD16+0xcc>
                bSuccess = FALSE;
            }
        }            
        
        // check end-bits
        if (bSuccess && ((szResponse[5] & 0x01) != 0x01)){
    a69c:	18c0004c 	andi	r3,r3,1
    a6a0:	183ffc26 	beq	r3,zero,a694 <_gp+0xffff44c8>
    }
    
     
    
    return bSuccess;
}
    a6a4:	8005883a 	mov	r2,r16
    a6a8:	dfc00417 	ldw	ra,16(sp)
    a6ac:	dc000317 	ldw	r16,12(sp)
    a6b0:	dec00504 	addi	sp,sp,20
    a6b4:	f800283a 	ret

0000a6b8 <SD_ACMD6>:

    SDCARD_TRACE(("ACMD6\r\n"));

    // build packet    
    szCmd[0] |= Cmd;
    szCmd[4] |= b4BitsBus?2:0;
    a6b8:	2008c03a 	cmpne	r4,r4,zero
    a6bc:	2008907a 	slli	r4,r4,1
    return bSuccess;
}

// SET_BUS_WIDTH
// Response: R1
bool SD_ACMD6(bool b4BitsBus, alt_u8 ExpectedState){
    a6c0:	defff904 	addi	sp,sp,-28
    a6c4:	dc000315 	stw	r16,12(sp)
    alt_u8 szCmd[6]  = {0x40,0x00,0x00,0x00,0x00, 0x00}, crc; 

    SDCARD_TRACE(("ACMD6\r\n"));

    // build packet    
    szCmd[0] |= Cmd;
    a6c8:	00801184 	movi	r2,70
    szCmd[4] |= b4BitsBus?2:0;
    a6cc:	d9000105 	stb	r4,4(sp)
    crc = crc7(0, szCmd, 5);
    a6d0:	01800144 	movi	r6,5
    a6d4:	0009883a 	mov	r4,zero
    return bSuccess;
}

// SET_BUS_WIDTH
// Response: R1
bool SD_ACMD6(bool b4BitsBus, alt_u8 ExpectedState){
    a6d8:	2821883a 	mov	r16,r5
    SDCARD_TRACE(("ACMD6\r\n"));

    // build packet    
    szCmd[0] |= Cmd;
    szCmd[4] |= b4BitsBus?2:0;
    crc = crc7(0, szCmd, 5);
    a6dc:	d80b883a 	mov	r5,sp
    return bSuccess;
}

// SET_BUS_WIDTH
// Response: R1
bool SD_ACMD6(bool b4BitsBus, alt_u8 ExpectedState){
    a6e0:	dfc00615 	stw	ra,24(sp)
    a6e4:	dc800515 	stw	r18,20(sp)
    a6e8:	dc400415 	stw	r17,16(sp)

    bool bSuccess;
    
    alt_u8 szResponse[6];  // Response: R1, see section 4.9.4 (OCR Register)
    const alt_u8 Cmd = 6;
    alt_u8 szCmd[6]  = {0x40,0x00,0x00,0x00,0x00, 0x00}, crc; 
    a6ec:	d8000045 	stb	zero,1(sp)
    a6f0:	d8000085 	stb	zero,2(sp)
    a6f4:	d80000c5 	stb	zero,3(sp)
    a6f8:	d8000145 	stb	zero,5(sp)

    SDCARD_TRACE(("ACMD6\r\n"));

    // build packet    
    szCmd[0] |= Cmd;
    a6fc:	d8800005 	stb	r2,0(sp)
    szCmd[4] |= b4BitsBus?2:0;
    crc = crc7(0, szCmd, 5);
    a700:	00094880 	call	9488 <crc7>
    szCmd[5] = (crc << 1) | 0x01;
    a704:	10803fcc 	andi	r2,r2,255
    
    
    SDHAL_SendCmd(szCmd, sizeof(szCmd));
    a708:	04800184 	movi	r18,6

    // build packet    
    szCmd[0] |= Cmd;
    szCmd[4] |= b4BitsBus?2:0;
    crc = crc7(0, szCmd, 5);
    szCmd[5] = (crc << 1) | 0x01;
    a70c:	1085883a 	add	r2,r2,r2
    a710:	10800054 	ori	r2,r2,1
    
    
    SDHAL_SendCmd(szCmd, sizeof(szCmd));
    a714:	900b883a 	mov	r5,r18
    a718:	d809883a 	mov	r4,sp

    // build packet    
    szCmd[0] |= Cmd;
    szCmd[4] |= b4BitsBus?2:0;
    crc = crc7(0, szCmd, 5);
    szCmd[5] = (crc << 1) | 0x01;
    a71c:	d8800145 	stb	r2,5(sp)
    
    
    SDHAL_SendCmd(szCmd, sizeof(szCmd));
    a720:	00096300 	call	9630 <SDHAL_SendCmd>
    
    bSuccess = SDHAL_GetResponse(szResponse, sizeof(szResponse));
    a724:	900b883a 	mov	r5,r18
    a728:	dc89883a 	add	r4,sp,r18
    a72c:	00096d40 	call	96d4 <SDHAL_GetResponse>
    
    if (bSuccess){
    a730:	10001426 	beq	r2,zero,a784 <SD_ACMD6+0xcc>
    a734:	1023883a 	mov	r17,r2
        alt_u32 CardStatus, ExpectedStatus;
        // check command
        if (bSuccess && szResponse[0] != Cmd){
    a738:	d8800183 	ldbu	r2,6(sp)
    a73c:	14800126 	beq	r2,r18,a744 <SD_ACMD6+0x8c>
            SDCARD_DEBUG(("CMD%d Response: Invalid reserved bits\r\n", Cmd));
            bSuccess = FALSE;
    a740:	0023883a 	mov	r17,zero
        }
        
        // [1]~[4]: CardStatus
        CardStatus = ArrayToU32(&szResponse[1]);
        ExpectedStatus = SD_BIT_APP_CMD | SD_BIT_READY_FOR_DATA | SD_CURRENT_STATE_ENCODE(ExpectedState);
        if (CardStatus != ExpectedStatus){
    a744:	840003cc 	andi	r16,r16,15
    a748:	8020927a 	slli	r16,r16,9
            SDCARD_DEBUG(("CMD%d Response: Invalid reserved bits\r\n", Cmd));
            bSuccess = FALSE;
        }
        
        // [1]~[4]: CardStatus
        CardStatus = ArrayToU32(&szResponse[1]);
    a74c:	d90001c4 	addi	r4,sp,7
    a750:	000a3f40 	call	a3f4 <ArrayToU32>
        ExpectedStatus = SD_BIT_APP_CMD | SD_BIT_READY_FOR_DATA | SD_CURRENT_STATE_ENCODE(ExpectedState);
        if (CardStatus != ExpectedStatus){
    a754:	84004814 	ori	r16,r16,288
    a758:	14000a1e 	bne	r2,r16,a784 <SD_ACMD6+0xcc>
            SDCARD_DEBUG(("CMD%d Response: unexpected stauts\r\n", Cmd));
            bSuccess = FALSE;
        }
                
        // check crc
        if (bSuccess){
    a75c:	88000926 	beq	r17,zero,a784 <SD_ACMD6+0xcc>
            alt_u8 crc;
            crc = crc7(0, szResponse, 5);
    a760:	0009883a 	mov	r4,zero
    a764:	01800144 	movi	r6,5
    a768:	d9400184 	addi	r5,sp,6
    a76c:	00094880 	call	9488 <crc7>
            if (crc != (szResponse[5] >> 1)){
    a770:	d8c002c3 	ldbu	r3,11(sp)
    a774:	10803fcc 	andi	r2,r2,255
    a778:	19003fcc 	andi	r4,r3,255
    a77c:	2008d07a 	srli	r4,r4,1
    a780:	11000226 	beq	r2,r4,a78c <SD_ACMD6+0xd4>
        }            
        
        // check end-bits
        if (bSuccess && ((szResponse[5] & 0x01) != 0x01)){
            SDCARD_DEBUG(("CMD%d Response: Invalid end-bits\r\n", Cmd));
            bSuccess = FALSE;
    a784:	0023883a 	mov	r17,zero
    a788:	00000206 	br	a794 <SD_ACMD6+0xdc>
                bSuccess = FALSE;
            }
        }            
        
        // check end-bits
        if (bSuccess && ((szResponse[5] & 0x01) != 0x01)){
    a78c:	18c0004c 	andi	r3,r3,1
    a790:	183ffc26 	beq	r3,zero,a784 <_gp+0xffff45b8>
          
    }      
    

    return bSuccess;
}
    a794:	8805883a 	mov	r2,r17
    a798:	dfc00617 	ldw	ra,24(sp)
    a79c:	dc800517 	ldw	r18,20(sp)
    a7a0:	dc400417 	ldw	r17,16(sp)
    a7a4:	dc000317 	ldw	r16,12(sp)
    a7a8:	dec00704 	addi	sp,sp,28
    a7ac:	f800283a 	ret

0000a7b0 <SD_ACMD42>:

// SET_CLR_CARD_DETECT
// Response: R1
bool SD_ACMD42(bool b4BitsBus, alt_u8 ExpectedState){
    a7b0:	defffa04 	addi	sp,sp,-24

    SDCARD_TRACE(("ACMD42\r\n"));

    // build packet    
    szCmd[0] |= Cmd;
    szCmd[4] |= b4BitsBus?1:0;
    a7b4:	2008c03a 	cmpne	r4,r4,zero
    return bSuccess;
}

// SET_CLR_CARD_DETECT
// Response: R1
bool SD_ACMD42(bool b4BitsBus, alt_u8 ExpectedState){
    a7b8:	dc000315 	stw	r16,12(sp)
    alt_u8 szCmd[6]  = {0x40,0x00,0x00,0x00,0x00, 0x00}, crc; 

    SDCARD_TRACE(("ACMD42\r\n"));

    // build packet    
    szCmd[0] |= Cmd;
    a7bc:	00801a84 	movi	r2,106
    szCmd[4] |= b4BitsBus?1:0;
    a7c0:	d9000105 	stb	r4,4(sp)
    crc = crc7(0, szCmd, 5);
    a7c4:	01800144 	movi	r6,5
    a7c8:	0009883a 	mov	r4,zero
    return bSuccess;
}

// SET_CLR_CARD_DETECT
// Response: R1
bool SD_ACMD42(bool b4BitsBus, alt_u8 ExpectedState){
    a7cc:	2821883a 	mov	r16,r5
    SDCARD_TRACE(("ACMD42\r\n"));

    // build packet    
    szCmd[0] |= Cmd;
    szCmd[4] |= b4BitsBus?1:0;
    crc = crc7(0, szCmd, 5);
    a7d0:	d80b883a 	mov	r5,sp
    return bSuccess;
}

// SET_CLR_CARD_DETECT
// Response: R1
bool SD_ACMD42(bool b4BitsBus, alt_u8 ExpectedState){
    a7d4:	dfc00515 	stw	ra,20(sp)
    a7d8:	dc400415 	stw	r17,16(sp)

    bool bSuccess;
    
    alt_u8 szResponse[6];  // Response: R1, see section 4.9.4 (OCR Register)
    const alt_u8 Cmd = 42;
    alt_u8 szCmd[6]  = {0x40,0x00,0x00,0x00,0x00, 0x00}, crc; 
    a7dc:	d8000045 	stb	zero,1(sp)
    a7e0:	d8000085 	stb	zero,2(sp)
    a7e4:	d80000c5 	stb	zero,3(sp)
    a7e8:	d8000145 	stb	zero,5(sp)

    SDCARD_TRACE(("ACMD42\r\n"));

    // build packet    
    szCmd[0] |= Cmd;
    a7ec:	d8800005 	stb	r2,0(sp)
    szCmd[4] |= b4BitsBus?1:0;
    crc = crc7(0, szCmd, 5);
    a7f0:	00094880 	call	9488 <crc7>
    szCmd[5] = (crc << 1) | 0x01;
    a7f4:	10803fcc 	andi	r2,r2,255
    a7f8:	1085883a 	add	r2,r2,r2
    a7fc:	10800054 	ori	r2,r2,1
    
    
    SDHAL_SendCmd(szCmd, sizeof(szCmd));
    a800:	01400184 	movi	r5,6
    a804:	d809883a 	mov	r4,sp

    // build packet    
    szCmd[0] |= Cmd;
    szCmd[4] |= b4BitsBus?1:0;
    crc = crc7(0, szCmd, 5);
    szCmd[5] = (crc << 1) | 0x01;
    a808:	d8800145 	stb	r2,5(sp)
    
    
    SDHAL_SendCmd(szCmd, sizeof(szCmd));
    a80c:	00096300 	call	9630 <SDHAL_SendCmd>
    
    bSuccess = SDHAL_GetResponse(szResponse, sizeof(szResponse));
    a810:	01400184 	movi	r5,6
    a814:	d949883a 	add	r4,sp,r5
    a818:	00096d40 	call	96d4 <SDHAL_GetResponse>
    
    if (bSuccess){
    a81c:	10001526 	beq	r2,zero,a874 <SD_ACMD42+0xc4>
        alt_u32 CardStatus, ExpectedStatus;
        // check command
        if (bSuccess && szResponse[0] != Cmd){
    a820:	d8c00183 	ldbu	r3,6(sp)
    a824:	1023883a 	mov	r17,r2
    a828:	00800a84 	movi	r2,42
    a82c:	18800126 	beq	r3,r2,a834 <SD_ACMD42+0x84>
            SDCARD_DEBUG(("CMD%d Response: Invalid reserved bits\r\n", Cmd));
            bSuccess = FALSE;
    a830:	0023883a 	mov	r17,zero
        }
        
        // [1]~[4]: CardStatus
        CardStatus = ArrayToU32(&szResponse[1]);
        ExpectedStatus = SD_BIT_APP_CMD | SD_BIT_READY_FOR_DATA | SD_CURRENT_STATE_ENCODE(ExpectedState);
        if (CardStatus != ExpectedStatus){
    a834:	840003cc 	andi	r16,r16,15
    a838:	8020927a 	slli	r16,r16,9
            SDCARD_DEBUG(("CMD%d Response: Invalid reserved bits\r\n", Cmd));
            bSuccess = FALSE;
        }
        
        // [1]~[4]: CardStatus
        CardStatus = ArrayToU32(&szResponse[1]);
    a83c:	d90001c4 	addi	r4,sp,7
    a840:	000a3f40 	call	a3f4 <ArrayToU32>
        ExpectedStatus = SD_BIT_APP_CMD | SD_BIT_READY_FOR_DATA | SD_CURRENT_STATE_ENCODE(ExpectedState);
        if (CardStatus != ExpectedStatus){
    a844:	84004814 	ori	r16,r16,288
    a848:	14000a1e 	bne	r2,r16,a874 <SD_ACMD42+0xc4>
            SDCARD_DEBUG(("CMD%d Response: unexpected stauts\r\n", Cmd));
            bSuccess = FALSE;
        }
                
        // check crc
        if (bSuccess){
    a84c:	88000926 	beq	r17,zero,a874 <SD_ACMD42+0xc4>
            alt_u8 crc;
            crc = crc7(0, szResponse, 5);
    a850:	0009883a 	mov	r4,zero
    a854:	01800144 	movi	r6,5
    a858:	d9400184 	addi	r5,sp,6
    a85c:	00094880 	call	9488 <crc7>
            if (crc != (szResponse[5] >> 1)){
    a860:	d8c002c3 	ldbu	r3,11(sp)
    a864:	10803fcc 	andi	r2,r2,255
    a868:	19003fcc 	andi	r4,r3,255
    a86c:	2008d07a 	srli	r4,r4,1
    a870:	11000226 	beq	r2,r4,a87c <SD_ACMD42+0xcc>
        }            
        
        // check end-bits
        if (bSuccess && ((szResponse[5] & 0x01) != 0x01)){
            SDCARD_DEBUG(("CMD%d Response: Invalid end-bits\r\n", Cmd));
            bSuccess = FALSE;
    a874:	0023883a 	mov	r17,zero
    a878:	00000206 	br	a884 <SD_ACMD42+0xd4>
                bSuccess = FALSE;
            }
        }            
        
        // check end-bits
        if (bSuccess && ((szResponse[5] & 0x01) != 0x01)){
    a87c:	18c0004c 	andi	r3,r3,1
    a880:	183ffc26 	beq	r3,zero,a874 <_gp+0xffff46a8>
          
    }      
    

    return bSuccess;
}
    a884:	8805883a 	mov	r2,r17
    a888:	dfc00517 	ldw	ra,20(sp)
    a88c:	dc400417 	ldw	r17,16(sp)
    a890:	dc000317 	ldw	r16,12(sp)
    a894:	dec00604 	addi	sp,sp,24
    a898:	f800283a 	ret

0000a89c <SD_CMD17>:


// READ_SINGLE_BLOCK
// Response R1
bool SD_CMD17(alt_u32 Addr, alt_u8 ExpectedStatus){
    a89c:	defffb04 	addi	sp,sp,-20
    const alt_u8 Cmd = 17;
    alt_u8 szCmd[6]  = {0x40,0x00,0x00,0x00,0x00, 0x00}, crc;

    SDCARD_TRACE(("CMD17\r\n"));
    // build packet    
    szCmd[0] |= Cmd;
    a8a0:	00801444 	movi	r2,81
    a8a4:	d8800005 	stb	r2,0(sp)
    szCmd[1] |= (Addr >> 24) & 0xFF;
    a8a8:	2004d63a 	srli	r2,r4,24
    szCmd[2] |= (Addr >> 16) & 0xFF;
    szCmd[3] |= (Addr >> 8) & 0xFF;
    szCmd[4] |= Addr & 0xFF;
    a8ac:	d9000105 	stb	r4,4(sp)
    crc = crc7(0, szCmd, 5);
    a8b0:	01800144 	movi	r6,5
    alt_u8 szCmd[6]  = {0x40,0x00,0x00,0x00,0x00, 0x00}, crc;

    SDCARD_TRACE(("CMD17\r\n"));
    // build packet    
    szCmd[0] |= Cmd;
    szCmd[1] |= (Addr >> 24) & 0xFF;
    a8b4:	d8800045 	stb	r2,1(sp)
    szCmd[2] |= (Addr >> 16) & 0xFF;
    a8b8:	2004d43a 	srli	r2,r4,16
    szCmd[3] |= (Addr >> 8) & 0xFF;
    szCmd[4] |= Addr & 0xFF;
    crc = crc7(0, szCmd, 5);
    a8bc:	d80b883a 	mov	r5,sp
}


// READ_SINGLE_BLOCK
// Response R1
bool SD_CMD17(alt_u32 Addr, alt_u8 ExpectedStatus){
    a8c0:	dfc00415 	stw	ra,16(sp)

    SDCARD_TRACE(("CMD17\r\n"));
    // build packet    
    szCmd[0] |= Cmd;
    szCmd[1] |= (Addr >> 24) & 0xFF;
    szCmd[2] |= (Addr >> 16) & 0xFF;
    a8c4:	d8800085 	stb	r2,2(sp)
    szCmd[3] |= (Addr >> 8) & 0xFF;
    a8c8:	2004d23a 	srli	r2,r4,8
    szCmd[4] |= Addr & 0xFF;
    crc = crc7(0, szCmd, 5);
    a8cc:	0009883a 	mov	r4,zero
}


// READ_SINGLE_BLOCK
// Response R1
bool SD_CMD17(alt_u32 Addr, alt_u8 ExpectedStatus){
    a8d0:	dc000315 	stw	r16,12(sp)
    bool bSuccess;
    alt_u8 szResponse[6];
    const alt_u8 Cmd = 17;
    alt_u8 szCmd[6]  = {0x40,0x00,0x00,0x00,0x00, 0x00}, crc;
    a8d4:	d8000145 	stb	zero,5(sp)
    SDCARD_TRACE(("CMD17\r\n"));
    // build packet    
    szCmd[0] |= Cmd;
    szCmd[1] |= (Addr >> 24) & 0xFF;
    szCmd[2] |= (Addr >> 16) & 0xFF;
    szCmd[3] |= (Addr >> 8) & 0xFF;
    a8d8:	d88000c5 	stb	r2,3(sp)
    szCmd[4] |= Addr & 0xFF;
    crc = crc7(0, szCmd, 5);
    a8dc:	00094880 	call	9488 <crc7>
    szCmd[5] = (crc << 1) | 0x01;
    a8e0:	10803fcc 	andi	r2,r2,255
    a8e4:	1085883a 	add	r2,r2,r2
    a8e8:	10800054 	ori	r2,r2,1

    // send package    
    SDHAL_SendCmd(szCmd, sizeof(szCmd));
    a8ec:	01400184 	movi	r5,6
    a8f0:	d809883a 	mov	r4,sp
    szCmd[1] |= (Addr >> 24) & 0xFF;
    szCmd[2] |= (Addr >> 16) & 0xFF;
    szCmd[3] |= (Addr >> 8) & 0xFF;
    szCmd[4] |= Addr & 0xFF;
    crc = crc7(0, szCmd, 5);
    szCmd[5] = (crc << 1) | 0x01;
    a8f4:	d8800145 	stb	r2,5(sp)

    // send package    
    SDHAL_SendCmd(szCmd, sizeof(szCmd));
    a8f8:	00096300 	call	9630 <SDHAL_SendCmd>
  

    // get response  
    bSuccess = SDHAL_GetResponse(szResponse, sizeof(szResponse));
    a8fc:	01400184 	movi	r5,6
    a900:	d949883a 	add	r4,sp,r5
    a904:	00096d40 	call	96d4 <SDHAL_GetResponse>
    
    // check response content
    if (bSuccess){
    a908:	10001326 	beq	r2,zero,a958 <SD_CMD17+0xbc>
        alt_u32 CardStatus, ExpectedStatus;
        // check command
        if (bSuccess && szResponse[0] != Cmd){ 
    a90c:	d8c00183 	ldbu	r3,6(sp)
    a910:	1021883a 	mov	r16,r2
    a914:	00800444 	movi	r2,17
    a918:	18800126 	beq	r3,r2,a920 <SD_CMD17+0x84>
            SDCARD_DEBUG(("CMD%d Response: Invalid strat+tx+reserved bit\r\n", Cmd));
            bSuccess = FALSE;
    a91c:	0021883a 	mov	r16,zero
        }

        // [1]~[4]: 32-bits card status
        CardStatus = ArrayToU32(&szResponse[1]);
    a920:	d90001c4 	addi	r4,sp,7
    a924:	000a3f40 	call	a3f4 <ArrayToU32>
        ExpectedStatus = SD_BIT_READY_FOR_DATA | SD_CURRENT_STATE_ENCODE(SD_STATE_TRAN);
        if (CardStatus != ExpectedStatus){
    a928:	00c24004 	movi	r3,2304
    a92c:	10c00a1e 	bne	r2,r3,a958 <SD_CMD17+0xbc>
            SDCARD_DEBUG(("CMD%d Response: unexpected stauts\r\n", Cmd));
            bSuccess = FALSE;
        }        
        
        // check crc
        if (bSuccess){
    a930:	80000926 	beq	r16,zero,a958 <SD_CMD17+0xbc>
            alt_u8 crc;
            crc = crc7(0, szResponse, 5);
    a934:	0009883a 	mov	r4,zero
    a938:	01800144 	movi	r6,5
    a93c:	d9400184 	addi	r5,sp,6
    a940:	00094880 	call	9488 <crc7>
            if (crc != (szResponse[5] >> 1)){
    a944:	d8c002c3 	ldbu	r3,11(sp)
    a948:	10803fcc 	andi	r2,r2,255
    a94c:	19003fcc 	andi	r4,r3,255
    a950:	2008d07a 	srli	r4,r4,1
    a954:	11000226 	beq	r2,r4,a960 <SD_CMD17+0xc4>
        }            
        
        // check end-bits
        if (bSuccess && ((szResponse[5] & 0x01) != 0x01)){
            SDCARD_DEBUG(("CMD%d Response: Invalid end-bits\r\n", Cmd));
            bSuccess = FALSE;
    a958:	0021883a 	mov	r16,zero
    a95c:	00000206 	br	a968 <SD_CMD17+0xcc>
                bSuccess = FALSE;
            }
        }            
        
        // check end-bits
        if (bSuccess && ((szResponse[5] & 0x01) != 0x01)){
    a960:	18c0004c 	andi	r3,r3,1
    a964:	183ffc26 	beq	r3,zero,a958 <_gp+0xffff478c>
    }
    
     
    
    return bSuccess;
}
    a968:	8005883a 	mov	r2,r16
    a96c:	dfc00417 	ldw	ra,16(sp)
    a970:	dc000317 	ldw	r16,12(sp)
    a974:	dec00504 	addi	sp,sp,20
    a978:	f800283a 	ret

0000a97c <SD_CMD24>:

// WRITE_BLOCK (Single)
// Response R1
bool SD_CMD24(alt_u32 Addr, alt_u8 ExpectedStatus){
    a97c:	defffb04 	addi	sp,sp,-20
    const alt_u8 Cmd = 24;
    alt_u8 szCmd[6]  = {0x40,0x00,0x00,0x00,0x00, 0x00}, crc;

    SDCARD_TRACE(("CMD24\r\n"));
    // build packet    
    szCmd[0] |= Cmd;
    a980:	00801604 	movi	r2,88
    a984:	d8800005 	stb	r2,0(sp)
    szCmd[1] |= (Addr >> 24) & 0xFF;
    a988:	2004d63a 	srli	r2,r4,24
    szCmd[2] |= (Addr >> 16) & 0xFF;
    szCmd[3] |= (Addr >> 8) & 0xFF;
    szCmd[4] |= Addr & 0xFF;
    a98c:	d9000105 	stb	r4,4(sp)
    crc = crc7(0, szCmd, 5);
    a990:	01800144 	movi	r6,5
    alt_u8 szCmd[6]  = {0x40,0x00,0x00,0x00,0x00, 0x00}, crc;

    SDCARD_TRACE(("CMD24\r\n"));
    // build packet    
    szCmd[0] |= Cmd;
    szCmd[1] |= (Addr >> 24) & 0xFF;
    a994:	d8800045 	stb	r2,1(sp)
    szCmd[2] |= (Addr >> 16) & 0xFF;
    a998:	2004d43a 	srli	r2,r4,16
    szCmd[3] |= (Addr >> 8) & 0xFF;
    szCmd[4] |= Addr & 0xFF;
    crc = crc7(0, szCmd, 5);
    a99c:	d80b883a 	mov	r5,sp
    return bSuccess;
}

// WRITE_BLOCK (Single)
// Response R1
bool SD_CMD24(alt_u32 Addr, alt_u8 ExpectedStatus){
    a9a0:	dfc00415 	stw	ra,16(sp)

    SDCARD_TRACE(("CMD24\r\n"));
    // build packet    
    szCmd[0] |= Cmd;
    szCmd[1] |= (Addr >> 24) & 0xFF;
    szCmd[2] |= (Addr >> 16) & 0xFF;
    a9a4:	d8800085 	stb	r2,2(sp)
    szCmd[3] |= (Addr >> 8) & 0xFF;
    a9a8:	2004d23a 	srli	r2,r4,8
    szCmd[4] |= Addr & 0xFF;
    crc = crc7(0, szCmd, 5);
    a9ac:	0009883a 	mov	r4,zero
    return bSuccess;
}

// WRITE_BLOCK (Single)
// Response R1
bool SD_CMD24(alt_u32 Addr, alt_u8 ExpectedStatus){
    a9b0:	dc000315 	stw	r16,12(sp)
    bool bSuccess;
    alt_u8 szResponse[6];
    const alt_u8 Cmd = 24;
    alt_u8 szCmd[6]  = {0x40,0x00,0x00,0x00,0x00, 0x00}, crc;
    a9b4:	d8000145 	stb	zero,5(sp)
    SDCARD_TRACE(("CMD24\r\n"));
    // build packet    
    szCmd[0] |= Cmd;
    szCmd[1] |= (Addr >> 24) & 0xFF;
    szCmd[2] |= (Addr >> 16) & 0xFF;
    szCmd[3] |= (Addr >> 8) & 0xFF;
    a9b8:	d88000c5 	stb	r2,3(sp)
    szCmd[4] |= Addr & 0xFF;
    crc = crc7(0, szCmd, 5);
    a9bc:	00094880 	call	9488 <crc7>
    szCmd[5] = (crc << 1) | 0x01;
    a9c0:	10803fcc 	andi	r2,r2,255
    a9c4:	1085883a 	add	r2,r2,r2
    a9c8:	10800054 	ori	r2,r2,1

    // send package    
    SDHAL_SendCmd(szCmd, sizeof(szCmd));
    a9cc:	01400184 	movi	r5,6
    a9d0:	d809883a 	mov	r4,sp
    szCmd[1] |= (Addr >> 24) & 0xFF;
    szCmd[2] |= (Addr >> 16) & 0xFF;
    szCmd[3] |= (Addr >> 8) & 0xFF;
    szCmd[4] |= Addr & 0xFF;
    crc = crc7(0, szCmd, 5);
    szCmd[5] = (crc << 1) | 0x01;
    a9d4:	d8800145 	stb	r2,5(sp)

    // send package    
    SDHAL_SendCmd(szCmd, sizeof(szCmd));
    a9d8:	00096300 	call	9630 <SDHAL_SendCmd>
  

    // get response  
    bSuccess = SDHAL_GetResponse(szResponse, sizeof(szResponse));
    a9dc:	01400184 	movi	r5,6
    a9e0:	d949883a 	add	r4,sp,r5
    a9e4:	00096d40 	call	96d4 <SDHAL_GetResponse>
    
    // check response content
    if (bSuccess){
    a9e8:	10001326 	beq	r2,zero,aa38 <SD_CMD24+0xbc>
        alt_u32 CardStatus, ExpectedStatus;
        // check command
        if (bSuccess && szResponse[0] != Cmd){ 
    a9ec:	d8c00183 	ldbu	r3,6(sp)
    a9f0:	1021883a 	mov	r16,r2
    a9f4:	00800604 	movi	r2,24
    a9f8:	18800126 	beq	r3,r2,aa00 <SD_CMD24+0x84>
            SDCARD_DEBUG(("CMD%d Response: Invalid strat+tx+reserved bit\r\n", Cmd));
            bSuccess = FALSE;
    a9fc:	0021883a 	mov	r16,zero
        }

        // [1]~[4]: 32-bits card status
        CardStatus = ArrayToU32(&szResponse[1]);
    aa00:	d90001c4 	addi	r4,sp,7
    aa04:	000a3f40 	call	a3f4 <ArrayToU32>
        ExpectedStatus = SD_BIT_READY_FOR_DATA | SD_CURRENT_STATE_ENCODE(SD_STATE_TRAN);
        if (CardStatus != ExpectedStatus){
    aa08:	00c24004 	movi	r3,2304
    aa0c:	10c00a1e 	bne	r2,r3,aa38 <SD_CMD24+0xbc>
            SDCARD_DEBUG(("CMD%d Response: unexpected stauts\r\n", Cmd));
            bSuccess = FALSE;
        }        
        
        // check crc
        if (bSuccess){
    aa10:	80000926 	beq	r16,zero,aa38 <SD_CMD24+0xbc>
            alt_u8 crc;
            crc = crc7(0, szResponse, 5);
    aa14:	0009883a 	mov	r4,zero
    aa18:	01800144 	movi	r6,5
    aa1c:	d9400184 	addi	r5,sp,6
    aa20:	00094880 	call	9488 <crc7>
            if (crc != (szResponse[5] >> 1)){
    aa24:	d8c002c3 	ldbu	r3,11(sp)
    aa28:	10803fcc 	andi	r2,r2,255
    aa2c:	19003fcc 	andi	r4,r3,255
    aa30:	2008d07a 	srli	r4,r4,1
    aa34:	11000226 	beq	r2,r4,aa40 <SD_CMD24+0xc4>
        }            
        
        // check end-bits
        if (bSuccess && ((szResponse[5] & 0x01) != 0x01)){
            SDCARD_DEBUG(("CMD%d Response: Invalid end-bits\r\n", Cmd));
            bSuccess = FALSE;
    aa38:	0021883a 	mov	r16,zero
    aa3c:	00000206 	br	aa48 <SD_CMD24+0xcc>
                bSuccess = FALSE;
            }
        }            
        
        // check end-bits
        if (bSuccess && ((szResponse[5] & 0x01) != 0x01)){
    aa40:	18c0004c 	andi	r3,r3,1
    aa44:	183ffc26 	beq	r3,zero,aa38 <_gp+0xffff486c>
    }
    
     
    
    return bSuccess;
}
    aa48:	8005883a 	mov	r2,r16
    aa4c:	dfc00417 	ldw	ra,16(sp)
    aa50:	dc000317 	ldw	r16,12(sp)
    aa54:	dec00504 	addi	sp,sp,20
    aa58:	f800283a 	ret

0000aa5c <__divsi3>:
    aa5c:	20001b16 	blt	r4,zero,aacc <__divsi3+0x70>
    aa60:	000f883a 	mov	r7,zero
    aa64:	28001616 	blt	r5,zero,aac0 <__divsi3+0x64>
    aa68:	200d883a 	mov	r6,r4
    aa6c:	29001a2e 	bgeu	r5,r4,aad8 <__divsi3+0x7c>
    aa70:	00800804 	movi	r2,32
    aa74:	00c00044 	movi	r3,1
    aa78:	00000106 	br	aa80 <__divsi3+0x24>
    aa7c:	10000d26 	beq	r2,zero,aab4 <__divsi3+0x58>
    aa80:	294b883a 	add	r5,r5,r5
    aa84:	10bfffc4 	addi	r2,r2,-1
    aa88:	18c7883a 	add	r3,r3,r3
    aa8c:	293ffb36 	bltu	r5,r4,aa7c <_gp+0xffff48b0>
    aa90:	0005883a 	mov	r2,zero
    aa94:	18000726 	beq	r3,zero,aab4 <__divsi3+0x58>
    aa98:	0005883a 	mov	r2,zero
    aa9c:	31400236 	bltu	r6,r5,aaa8 <__divsi3+0x4c>
    aaa0:	314dc83a 	sub	r6,r6,r5
    aaa4:	10c4b03a 	or	r2,r2,r3
    aaa8:	1806d07a 	srli	r3,r3,1
    aaac:	280ad07a 	srli	r5,r5,1
    aab0:	183ffa1e 	bne	r3,zero,aa9c <_gp+0xffff48d0>
    aab4:	38000126 	beq	r7,zero,aabc <__divsi3+0x60>
    aab8:	0085c83a 	sub	r2,zero,r2
    aabc:	f800283a 	ret
    aac0:	014bc83a 	sub	r5,zero,r5
    aac4:	39c0005c 	xori	r7,r7,1
    aac8:	003fe706 	br	aa68 <_gp+0xffff489c>
    aacc:	0109c83a 	sub	r4,zero,r4
    aad0:	01c00044 	movi	r7,1
    aad4:	003fe306 	br	aa64 <_gp+0xffff4898>
    aad8:	00c00044 	movi	r3,1
    aadc:	003fee06 	br	aa98 <_gp+0xffff48cc>

0000aae0 <__modsi3>:
    aae0:	20001716 	blt	r4,zero,ab40 <__modsi3+0x60>
    aae4:	000f883a 	mov	r7,zero
    aae8:	2005883a 	mov	r2,r4
