
help.elf:     file format elf32-littlenios2
help.elf
architecture: nios2:r1, flags 0x00000112:
EXEC_P, HAS_SYMS, D_PAGED
start address 0x00008020

Program Header:
    LOAD off    0x00001000 vaddr 0x00008000 paddr 0x00008000 align 2**12
         filesz 0x00000020 memsz 0x00000020 flags r-x
    LOAD off    0x00001020 vaddr 0x00008020 paddr 0x00008020 align 2**12
         filesz 0x0000621c memsz 0x0000621c flags r-x
    LOAD off    0x0000723c vaddr 0x0000e23c paddr 0x0000e33c align 2**12
         filesz 0x00000100 memsz 0x00000100 flags rw-
    LOAD off    0x0000743c vaddr 0x0000e43c paddr 0x0000e43c align 2**12
         filesz 0x00000000 memsz 0x00000058 flags rw-

Sections:
Idx Name          Size      VMA       LMA       File off  Algn
  0 .entry        00000020  00008000  00008000  00001000  2**5
                  CONTENTS, ALLOC, LOAD, READONLY, CODE
  1 .exceptions   00000000  00008020  00008020  0000733c  2**0
                  CONTENTS
  2 .text         00005a14  00008020  00008020  00001020  2**2
                  CONTENTS, ALLOC, LOAD, READONLY, CODE
  3 .rodata       00000808  0000da34  0000da34  00006a34  2**2
                  CONTENTS, ALLOC, LOAD, READONLY, DATA
  4 .rwdata       00000100  0000e23c  0000e33c  0000723c  2**2
                  CONTENTS, ALLOC, LOAD, DATA, SMALL_DATA
  5 .bss          00000058  0000e43c  0000e43c  0000743c  2**2
                  ALLOC, SMALL_DATA
  6 .onchip_memory2_0 00000000  0000e494  0000e494  0000733c  2**0
                  CONTENTS
  7 .comment      00000023  00000000  00000000  0000733c  2**0
                  CONTENTS, READONLY
  8 .debug_aranges 00000740  00000000  00000000  00007360  2**3
                  CONTENTS, READONLY, DEBUGGING
  9 .debug_info   0000eba5  00000000  00000000  00007aa0  2**0
                  CONTENTS, READONLY, DEBUGGING
 10 .debug_abbrev 00004735  00000000  00000000  00016645  2**0
                  CONTENTS, READONLY, DEBUGGING
 11 .debug_line   0000520c  00000000  00000000  0001ad7a  2**0
                  CONTENTS, READONLY, DEBUGGING
 12 .debug_frame  0000129c  00000000  00000000  0001ff88  2**2
                  CONTENTS, READONLY, DEBUGGING
 13 .debug_str    00002b06  00000000  00000000  00021224  2**0
                  CONTENTS, READONLY, DEBUGGING
 14 .debug_loc    00008639  00000000  00000000  00023d2a  2**0
                  CONTENTS, READONLY, DEBUGGING
 15 .debug_alt_sim_info 00000040  00000000  00000000  0002c364  2**2
                  CONTENTS, READONLY, DEBUGGING
 16 .debug_ranges 00000850  00000000  00000000  0002c3a8  2**3
                  CONTENTS, READONLY, DEBUGGING
 17 .thread_model 00000003  00000000  00000000  0002ed36  2**0
                  CONTENTS, READONLY
 18 .cpu          0000000c  00000000  00000000  0002ed39  2**0
                  CONTENTS, READONLY
 19 .qsys         00000001  00000000  00000000  0002ed45  2**0
                  CONTENTS, READONLY
 20 .simulation_enabled 00000001  00000000  00000000  0002ed46  2**0
                  CONTENTS, READONLY
 21 .stderr_dev   0000000b  00000000  00000000  0002ed47  2**0
                  CONTENTS, READONLY
 22 .stdin_dev    0000000b  00000000  00000000  0002ed52  2**0
                  CONTENTS, READONLY
 23 .stdout_dev   0000000b  00000000  00000000  0002ed5d  2**0
                  CONTENTS, READONLY
 24 .sopc_system_name 00000004  00000000  00000000  0002ed68  2**0
                  CONTENTS, READONLY
 25 .quartus_project_dir 0000003a  00000000  00000000  0002ed6c  2**0
                  CONTENTS, READONLY
 26 .jdi          00004c49  00000000  00000000  0002eda6  2**0
                  CONTENTS, READONLY
 27 .sopcinfo     0006ac47  00000000  00000000  000339ef  2**0
                  CONTENTS, READONLY
SYMBOL TABLE:
00008000 l    d  .entry	00000000 .entry
00008020 l    d  .exceptions	00000000 .exceptions
00008020 l    d  .text	00000000 .text
0000da34 l    d  .rodata	00000000 .rodata
0000e23c l    d  .rwdata	00000000 .rwdata
0000e43c l    d  .bss	00000000 .bss
0000e494 l    d  .onchip_memory2_0	00000000 .onchip_memory2_0
00000000 l    d  .comment	00000000 .comment
00000000 l    d  .debug_aranges	00000000 .debug_aranges
00000000 l    d  .debug_info	00000000 .debug_info
00000000 l    d  .debug_abbrev	00000000 .debug_abbrev
00000000 l    d  .debug_line	00000000 .debug_line
00000000 l    d  .debug_frame	00000000 .debug_frame
00000000 l    d  .debug_str	00000000 .debug_str
00000000 l    d  .debug_loc	00000000 .debug_loc
00000000 l    d  .debug_alt_sim_info	00000000 .debug_alt_sim_info
00000000 l    d  .debug_ranges	00000000 .debug_ranges
00000000 l    df *ABS*	00000000 ../help_bsp//obj/HAL/src/crt0.o
00008058 l       .text	00000000 alt_after_alt_main
00000000 l    df *ABS*	00000000 hello_world_small.c
00000000 l    df *ABS*	00000000 FatFileSystem.c
00000000 l    df *ABS*	00000000 FatInternal.c
00000000 l    df *ABS*	00000000 crc16.c
0000dbac l     O .rodata	00000200 crc16tab
00000000 l    df *ABS*	00000000 crc7.c
0000ddac l     O .rodata	00000100 crc7_syndrome_table
00000000 l    df *ABS*	00000000 debug.c
00000000 l    df *ABS*	00000000 sd_hal.c
00000000 l    df *ABS*	00000000 sd_lib.c
0000e45c l     O .bss	00000038 gSdInfo
00000000 l    df *ABS*	00000000 sd_protocol.c
00000000 l    df *ABS*	00000000 lib2-divmod.c
00000000 l    df *ABS*	00000000 lib2-mul.c
00000000 l    df *ABS*	00000000 divsf3.c
00000000 l    df *ABS*	00000000 mulsf3.c
00000000 l    df *ABS*	00000000 floatunsisf.c
00000000 l    df *ABS*	00000000 muldf3.c
00000000 l    df *ABS*	00000000 extendsfdf2.c
00000000 l    df *ABS*	00000000 truncdfsf2.c
00000000 l    df *ABS*	00000000 libgcc2.c
00000000 l    df *ABS*	00000000 libgcc2.c
00000000 l    df *ABS*	00000000 malloc.c
00000000 l    df *ABS*	00000000 memcpy.c
00000000 l    df *ABS*	00000000 memset.c
00000000 l    df *ABS*	00000000 nano-mallocr.c
00000000 l    df *ABS*	00000000 nano-mallocr.c
00000000 l    df *ABS*	00000000 printf.c
00000000 l    df *ABS*	00000000 putchar.c
00000000 l    df *ABS*	00000000 puts.c
00000000 l    df *ABS*	00000000 sbrkr.c
00000000 l    df *ABS*	00000000 sprintf.c
00000000 l    df *ABS*	00000000 strcasecmp.c
00000000 l    df *ABS*	00000000 strlen.c
00000000 l    df *ABS*	00000000 vfprintf.c
0000c780 l     F .text	0000006c print_repeat
00000000 l    df *ABS*	00000000 vfprintf.c
0000cd34 l     F .text	0000006c print_repeat
00000000 l    df *ABS*	00000000 vsnprintf.c
00000000 l    df *ABS*	00000000 ctype_.c
0000e0bc l     O .rodata	00000180 _ctype_b
00000000 l    df *ABS*	00000000 fvwrite_small_dev.c
00000000 l    df *ABS*	00000000 fvwrite_small_str.c
00000000 l    df *ABS*	00000000 impure.c
0000e23c l     O .rwdata	000000e0 impure_data
00000000 l    df *ABS*	00000000 int_errno.c
00000000 l    df *ABS*	00000000 memmove.c
00000000 l    df *ABS*	00000000 putc.c
00000000 l    df *ABS*	00000000 writer.c
00000000 l    df *ABS*	00000000 alt_load.c
00000000 l    df *ABS*	00000000 alt_main.c
00000000 l    df *ABS*	00000000 alt_sbrk.c
0000e328 l     O .rwdata	00000004 heap_end
00000000 l    df *ABS*	00000000 alt_tick.c
00000000 l    df *ABS*	00000000 alt_usleep.c
00000000 l    df *ABS*	00000000 alt_write.c
00000000 l    df *ABS*	00000000 alt_sys_init.c
00000000 l    df *ABS*	00000000 altera_avalon_jtag_uart_write.c
00000000 l    df *ABS*	00000000 alt_busy_sleep.c
00000000 l    df *ABS*	00000000 alt_dcache_flush_all.c
00000000 l    df *ABS*	00000000 alt_errno.c
00000000 l    df *ABS*	00000000 alt_icache_flush_all.c
00000000 l    df *ABS*	00000000 altera_nios2_gen2_irq.c
0000c530 g     F .text	0000001c putchar
0000d77c g     F .text	0000002c alt_main
0000c54c g     F .text	00000080 _puts_r
000082ec g     F .text	00000028 Fat_FileBrowseBegin
0000e33c g       *ABS*	00000000 __flash_rwdata_start
00009e44 g     F .text	00000058 SDLIB_WriteBlock512
0000e494 g       *ABS*	00000000 __alt_heap_start
0000c4dc g     F .text	0000004c printf
0000aa50 g     F .text	000000e0 SD_CMD24
000083ec g     F .text	000002a0 Fat_FileBrowseNext
0000ad0c g     F .text	00000440 .hidden __divsf3
000096b4 g     F .text	00000008 SDHAL_IsSupport4Bits
00009538 g     F .text	00000024 crc7_byte
00008d50 g     F .text	00000060 fatIsValidDir
0000d538 g     F .text	00000060 memmove
0000da2c g     F .text	00000008 altera_nios2_gen2_irq_init
0000d490 g     F .text	000000a8 __sfvwrite_small_str
00008000 g     F .entry	0000000c __reset
000097a8 g     F .text	000000e0 SDHAL_GetResponse
00008020 g       *ABS*	00000000 __flash_exceptions_start
0000e444 g     O .bss	00000004 errno
00008e54 g     F .text	00000104 fatNextCluster
0000e44c g     O .bss	00000004 alt_argv
0001631c g       *ABS*	00000000 _gp
0000d8e0 g     F .text	00000004 usleep
0000c528 g     F .text	00000008 _putchar_r
0000c21c g     F .text	00000028 memcpy
00008ab8 g     F .text	0000007c Fat_FileExist
0000c5cc g     F .text	00000014 puts
0000a0d8 g     F .text	00000108 SD_CMD2
0000c1f4 g     F .text	00000014 malloc
0000c4a0 g     F .text	0000003c _printf_r
00008000 g       *ABS*	00000000 __alt_mem_onchip_memory2_0
0000ac28 g     F .text	00000064 .hidden __udivsi3
0000a884 g     F .text	000000ec SD_ACMD42
0000d3a4 g     F .text	00000034 vsnprintf
0000a5d4 g     F .text	000000d8 SD_CMD7
0000c5e0 g     F .text	00000050 _sbrk_r
0000a6ac g     F .text	000000e0 SD_CMD16
0000a4c8 g     F .text	00000020 ArrayToU32
000092d4 g     F .text	00000190 fatMount
0000bed8 g     F .text	00000110 .hidden __extendsfdf2
00008db0 g     F .text	0000000c fatIsUnusedDir
0000e320 g     O .rwdata	00000004 _global_impure_ptr
0000e494 g       *ABS*	00000000 __bss_end
0000d828 g     F .text	000000b8 alt_tick
00008c5c g     F .text	0000000c SD_ReadBlock512
000086d4 g     F .text	000000c4 Fat_FileOpen
0000d7f4 g     F .text	00000034 alt_alarm_stop
00009068 g     F .text	00000154 fatDelClusterList
00009704 g     F .text	0000007c SDHAL_SendCmd
0000da24 g     F .text	00000004 alt_dcache_flush_all
00009888 g     F .text	00000298 SDHAL_ReadData
0000e33c g       *ABS*	00000000 __ram_rwdata_end
000082a4 g     F .text	00000010 Fat_Mount
0000d8e4 g     F .text	00000060 write
0000d5ec g     F .text	00000058 _putc_r
0000e23c g       *ABS*	00000000 __ram_rodata_end
0000e334 g     O .rwdata	00000004 jtag_uart_0
00009598 g     F .text	0000004c myprintf
0000ac8c g     F .text	00000058 .hidden __umodsi3
0000e494 g       *ABS*	00000000 end
00010000 g       *ABS*	00000000 __alt_stack_pointer
0000c190 g     F .text	00000064 .hidden __clzsi2
0000d968 g     F .text	00000034 altera_avalon_jtag_uart_write
00008aac g     F .text	0000000c Fat_FileClose
0000868c g     F .text	00000048 Fat_FileCount
0000cda0 g     F .text	0000052c ___vfprintf_internal_r
0000c630 g     F .text	00000064 _sprintf_r
0000c264 g     F .text	000000e4 _free_r
00008020 g     F .text	0000003c _start
0000e458 g     O .bss	00000004 _alt_tick_rate
0000e454 g     O .bss	00000004 _alt_nticks
00009ea4 g     F .text	00000064 SD_CMD0
0000d964 g     F .text	00000004 alt_sys_init
00009780 g     F .text	00000028 SDHAL_DummyClock
00008798 g     F .text	00000018 Fat_FileSize
000094f0 g     F .text	00000048 crc16
00009e9c g     F .text	00000004 SD_Init
0000ace4 g     F .text	00000028 .hidden __mulsi3
0000e23c g       *ABS*	00000000 __ram_rwdata_start
0000da34 g       *ABS*	00000000 __ram_rodata_start
0000c70c g     F .text	00000058 strcasecmp
0000d99c g     F .text	00000088 alt_busy_sleep
000087b0 g     F .text	00000290 Fat_FileRead
0000e494 g       *ABS*	00000000 __alt_stack_base
0000922c g     F .text	000000a8 fatFindUnusedDirectory
000096bc g     F .text	00000048 SDHAL_Init
0000d2e8 g     F .text	000000bc _vsnprintf_r
0000b66c g     F .text	0000086c .hidden __muldf3
00008b34 g     F .text	00000128 Fat_SpeedTest
0000d7a8 g     F .text	0000004c sbrk
0000c7ec g     F .text	0000052c ___svfprintf_internal_r
0000d3d8 g     F .text	000000b8 __sfvwrite_small_dev
000091bc g     F .text	00000070 fatFindDirectory
0000e43c g       *ABS*	00000000 __bss_start
0000c244 g     F .text	00000020 memset
00008218 g     F .text	0000008c main
00008de8 g     F .text	0000006c fatReadSecter
0000e448 g     O .bss	00000004 alt_envp
000095e4 g     F .text	00000068 myprintf_hexarray
00008dbc g     F .text	00000004 fatDump
00010000 g       *ABS*	00000000 __alt_heap_limit
0000bfe8 g     F .text	000001a8 .hidden __truncdfsf2
0000c348 g     F .text	00000158 _malloc_r
0000a4c4 g     F .text	00000004 SD_WriteData
0000e338 g     O .rwdata	00000004 alt_errno
00008d3c g     F .text	00000004 fatDumpDate
0000955c g     F .text	00000038 crc7
0000d598 g     F .text	00000054 putc
00008a40 g     F .text	0000006c Fat_FileSeek
0000ab30 g     F .text	00000084 .hidden __divsi3
0000a78c g     F .text	000000f8 SD_ACMD6
0000b14c g     F .text	00000430 .hidden __mulsf3
00008c68 g     F .text	0000000c SD_WriteBlock512
0000da34 g       *ABS*	00000000 __flash_rodata_start
00008dc0 g     F .text	00000028 fatArray2Value
00009ea0 g     F .text	00000004 SD_IsSupport4Bits
00008cd0 g     F .text	0000006c fat32ClusterType
0000d944 g     F .text	00000020 alt_irq_init
0000c694 g     F .text	00000078 sprintf
0000debb g     O .rodata	00000100 .hidden __clz_tab
00009594 g     F .text	00000004 debug_output
00009ff8 g     F .text	000000e0 SD_ACMD41
0000d644 g     F .text	00000058 _write_r
00009f08 g     F .text	000000f0 SD_CMD8
00008348 g     F .text	000000a4 fatComposeShortFilename
0000e324 g     O .rwdata	00000004 _impure_ptr
0000e450 g     O .bss	00000004 alt_argc
000082c0 g     F .text	0000002c Fat_Type
0000964c g     F .text	00000068 myprintf_dwordarray
0000805c g     F .text	000001bc Fat_Test
00008c74 g     F .text	0000005c fat16ClusterType
0000a4e8 g     F .text	000000ec SD_CMD55
0000cd18 g     F .text	0000001c __vfprintf_internal_unused
0000a3d0 g     F .text	000000f0 SD_CMD10
00008020 g       *ABS*	00000000 __ram_exceptions_start
00008314 g     F .text	00000034 fatSameLongFilename
0000e33c g       *ABS*	00000000 _edata
00008d40 g     F .text	00000004 fatDumpTime
0000e494 g       *ABS*	00000000 _end
0000a2e0 g     F .text	000000f0 SD_CMD9
00008020 g       *ABS*	00000000 __ram_exceptions_end
00009464 g     F .text	0000008c fatMountSdcard
0000b57c g     F .text	000000f0 .hidden __floatunsisf
0000abb4 g     F .text	00000074 .hidden __modsi3
0000e31c g     O .rwdata	00000004 __ctype_ptr__
00010000 g       *ABS*	00000000 __alt_data_end
00009c00 g     F .text	000001ec SDLIB_Init
0000dfbb g     O .rodata	00000101 _ctype_
0000a970 g     F .text	000000e0 SD_CMD17
0000800c g       .entry	00000000 _exit
0000c764 g     F .text	0000001c strlen
0000e43c g     O .bss	00000004 __malloc_sbrk_start
0000da28 g     F .text	00000004 alt_icache_flush_all
0000e440 g     O .bss	00000004 __malloc_free_list
00009b20 g     F .text	000000e0 SDHAL_WriteData
0000d2cc g     F .text	0000001c __vfprintf_internal
00008f58 g     F .text	00000110 fatFindUnusedCluster
0000e32c g     O .rwdata	00000008 alt_alarm_list
0000a4c0 g     F .text	00000004 SD_ReadData
000082b4 g     F .text	0000000c Fat_Unmount
0000d69c g     F .text	000000e0 alt_load
0000c208 g     F .text	00000014 free
00008d44 g     F .text	0000000c fatIsLastDir
0000a1e0 g     F .text	00000100 SD_CMD3
00009dec g     F .text	00000058 SDLIB_ReadBlock512



Disassembly of section .entry:

00008000 <__reset>:
 * Jump to the _start entry point in the .text section if reset code
 * is allowed or if optimizing for RTL simulation.
 */
#if defined(ALT_ALLOW_CODE_AT_RESET) || defined(ALT_SIM_OPTIMIZE)
    /* Jump to the _start entry point in the .text section. */
    movhi r1, %hi(_start)
    8000:	00400034 	movhi	at,0
    ori r1, r1, %lo(_start)
    8004:	08600814 	ori	at,at,32800
    jmp r1
    8008:	0800683a 	jmp	at

0000800c <_exit>:
	...

Disassembly of section .text:

00008020 <_start>:

    /*
     * Now that the caches are initialized, set up the stack pointer and global pointer.
     * The values provided by the linker are assumed to be correctly aligned.
     */
    movhi sp, %hi(__alt_stack_pointer)
    8020:	06c00074 	movhi	sp,1
    ori sp, sp, %lo(__alt_stack_pointer)
    8024:	dec00014 	ori	sp,sp,0
    movhi gp, %hi(_gp)
    8028:	06800074 	movhi	gp,1
    ori gp, gp, %lo(_gp)
    802c:	d698c714 	ori	gp,gp,25372
 */
#ifndef ALT_SIM_OPTIMIZE
    /* Log that the BSS is about to be cleared. */
    ALT_LOG_PUTS(alt_log_msg_bss)

    movhi r2, %hi(__bss_start)
    8030:	00800034 	movhi	r2,0
    ori r2, r2, %lo(__bss_start)
    8034:	10b90f14 	ori	r2,r2,58428

    movhi r3, %hi(__bss_end)
    8038:	00c00034 	movhi	r3,0
    ori r3, r3, %lo(__bss_end)
    803c:	18f92514 	ori	r3,r3,58516

    beq r2, r3, 1f
    8040:	10c00326 	beq	r2,r3,8050 <_start+0x30>

0:
    stw zero, (r2)
    8044:	10000015 	stw	zero,0(r2)
    addi r2, r2, 4
    8048:	10800104 	addi	r2,r2,4
    bltu r2, r3, 0b
    804c:	10fffd36 	bltu	r2,r3,8044 <_gp+0xffff1d28>
     * section aren't defined until alt_load() has been called).
     */
    mov   et, zero
#endif

    call alt_load
    8050:	000d69c0 	call	d69c <alt_load>

    /* Log that alt_main is about to be called. */
    ALT_LOG_PUTS(alt_log_msg_alt_main)

    /* Call the C entry point. It should never return. */
    call alt_main
    8054:	000d77c0 	call	d77c <alt_main>

00008058 <alt_after_alt_main>:

    /* Wait in infinite loop in case alt_main does return. */
alt_after_alt_main:
    br alt_after_alt_main
    8058:	003fff06 	br	8058 <_gp+0xffff1d3c>

0000805c <Fat_Test>:
//{
//	alt_putstr("jemama");
//	return 0;
//}

bool Fat_Test(FAT_HANDLE hFat, char *pDumpFile){
    805c:	deff6b04 	addi	sp,sp,-596
    8060:	dc008c15 	stw	r16,560(sp)
    8064:	2821883a 	mov	r16,r5
    bool bSuccess;
    int nCount = 0;
    FAT_BROWSE_HANDLE hBrowse;
    FILE_CONTEXT FileContext;

    bSuccess = Fat_FileBrowseBegin(hFat, &hBrowse);
    8068:	d9408a04 	addi	r5,sp,552
//{
//	alt_putstr("jemama");
//	return 0;
//}

bool Fat_Test(FAT_HANDLE hFat, char *pDumpFile){
    806c:	dd009015 	stw	r20,576(sp)
    8070:	dc808e15 	stw	r18,568(sp)
    8074:	dfc09415 	stw	ra,592(sp)
    8078:	ddc09315 	stw	r23,588(sp)
    807c:	dd809215 	stw	r22,584(sp)
    8080:	dd409115 	stw	r21,580(sp)
    8084:	dcc08f15 	stw	r19,572(sp)
    8088:	dc408d15 	stw	r17,564(sp)
    808c:	2029883a 	mov	r20,r4
    bool bSuccess;
    int nCount = 0;
    FAT_BROWSE_HANDLE hBrowse;
    FILE_CONTEXT FileContext;

    bSuccess = Fat_FileBrowseBegin(hFat, &hBrowse);
    8090:	00082ec0 	call	82ec <Fat_FileBrowseBegin>
    8094:	1025883a 	mov	r18,r2
    if (bSuccess){
    8098:	10005326 	beq	r2,zero,81e8 <Fat_Test+0x18c>
    809c:	0027883a 	mov	r19,zero
        while(Fat_FileBrowseNext(&hBrowse, &FileContext)){
    80a0:	d80b883a 	mov	r5,sp
    80a4:	d9008a04 	addi	r4,sp,552
    80a8:	00083ec0 	call	83ec <Fat_FileBrowseNext>
    80ac:	10001b26 	beq	r2,zero,811c <Fat_Test+0xc0>
            if (FileContext.bLongFilename){
    80b0:	d8804017 	ldw	r2,256(sp)
    80b4:	10001226 	beq	r2,zero,8100 <Fat_Test+0xa4>
                alt_u16 *pData16;
                alt_u8 *pData8;
                pData16 = (alt_u16 *)FileContext.szName;
                pData8 = FileContext.szName;
                printf("[%d]", nCount);
    80b8:	01000074 	movhi	r4,1
    80bc:	980b883a 	mov	r5,r19
    80c0:	21368d04 	addi	r4,r4,-9676
    80c4:	000c4dc0 	call	c4dc <printf>
    if (bSuccess){
        while(Fat_FileBrowseNext(&hBrowse, &FileContext)){
            if (FileContext.bLongFilename){
                alt_u16 *pData16;
                alt_u8 *pData8;
                pData16 = (alt_u16 *)FileContext.szName;
    80c8:	d823883a 	mov	r17,sp
                pData8 = FileContext.szName;
                printf("[%d]", nCount);
                while(*pData16){
    80cc:	8880000b 	ldhu	r2,0(r17)
    80d0:	10000826 	beq	r2,zero,80f4 <Fat_Test+0x98>
                    if (*pData8)
    80d4:	89000003 	ldbu	r4,0(r17)
    80d8:	20000126 	beq	r4,zero,80e0 <Fat_Test+0x84>
                        printf("%c", *pData8);
    80dc:	000c5300 	call	c530 <putchar>
                    pData8++;
                    if (*pData8)
    80e0:	89000043 	ldbu	r4,1(r17)
    80e4:	20000126 	beq	r4,zero,80ec <Fat_Test+0x90>
                        printf("%c", *pData8);
    80e8:	000c5300 	call	c530 <putchar>
                    pData8++;
                    //
                    pData16++;
    80ec:	8c400084 	addi	r17,r17,2
    80f0:	003ff606 	br	80cc <_gp+0xffff1db0>
                }
                printf("\n");
    80f4:	01000284 	movi	r4,10
    80f8:	000c5300 	call	c530 <putchar>
    80fc:	00000506 	br	8114 <Fat_Test+0xb8>
            }else{
                printf("[%d]%s\n", nCount, FileContext.szName);
    8100:	01000074 	movhi	r4,1
    8104:	d80d883a 	mov	r6,sp
    8108:	980b883a 	mov	r5,r19
    810c:	21368f04 	addi	r4,r4,-9668
    8110:	000c4dc0 	call	c4dc <printf>
            }
            nCount++;
    8114:	9cc00044 	addi	r19,r19,1
    8118:	003fe106 	br	80a0 <_gp+0xffff1d84>
        }
    }
    if (bSuccess && pDumpFile && strlen(pDumpFile)){
    811c:	80003226 	beq	r16,zero,81e8 <Fat_Test+0x18c>
    8120:	80800007 	ldb	r2,0(r16)
    8124:	10003026 	beq	r2,zero,81e8 <Fat_Test+0x18c>
        FAT_FILE_HANDLE hFile;
        hFile =  Fat_FileOpen(hFat, pDumpFile);
    8128:	800b883a 	mov	r5,r16
    812c:	a009883a 	mov	r4,r20
    8130:	00086d40 	call	86d4 <Fat_FileOpen>
    8134:	1027883a 	mov	r19,r2
        if (hFile){
    8138:	10002626 	beq	r2,zero,81d4 <Fat_Test+0x178>
            char szRead[256];
            int nReadSize, nFileSize, nTotalReadSize=0;
            nFileSize = Fat_FileSize(hFile);
    813c:	1009883a 	mov	r4,r2
    8140:	00087980 	call	8798 <Fat_FileSize>
            if (nReadSize > sizeof(szRead))
                nReadSize = sizeof(szRead);
            printf("%s dump:\n", pDumpFile);
    8144:	01000074 	movhi	r4,1
    8148:	800b883a 	mov	r5,r16
    814c:	21369104 	addi	r4,r4,-9660
        FAT_FILE_HANDLE hFile;
        hFile =  Fat_FileOpen(hFat, pDumpFile);
        if (hFile){
            char szRead[256];
            int nReadSize, nFileSize, nTotalReadSize=0;
            nFileSize = Fat_FileSize(hFile);
    8150:	102d883a 	mov	r22,r2
    if (bSuccess && pDumpFile && strlen(pDumpFile)){
        FAT_FILE_HANDLE hFile;
        hFile =  Fat_FileOpen(hFat, pDumpFile);
        if (hFile){
            char szRead[256];
            int nReadSize, nFileSize, nTotalReadSize=0;
    8154:	0029883a 	mov	r20,zero
            nFileSize = Fat_FileSize(hFile);
            if (nReadSize > sizeof(szRead))
                nReadSize = sizeof(szRead);
            printf("%s dump:\n", pDumpFile);
    8158:	000c4dc0 	call	c4dc <printf>
            while(bSuccess && nTotalReadSize < nFileSize){
                nReadSize = sizeof(szRead);
                if (nReadSize > (nFileSize - nTotalReadSize))
    815c:	05c03fc4 	movi	r23,255
            int nReadSize, nFileSize, nTotalReadSize=0;
            nFileSize = Fat_FileSize(hFile);
            if (nReadSize > sizeof(szRead))
                nReadSize = sizeof(szRead);
            printf("%s dump:\n", pDumpFile);
            while(bSuccess && nTotalReadSize < nFileSize){
    8160:	a580170e 	bge	r20,r22,81c0 <Fat_Test+0x164>
                nReadSize = sizeof(szRead);
                if (nReadSize > (nFileSize - nTotalReadSize))
    8164:	b523c83a 	sub	r17,r22,r20
    8168:	bc40010e 	bge	r23,r17,8170 <Fat_Test+0x114>
            nFileSize = Fat_FileSize(hFile);
            if (nReadSize > sizeof(szRead))
                nReadSize = sizeof(szRead);
            printf("%s dump:\n", pDumpFile);
            while(bSuccess && nTotalReadSize < nFileSize){
                nReadSize = sizeof(szRead);
    816c:	04404004 	movi	r17,256
                if (nReadSize > (nFileSize - nTotalReadSize))
                    nReadSize = (nFileSize - nTotalReadSize);
                //
                if (Fat_FileRead(hFile, szRead, nReadSize)){
    8170:	880d883a 	mov	r6,r17
    8174:	d9404a04 	addi	r5,sp,296
    8178:	9809883a 	mov	r4,r19
    817c:	00087b00 	call	87b0 <Fat_FileRead>
    8180:	10000926 	beq	r2,zero,81a8 <Fat_Test+0x14c>
    8184:	002b883a 	mov	r21,zero
                    int i;
                    for(i=0;i<nReadSize;i++){
                        printf("%c", szRead[i]);
    8188:	d8c04a04 	addi	r3,sp,296
    818c:	1d45883a 	add	r2,r3,r21
    8190:	11000007 	ldb	r4,0(r2)
                if (nReadSize > (nFileSize - nTotalReadSize))
                    nReadSize = (nFileSize - nTotalReadSize);
                //
                if (Fat_FileRead(hFile, szRead, nReadSize)){
                    int i;
                    for(i=0;i<nReadSize;i++){
    8194:	ad400044 	addi	r21,r21,1
                        printf("%c", szRead[i]);
    8198:	000c5300 	call	c530 <putchar>
                if (nReadSize > (nFileSize - nTotalReadSize))
                    nReadSize = (nFileSize - nTotalReadSize);
                //
                if (Fat_FileRead(hFile, szRead, nReadSize)){
                    int i;
                    for(i=0;i<nReadSize;i++){
    819c:	8d7ffa1e 	bne	r17,r21,8188 <_gp+0xffff1e6c>
                        printf("%c", szRead[i]);
                    }
                    nTotalReadSize += nReadSize;
    81a0:	a469883a 	add	r20,r20,r17
    81a4:	003fee06 	br	8160 <_gp+0xffff1e44>
                }else{
                    bSuccess = FALSE;
                    printf("\nFaied to read the file \"%s\"\n", pDumpFile);
    81a8:	01000074 	movhi	r4,1
    81ac:	800b883a 	mov	r5,r16
    81b0:	21369404 	addi	r4,r4,-9648
    81b4:	000c4dc0 	call	c4dc <printf>
    81b8:	0025883a 	mov	r18,zero
    81bc:	00000206 	br	81c8 <Fat_Test+0x16c>
                }
            } // while
            if (bSuccess)
                printf("\n");
    81c0:	01000284 	movi	r4,10
    81c4:	000c5300 	call	c530 <putchar>
            Fat_FileClose(hFile);
    81c8:	9809883a 	mov	r4,r19
    81cc:	0008aac0 	call	8aac <Fat_FileClose>
    81d0:	00000506 	br	81e8 <Fat_Test+0x18c>
        }else{
            bSuccess = FALSE;
            printf("Cannot find the file \"%s\"\n", pDumpFile);
    81d4:	01000074 	movhi	r4,1
    81d8:	800b883a 	mov	r5,r16
    81dc:	21369c04 	addi	r4,r4,-9616
    81e0:	000c4dc0 	call	c4dc <printf>
            } // while
            if (bSuccess)
                printf("\n");
            Fat_FileClose(hFile);
        }else{
            bSuccess = FALSE;
    81e4:	0025883a 	mov	r18,zero
            printf("Cannot find the file \"%s\"\n", pDumpFile);
        }
    }

    return bSuccess;
}
    81e8:	9005883a 	mov	r2,r18
    81ec:	dfc09417 	ldw	ra,592(sp)
    81f0:	ddc09317 	ldw	r23,588(sp)
    81f4:	dd809217 	ldw	r22,584(sp)
    81f8:	dd409117 	ldw	r21,580(sp)
    81fc:	dd009017 	ldw	r20,576(sp)
    8200:	dcc08f17 	ldw	r19,572(sp)
    8204:	dc808e17 	ldw	r18,568(sp)
    8208:	dc408d17 	ldw	r17,564(sp)
    820c:	dc008c17 	ldw	r16,560(sp)
    8210:	dec09504 	addi	sp,sp,596
    8214:	f800283a 	ret

00008218 <main>:


int main()
{
    8218:	defffe04 	addi	sp,sp,-8
    FAT_HANDLE hFat;

    printf("========== DE2-115 SDCARD Demo ==========\n");
    821c:	01000074 	movhi	r4,1
    return bSuccess;
}


int main()
{
    8220:	dfc00115 	stw	ra,4(sp)
    8224:	dc000015 	stw	r16,0(sp)
    FAT_HANDLE hFat;

    printf("========== DE2-115 SDCARD Demo ==========\n");
    8228:	2136a304 	addi	r4,r4,-9588
    822c:	000c5cc0 	call	c5cc <puts>

    while(1){
        printf("Processing...\r\n");
    8230:	01000074 	movhi	r4,1
    8234:	2136ae04 	addi	r4,r4,-9544
    8238:	000c5cc0 	call	c5cc <puts>
        hFat = Fat_Mount(FAT_SD_CARD, 0);
    823c:	000b883a 	mov	r5,zero
    8240:	0009883a 	mov	r4,zero
    8244:	00082a40 	call	82a4 <Fat_Mount>
    8248:	1021883a 	mov	r16,r2
        if (hFat){
    824c:	10001226 	beq	r2,zero,8298 <main+0x80>
            printf("sdcard mount success!\n");
    8250:	01000074 	movhi	r4,1
    8254:	2136b204 	addi	r4,r4,-9528
    8258:	000c5cc0 	call	c5cc <puts>
            printf("Root Directory Item Count:%d\n", Fat_FileCount(hFat));
    825c:	8009883a 	mov	r4,r16
    8260:	000868c0 	call	868c <Fat_FileCount>
    8264:	01000074 	movhi	r4,1
    8268:	100b883a 	mov	r5,r2
    826c:	2136b804 	addi	r4,r4,-9504
    8270:	000c4dc0 	call	c4dc <printf>
            Fat_Test(hFat, "test.txt");
    8274:	01400074 	movhi	r5,1
    8278:	2976c004 	addi	r5,r5,-9472
    827c:	8009883a 	mov	r4,r16
    8280:	000805c0 	call	805c <Fat_Test>
            Fat_Unmount(hFat);
    8284:	8009883a 	mov	r4,r16
    8288:	00082b40 	call	82b4 <Fat_Unmount>

            printf("===== Test Done =====\r\nPress KEY3 to test again.\r\n");
    828c:	01000074 	movhi	r4,1
    8290:	2136c304 	addi	r4,r4,-9460
    8294:	003fe506 	br	822c <_gp+0xffff1f10>
        }else{
            printf("Failed to mount the SDCARD!\r\nPlease insert the SDCARD into DE2-115 board and press KEY3.\r\n");
    8298:	01000074 	movhi	r4,1
    829c:	2136d004 	addi	r4,r4,-9408
    82a0:	003fe206 	br	822c <_gp+0xffff1f10>

000082a4 <Fat_Mount>:
FAT_HANDLE Fat_Mount(FAT_DEVICE FatDevice, DEVICE_HANDLE hUsbDisk){
    
    //Fat_Unmount();
    FAT_HANDLE hFat = 0;
    
    if (FatDevice == FAT_SD_CARD){
    82a4:	2000011e 	bne	r4,zero,82ac <Fat_Mount+0x8>
        #ifdef SUPPORT_SD_CARD
        hFat = fatMountSdcard();
    82a8:	00094641 	jmpi	9464 <fatMountSdcard>
        hFat = fatMountUsbDisk(hUsbDisk);
        #endif
    }  
    return hFat;      
        
}
    82ac:	0005883a 	mov	r2,zero
    82b0:	f800283a 	ret

000082b4 <Fat_Unmount>:

void Fat_Unmount(FAT_HANDLE Fat){
    VOLUME_INFO *pVol = (VOLUME_INFO *)Fat;
    if (!pVol)
    82b4:	20000126 	beq	r4,zero,82bc <Fat_Unmount+0x8>
        pVol->szFatTable = 0;
    }        
#endif //#ifdef FAT_READONLY
    pVol->bMount = FALSE;
    
    free(pVol);  
    82b8:	000c2081 	jmpi	c208 <free>
    82bc:	f800283a 	ret

000082c0 <Fat_Type>:
}   

FAT_TYPE Fat_Type(FAT_HANDLE Fat){
    VOLUME_INFO *pVol = (VOLUME_INFO *)Fat;
    FAT_TYPE Type = FAT_UNKNOWN;
    if (pVol){
    82c0:	20000626 	beq	r4,zero,82dc <Fat_Type+0x1c>
        if (pVol->Partition_Type == PARTITION_FAT16)
    82c4:	20800317 	ldw	r2,12(r4)
    82c8:	00c00184 	movi	r3,6
    82cc:	10c00526 	beq	r2,r3,82e4 <Fat_Type+0x24>
            Type = FAT_FAT16;
        else if (pVol->Partition_Type == PARTITION_FAT32)
            Type = FAT_FAT32;
    82d0:	108002e0 	cmpeqi	r2,r2,11
    82d4:	1004907a 	slli	r2,r2,1
    82d8:	f800283a 	ret
    free(pVol);  
}   

FAT_TYPE Fat_Type(FAT_HANDLE Fat){
    VOLUME_INFO *pVol = (VOLUME_INFO *)Fat;
    FAT_TYPE Type = FAT_UNKNOWN;
    82dc:	0005883a 	mov	r2,zero
    82e0:	f800283a 	ret
    if (pVol){
        if (pVol->Partition_Type == PARTITION_FAT16)
            Type = FAT_FAT16;
    82e4:	00800044 	movi	r2,1
        else if (pVol->Partition_Type == PARTITION_FAT32)
            Type = FAT_FAT32;
    }
    return Type;        
}
    82e8:	f800283a 	ret

000082ec <Fat_FileBrowseBegin>:

bool Fat_FileBrowseBegin(FAT_HANDLE hFat, FAT_BROWSE_HANDLE *pFatBrowseHandle){
    VOLUME_INFO *pVol = (VOLUME_INFO *)hFat;
    if (!pVol)
    82ec:	20000726 	beq	r4,zero,830c <Fat_FileBrowseBegin+0x20>
        return FALSE;
    if (!pVol->bMount)
    82f0:	20800417 	ldw	r2,16(r4)
    82f4:	10000626 	beq	r2,zero,8310 <Fat_FileBrowseBegin+0x24>
        return FALSE;
    pFatBrowseHandle->DirectoryIndex = -1;
    82f8:	00bfffc4 	movi	r2,-1
    82fc:	28800015 	stw	r2,0(r5)
    pFatBrowseHandle->hFat = hFat;
    8300:	29000115 	stw	r4,4(r5)
    return TRUE;
    8304:	00800044 	movi	r2,1
    8308:	f800283a 	ret
}

bool Fat_FileBrowseBegin(FAT_HANDLE hFat, FAT_BROWSE_HANDLE *pFatBrowseHandle){
    VOLUME_INFO *pVol = (VOLUME_INFO *)hFat;
    if (!pVol)
        return FALSE;
    830c:	0005883a 	mov	r2,zero
    if (!pVol->bMount)
        return FALSE;
    pFatBrowseHandle->DirectoryIndex = -1;
    pFatBrowseHandle->hFat = hFat;
    return TRUE;
}
    8310:	f800283a 	ret

00008314 <fatSameLongFilename>:
}

bool fatSameLongFilename(alt_u16 *p1, alt_u16 *p2){
    bool bSame = TRUE;
    
    while(bSame && ((*p1 != 0) || (*p2 != 0))){
    8314:	20c0000b 	ldhu	r3,0(r4)
    8318:	18000726 	beq	r3,zero,8338 <fatSameLongFilename+0x24>
        if (*p1 != *p2){
    831c:	2880000b 	ldhu	r2,0(r5)
            bSame = FALSE;
        }
        p1++;
    8320:	21000084 	addi	r4,r4,2
        p2++;
    8324:	29400084 	addi	r5,r5,2
}

bool fatSameLongFilename(alt_u16 *p1, alt_u16 *p2){
    bool bSame = TRUE;
    
    while(bSame && ((*p1 != 0) || (*p2 != 0))){
    8328:	10bfffcc 	andi	r2,r2,65535
    832c:	18bff926 	beq	r3,r2,8314 <_gp+0xffff1ff8>
    8330:	0005883a 	mov	r2,zero
        p2++;
        
    }
    
    return bSame;
}
    8334:	f800283a 	ret
}

bool fatSameLongFilename(alt_u16 *p1, alt_u16 *p2){
    bool bSame = TRUE;
    
    while(bSame && ((*p1 != 0) || (*p2 != 0))){
    8338:	2880000b 	ldhu	r2,0(r5)
    833c:	103ff71e 	bne	r2,zero,831c <_gp+0xffff2000>
    8340:	00800044 	movi	r2,1
    8344:	f800283a 	ret

00008348 <fatComposeShortFilename>:
    
    return bSame;
}


void fatComposeShortFilename(FAT_DIRECTORY *pDir, char *szFilename){
    8348:	280d883a 	mov	r6,r5
    int i,nPos=0;
    834c:	0005883a 	mov	r2,zero
    
    i=0;
    while(i < 8 && pDir->Name[i] != 0 && pDir->Name[i] != ' ')
    8350:	023ff7c4 	movi	r8,-33
    8354:	02400204 	movi	r9,8
    8358:	2087883a 	add	r3,r4,r2
    835c:	19c00003 	ldbu	r7,0(r3)
    8360:	3a06703a 	and	r3,r7,r8
    8364:	18c03fcc 	andi	r3,r3,255
    8368:	18c0201c 	xori	r3,r3,128
    836c:	18ffe004 	addi	r3,r3,-128
    8370:	18000426 	beq	r3,zero,8384 <fatComposeShortFilename+0x3c>
        szFilename[nPos++] = pDir->Name[i++];
    8374:	31c00005 	stb	r7,0(r6)
    8378:	10800044 	addi	r2,r2,1
    837c:	31800044 	addi	r6,r6,1

void fatComposeShortFilename(FAT_DIRECTORY *pDir, char *szFilename){
    int i,nPos=0;
    
    i=0;
    while(i < 8 && pDir->Name[i] != 0 && pDir->Name[i] != ' ')
    8380:	127ff51e 	bne	r2,r9,8358 <_gp+0xffff203c>
        szFilename[nPos++] = pDir->Name[i++];
    
    if (pDir->Attribute & (ATTR_ARCHIVE | ATTR_DIRECTORY)){
    8384:	20c002c3 	ldbu	r3,11(r4)
    8388:	18c00c0c 	andi	r3,r3,48
    838c:	18001426 	beq	r3,zero,83e0 <fatComposeShortFilename+0x98>
        if (pDir->Attribute & (ATTR_ARCHIVE | ATTR_DIRECTORY))     
            szFilename[nPos++] = '.';   
    8390:	2887883a 	add	r3,r5,r2
    8394:	01800b84 	movi	r6,46
    8398:	19800005 	stb	r6,0(r3)
    839c:	21000204 	addi	r4,r4,8
    83a0:	10c00044 	addi	r3,r2,1
    83a4:	12400104 	addi	r9,r2,4
        i=0;
        while(i < 3 && pDir->Extension[i] != 0 && pDir->Extension[i] != ' ')
    83a8:	023ff7c4 	movi	r8,-33
    83ac:	21c00003 	ldbu	r7,0(r4)
    83b0:	1805883a 	mov	r2,r3
    83b4:	3a0c703a 	and	r6,r7,r8
    83b8:	31803fcc 	andi	r6,r6,255
    83bc:	3180201c 	xori	r6,r6,128
    83c0:	31bfe004 	addi	r6,r6,-128
    83c4:	30000626 	beq	r6,zero,83e0 <fatComposeShortFilename+0x98>
    83c8:	18800044 	addi	r2,r3,1
            szFilename[nPos++] = pDir->Extension[i++];
    83cc:	28c7883a 	add	r3,r5,r3
    83d0:	19c00005 	stb	r7,0(r3)
    83d4:	21000044 	addi	r4,r4,1
    83d8:	1007883a 	mov	r3,r2
    
    if (pDir->Attribute & (ATTR_ARCHIVE | ATTR_DIRECTORY)){
        if (pDir->Attribute & (ATTR_ARCHIVE | ATTR_DIRECTORY))     
            szFilename[nPos++] = '.';   
        i=0;
        while(i < 3 && pDir->Extension[i] != 0 && pDir->Extension[i] != ' ')
    83dc:	127ff31e 	bne	r2,r9,83ac <_gp+0xffff2090>
            szFilename[nPos++] = pDir->Extension[i++];
    }            
    szFilename[nPos++] = 0;
    83e0:	2885883a 	add	r2,r5,r2
    83e4:	10000005 	stb	zero,0(r2)
    83e8:	f800283a 	ret

000083ec <Fat_FileBrowseNext>:
    pFatBrowseHandle->DirectoryIndex = -1;
    pFatBrowseHandle->hFat = hFat;
    return TRUE;
}

bool Fat_FileBrowseNext(FAT_BROWSE_HANDLE *pFatBrowseHandle, FILE_CONTEXT *pFileContext){
    83ec:	defff604 	addi	sp,sp,-40
    83f0:	dd800615 	stw	r22,24(sp)
    bool bFind = FALSE, bError=FALSE, bLongFilename = FALSE;
    int OrderValue = 0;
    FAT_DIRECTORY *pDir;
    //unsigned int nSecter, nSecterOffset,nByteOffset;
    VOLUME_INFO *pVol = (VOLUME_INFO *)pFatBrowseHandle->hFat;
    83f4:	25800117 	ldw	r22,4(r4)
    pFatBrowseHandle->DirectoryIndex = -1;
    pFatBrowseHandle->hFat = hFat;
    return TRUE;
}

bool Fat_FileBrowseNext(FAT_BROWSE_HANDLE *pFatBrowseHandle, FILE_CONTEXT *pFileContext){
    83f8:	dfc00915 	stw	ra,36(sp)
    83fc:	df000815 	stw	fp,32(sp)
    8400:	ddc00715 	stw	r23,28(sp)
    8404:	dd400515 	stw	r21,20(sp)
    8408:	dd000415 	stw	r20,16(sp)
    840c:	dcc00315 	stw	r19,12(sp)
    8410:	dc800215 	stw	r18,8(sp)
    8414:	dc400115 	stw	r17,4(sp)
    8418:	dc000015 	stw	r16,0(sp)
    int OrderValue = 0;
    FAT_DIRECTORY *pDir;
    //unsigned int nSecter, nSecterOffset,nByteOffset;
    VOLUME_INFO *pVol = (VOLUME_INFO *)pFatBrowseHandle->hFat;
    
    if (!pVol)
    841c:	b000021e 	bne	r22,zero,8428 <Fat_FileBrowseNext+0x3c>
        return FALSE;    
    8420:	0005883a 	mov	r2,zero
    8424:	00008d06 	br	865c <Fat_FileBrowseNext+0x270>
    
    if (!pVol->bMount)
    8428:	b0800417 	ldw	r2,16(r22)
    842c:	103ffc26 	beq	r2,zero,8420 <_gp+0xffff2104>
    8430:	2823883a 	mov	r17,r5
    8434:	202b883a 	mov	r21,r4
    8438:	0025883a 	mov	r18,zero
    843c:	0027883a 	mov	r19,zero
        if (!pDir)
            bError = TRUE;
            
        if (!bError){                        
            if (fatIsValidDir(pDir) && !fatIsUnusedDir(pDir)){
                if ((pDir->Attribute & ATTR_LONG_NAME) == ATTR_LONG_NAME){
    8440:	05c003c4 	movi	r23,15
    8444:	070003c4 	movi	fp,15
    if (!pVol->bMount)
        return FALSE;
    
    
    do{  // search Directory Table
        pFatBrowseHandle->DirectoryIndex++;        
    8448:	a9400017 	ldw	r5,0(r21)
        pDir = fatFindDirectory(pVol,pFatBrowseHandle->DirectoryIndex);
    844c:	b009883a 	mov	r4,r22
    if (!pVol->bMount)
        return FALSE;
    
    
    do{  // search Directory Table
        pFatBrowseHandle->DirectoryIndex++;        
    8450:	29400044 	addi	r5,r5,1
    8454:	a9400015 	stw	r5,0(r21)
        pDir = fatFindDirectory(pVol,pFatBrowseHandle->DirectoryIndex);
    8458:	00091bc0 	call	91bc <fatFindDirectory>
    845c:	1021883a 	mov	r16,r2
        if (!pDir)
    8460:	10007626 	beq	r2,zero,863c <Fat_FileBrowseNext+0x250>
            bError = TRUE;
            
        if (!bError){                        
            if (fatIsValidDir(pDir) && !fatIsUnusedDir(pDir)){
    8464:	1009883a 	mov	r4,r2
    8468:	0008d500 	call	8d50 <fatIsValidDir>
    846c:	10007126 	beq	r2,zero,8634 <Fat_FileBrowseNext+0x248>
    8470:	8009883a 	mov	r4,r16
    8474:	0008db00 	call	8db0 <fatIsUnusedDir>
    8478:	10006e1e 	bne	r2,zero,8634 <Fat_FileBrowseNext+0x248>
                if ((pDir->Attribute & ATTR_LONG_NAME) == ATTR_LONG_NAME){
    847c:	808002c3 	ldbu	r2,11(r16)
    8480:	108003cc 	andi	r2,r2,15
    8484:	1700251e 	bne	r2,fp,851c <Fat_FileBrowseNext+0x130>
                    // check attribute
                    if ((pLDIR->LDIR_Attr & ATTR_LONG_NAME) != ATTR_LONG_NAME){
                        bError = TRUE;
                    }else{                        
                        // check order
                        if (OrderValue == 0){
    8488:	90000c1e 	bne	r18,zero,84bc <Fat_FileBrowseNext+0xd0>
                            // last entry
                            if (bLongFilename || ((OrderValue & LAST_LONG_ENTRY) != OrderValue))
    848c:	9800041e 	bne	r19,zero,84a0 <Fat_FileBrowseNext+0xb4>
                                bError = TRUE;
                            else
                                OrderValue = pLDIR->LDIR_Ord & 0x3F;
    8490:	84800003 	ldbu	r18,0(r16)
    8494:	0029883a 	mov	r20,zero
    8498:	94800fcc 	andi	r18,r18,63
    849c:	00000106 	br	84a4 <Fat_FileBrowseNext+0xb8>
                    }else{                        
                        // check order
                        if (OrderValue == 0){
                            // last entry
                            if (bLongFilename || ((OrderValue & LAST_LONG_ENTRY) != OrderValue))
                                bError = TRUE;
    84a0:	05000044 	movi	r20,1
                            else
                                OrderValue = pLDIR->LDIR_Ord & 0x3F;
                            memset(pFileContext->szName, 0, sizeof(pFileContext->szName));        
    84a4:	01804004 	movi	r6,256
    84a8:	000b883a 	mov	r5,zero
    84ac:	8809883a 	mov	r4,r17
    84b0:	000c2440 	call	c244 <memset>
                                bError = TRUE;
                        }
                    }
                    
                    //                        
                    if (!bError){
    84b4:	a0000426 	beq	r20,zero,84c8 <Fat_FileBrowseNext+0xdc>
    84b8:	00006006 	br	863c <Fat_FileBrowseNext+0x250>
                                bError = TRUE;
                            else
                                OrderValue = pLDIR->LDIR_Ord & 0x3F;
                            memset(pFileContext->szName, 0, sizeof(pFileContext->szName));        
                        }else{
                            if ((pLDIR->LDIR_Ord & 0x3F) != OrderValue)
    84bc:	80800003 	ldbu	r2,0(r16)
    84c0:	10800fcc 	andi	r2,r2,63
    84c4:	90805d1e 	bne	r18,r2,863c <Fat_FileBrowseNext+0x250>
                    
                    //                        
                    if (!bError){
                        int BaseOffset;
                        bLongFilename = TRUE;
                        OrderValue--;
    84c8:	94bfffc4 	addi	r18,r18,-1
                        BaseOffset = OrderValue * 26;
                        // cast filename
                        memcpy(pFileContext->szName+BaseOffset, pLDIR->LDIR_Name1, 10);
    84cc:	01400684 	movi	r5,26
    84d0:	9009883a 	mov	r4,r18
    84d4:	000ace40 	call	ace4 <__mulsi3>
    84d8:	01800284 	movi	r6,10
    84dc:	81400044 	addi	r5,r16,1
    84e0:	8889883a 	add	r4,r17,r2
    84e4:	1027883a 	mov	r19,r2
    84e8:	000c21c0 	call	c21c <memcpy>
                        memcpy(pFileContext->szName+BaseOffset+10, pLDIR->LDIR_Name2, 12);
    84ec:	99000284 	addi	r4,r19,10
    84f0:	01800304 	movi	r6,12
    84f4:	81400384 	addi	r5,r16,14
    84f8:	8909883a 	add	r4,r17,r4
    84fc:	000c21c0 	call	c21c <memcpy>
                        memcpy(pFileContext->szName+BaseOffset+22, pLDIR->LDIR_Name3, 4);
    8500:	99000584 	addi	r4,r19,22
    8504:	01800104 	movi	r6,4
    8508:	81400704 	addi	r5,r16,28
    850c:	8909883a 	add	r4,r17,r4
    8510:	000c21c0 	call	c21c <memcpy>
                    }
                    
                    //                        
                    if (!bError){
                        int BaseOffset;
                        bLongFilename = TRUE;
    8514:	04c00044 	movi	r19,1
    8518:	00004606 	br	8634 <Fat_FileBrowseNext+0x248>
                        memcpy(pFileContext->szName+BaseOffset, pLDIR->LDIR_Name1, 10);
                        memcpy(pFileContext->szName+BaseOffset+10, pLDIR->LDIR_Name2, 12);
                        memcpy(pFileContext->szName+BaseOffset+22, pLDIR->LDIR_Name3, 4);
                    }                        
                }else{
                    if (bLongFilename){
    851c:	98000626 	beq	r19,zero,8538 <Fat_FileBrowseNext+0x14c>
                        pFileContext->Attribute = ATTR_LONG_NAME;
    8520:	8dc04505 	stb	r23,276(r17)
                        if ((pDir->Attribute & (ATTR_ARCHIVE | ATTR_DIRECTORY)) == 0)
    8524:	808002c3 	ldbu	r2,11(r16)
    8528:	04c00044 	movi	r19,1
    852c:	10800c0c 	andi	r2,r2,48
    8530:	10004426 	beq	r2,zero,8644 <Fat_FileBrowseNext+0x258>
    8534:	00000306 	br	8544 <Fat_FileBrowseNext+0x158>
                            bError = TRUE;
                        else    
                            bFind = TRUE;
                    }else{
                        fatComposeShortFilename(pDir, pFileContext->szName);
    8538:	880b883a 	mov	r5,r17
    853c:	8009883a 	mov	r4,r16
    8540:	00083480 	call	8348 <fatComposeShortFilename>
                        bFind = TRUE;
                    }
                    
                    if (bFind){
                        // my ext
                        pFileContext->bLongFilename = bLongFilename;
    8544:	8cc04015 	stw	r19,256(r17)
                        pFileContext->bFile = (pDir->Attribute & ATTR_ARCHIVE)?TRUE:FALSE;
    8548:	808002c3 	ldbu	r2,11(r16)
    854c:	1004d17a 	srli	r2,r2,5
    8550:	1080004c 	andi	r2,r2,1
    8554:	88804115 	stw	r2,260(r17)
                        pFileContext->bDirectory = (pDir->Attribute & ATTR_DIRECTORY)?TRUE:FALSE;
    8558:	808002c3 	ldbu	r2,11(r16)
    855c:	1004d13a 	srli	r2,r2,4
    8560:	1080004c 	andi	r2,r2,1
    8564:	88804215 	stw	r2,264(r17)
                        pFileContext->bVolume = (pDir->Attribute & ATTR_VOLUME_ID)?TRUE:FALSE;
    8568:	808002c3 	ldbu	r2,11(r16)
    856c:	1004d0fa 	srli	r2,r2,3
    8570:	1080004c 	andi	r2,r2,1
    8574:	88804315 	stw	r2,268(r17)
                        pFileContext->DirEntryIndex = pFatBrowseHandle->DirectoryIndex; // add in v2.0.0
    8578:	a8800017 	ldw	r2,0(r21)
    857c:	88804415 	stw	r2,272(r17)
                        
                        //
                        pFileContext->Attribute = pDir->Attribute;
    8580:	808002c3 	ldbu	r2,11(r16)
    8584:	88804505 	stb	r2,276(r17)
                        pFileContext->CreateTime = pDir->CreateTime;
    8588:	808003c3 	ldbu	r2,15(r16)
    858c:	80c00383 	ldbu	r3,14(r16)
    8590:	1004923a 	slli	r2,r2,8
    8594:	10c4b03a 	or	r2,r2,r3
    8598:	8880458d 	sth	r2,278(r17)
                        pFileContext->LastAccessDate = pDir->LastAccessDate;
    859c:	808004c3 	ldbu	r2,19(r16)
    85a0:	80c00483 	ldbu	r3,18(r16)
    85a4:	1004923a 	slli	r2,r2,8
    85a8:	10c4b03a 	or	r2,r2,r3
    85ac:	8880468d 	sth	r2,282(r17)
                        pFileContext->FirstLogicalClusterHi = pDir->FirstLogicalClusterHi;
    85b0:	80800543 	ldbu	r2,21(r16)
    85b4:	80c00503 	ldbu	r3,20(r16)
    85b8:	1004923a 	slli	r2,r2,8
    85bc:	10c4b03a 	or	r2,r2,r3
    85c0:	8880470d 	sth	r2,284(r17)
                        pFileContext->LastWriteTime = pDir->LastWriteTime;
    85c4:	808005c3 	ldbu	r2,23(r16)
    85c8:	80c00583 	ldbu	r3,22(r16)
    85cc:	1004923a 	slli	r2,r2,8
    85d0:	10c4b03a 	or	r2,r2,r3
    85d4:	8880478d 	sth	r2,286(r17)
                        pFileContext->LastWriteDate = pDir->LastWriteDate;
    85d8:	80800643 	ldbu	r2,25(r16)
    85dc:	80c00603 	ldbu	r3,24(r16)
    85e0:	1004923a 	slli	r2,r2,8
    85e4:	10c4b03a 	or	r2,r2,r3
    85e8:	8880480d 	sth	r2,288(r17)
                        pFileContext->FirstLogicalCluster = pDir->FirstLogicalCluster;
    85ec:	808006c3 	ldbu	r2,27(r16)
    85f0:	80c00683 	ldbu	r3,26(r16)
    85f4:	1004923a 	slli	r2,r2,8
    85f8:	10c4b03a 	or	r2,r2,r3
    85fc:	8880488d 	sth	r2,290(r17)
                        pFileContext->FileSize = pDir->FileSize;
    8600:	80c00743 	ldbu	r3,29(r16)
    8604:	80800783 	ldbu	r2,30(r16)
    8608:	81400703 	ldbu	r5,28(r16)
    860c:	1806923a 	slli	r3,r3,8
    8610:	1004943a 	slli	r2,r2,16
    8614:	1948b03a 	or	r4,r3,r5
    8618:	1106b03a 	or	r3,r2,r4
    861c:	808007c3 	ldbu	r2,31(r16)
    8620:	1004963a 	slli	r2,r2,24
    8624:	10c4b03a 	or	r2,r2,r3
    8628:	88804915 	stw	r2,292(r17)
    862c:	00800044 	movi	r2,1
    8630:	00000a06 	br	865c <Fat_FileBrowseNext+0x270>
    8634:	0029883a 	mov	r20,zero
    8638:	00000306 	br	8648 <Fat_FileBrowseNext+0x25c>
    863c:	05000044 	movi	r20,1
    8640:	00000106 	br	8648 <Fat_FileBrowseNext+0x25c>
                    }                        
                }else{
                    if (bLongFilename){
                        pFileContext->Attribute = ATTR_LONG_NAME;
                        if ((pDir->Attribute & (ATTR_ARCHIVE | ATTR_DIRECTORY)) == 0)
                            bError = TRUE;
    8644:	9829883a 	mov	r20,r19
                        pFileContext->FileSize = pDir->FileSize;
                    }                        
                }                    
            }                
        }            
    }while (!bFind && !fatIsLastDir(pDir) && !bError);
    8648:	8009883a 	mov	r4,r16
    864c:	0008d440 	call	8d44 <fatIsLastDir>
    8650:	103f731e 	bne	r2,zero,8420 <_gp+0xffff2104>
    8654:	a03f7c26 	beq	r20,zero,8448 <_gp+0xffff212c>
    8658:	003f7106 	br	8420 <_gp+0xffff2104>
    
    return bFind;
    
}
    865c:	dfc00917 	ldw	ra,36(sp)
    8660:	df000817 	ldw	fp,32(sp)
    8664:	ddc00717 	ldw	r23,28(sp)
    8668:	dd800617 	ldw	r22,24(sp)
    866c:	dd400517 	ldw	r21,20(sp)
    8670:	dd000417 	ldw	r20,16(sp)
    8674:	dcc00317 	ldw	r19,12(sp)
    8678:	dc800217 	ldw	r18,8(sp)
    867c:	dc400117 	ldw	r17,4(sp)
    8680:	dc000017 	ldw	r16,0(sp)
    8684:	dec00a04 	addi	sp,sp,40
    8688:	f800283a 	ret

0000868c <Fat_FileCount>:


unsigned int Fat_FileCount(FAT_HANDLE Fat){
    868c:	deffb204 	addi	sp,sp,-312
    unsigned int nCount = 0;
    FAT_BROWSE_HANDLE hBrowse;
    FILE_CONTEXT FileContext;
    
    if (Fat_FileBrowseBegin(Fat, &hBrowse)){
    8690:	d9404a04 	addi	r5,sp,296
    return bFind;
    
}


unsigned int Fat_FileCount(FAT_HANDLE Fat){
    8694:	dc004c15 	stw	r16,304(sp)
    8698:	dfc04d15 	stw	ra,308(sp)
    unsigned int nCount = 0;
    FAT_BROWSE_HANDLE hBrowse;
    FILE_CONTEXT FileContext;
    
    if (Fat_FileBrowseBegin(Fat, &hBrowse)){
    869c:	00082ec0 	call	82ec <Fat_FileBrowseBegin>
    86a0:	0021883a 	mov	r16,zero
    86a4:	10000626 	beq	r2,zero,86c0 <Fat_FileCount+0x34>
        while(Fat_FileBrowseNext(&hBrowse, &FileContext))
    86a8:	d80b883a 	mov	r5,sp
    86ac:	d9004a04 	addi	r4,sp,296
    86b0:	00083ec0 	call	83ec <Fat_FileBrowseNext>
    86b4:	10000226 	beq	r2,zero,86c0 <Fat_FileCount+0x34>
            nCount++;
    86b8:	84000044 	addi	r16,r16,1
    86bc:	003ffa06 	br	86a8 <_gp+0xffff238c>
    }
    
    return nCount;
}
    86c0:	8005883a 	mov	r2,r16
    86c4:	dfc04d17 	ldw	ra,308(sp)
    86c8:	dc004c17 	ldw	r16,304(sp)
    86cc:	dec04e04 	addi	sp,sp,312
    86d0:	f800283a 	ret

000086d4 <Fat_FileOpen>:
    }
    return bFind;            
}    
 
// File Access
FAT_FILE_HANDLE Fat_FileOpen(FAT_HANDLE Fat, const char *pFilename){
    86d4:	deffb004 	addi	sp,sp,-320
    86d8:	dc004c15 	stw	r16,304(sp)
    86dc:	2821883a 	mov	r16,r5
    bool bFind = FALSE;
    FAT_BROWSE_HANDLE hBrowse;     
    FILE_CONTEXT FileContext;
    FAT_FILE_INFO *pFile = 0;
    
    if (Fat_FileBrowseBegin(Fat, &hBrowse)){
    86e0:	d9404a04 	addi	r5,sp,296
    }
    return bFind;            
}    
 
// File Access
FAT_FILE_HANDLE Fat_FileOpen(FAT_HANDLE Fat, const char *pFilename){
    86e4:	dc804e15 	stw	r18,312(sp)
    86e8:	dfc04f15 	stw	ra,316(sp)
    86ec:	dc404d15 	stw	r17,308(sp)
    86f0:	2025883a 	mov	r18,r4
    bool bFind = FALSE;
    FAT_BROWSE_HANDLE hBrowse;     
    FILE_CONTEXT FileContext;
    FAT_FILE_INFO *pFile = 0;
    
    if (Fat_FileBrowseBegin(Fat, &hBrowse)){
    86f4:	00082ec0 	call	82ec <Fat_FileBrowseBegin>
    86f8:	1000081e 	bne	r2,zero,871c <Fat_FileOpen+0x48>
// File Access
FAT_FILE_HANDLE Fat_FileOpen(FAT_HANDLE Fat, const char *pFilename){
    bool bFind = FALSE;
    FAT_BROWSE_HANDLE hBrowse;     
    FILE_CONTEXT FileContext;
    FAT_FILE_INFO *pFile = 0;
    86fc:	0021883a 	mov	r16,zero
    8700:	00001e06 	br	877c <Fat_FileOpen+0xa8>
    
    if (Fat_FileBrowseBegin(Fat, &hBrowse)){
        while (!bFind && Fat_FileBrowseNext(&hBrowse, &FileContext)){
            if (FileContext.bLongFilename){
    8704:	d8804017 	ldw	r2,256(sp)
                bFind = fatSameLongFilename((alt_u16 *)FileContext.szName, (alt_u16 *)pFilename);
    8708:	800b883a 	mov	r5,r16
    870c:	d809883a 	mov	r4,sp
    FILE_CONTEXT FileContext;
    FAT_FILE_INFO *pFile = 0;
    
    if (Fat_FileBrowseBegin(Fat, &hBrowse)){
        while (!bFind && Fat_FileBrowseNext(&hBrowse, &FileContext)){
            if (FileContext.bLongFilename){
    8710:	10000726 	beq	r2,zero,8730 <Fat_FileOpen+0x5c>
                bFind = fatSameLongFilename((alt_u16 *)FileContext.szName, (alt_u16 *)pFilename);
    8714:	00083140 	call	8314 <fatSameLongFilename>
    FAT_BROWSE_HANDLE hBrowse;     
    FILE_CONTEXT FileContext;
    FAT_FILE_INFO *pFile = 0;
    
    if (Fat_FileBrowseBegin(Fat, &hBrowse)){
        while (!bFind && Fat_FileBrowseNext(&hBrowse, &FileContext)){
    8718:	1000081e 	bne	r2,zero,873c <Fat_FileOpen+0x68>
    871c:	d80b883a 	mov	r5,sp
    8720:	d9004a04 	addi	r4,sp,296
    8724:	00083ec0 	call	83ec <Fat_FileBrowseNext>
    8728:	103ff61e 	bne	r2,zero,8704 <_gp+0xffff23e8>
    872c:	003ff306 	br	86fc <_gp+0xffff23e0>
            if (FileContext.bLongFilename){
                bFind = fatSameLongFilename((alt_u16 *)FileContext.szName, (alt_u16 *)pFilename);
            }else{
                if (strcmpi(FileContext.szName, pFilename) == 0)
    8730:	000c70c0 	call	c70c <strcasecmp>
    FAT_FILE_INFO *pFile = 0;
    
    if (Fat_FileBrowseBegin(Fat, &hBrowse)){
        while (!bFind && Fat_FileBrowseNext(&hBrowse, &FileContext)){
            if (FileContext.bLongFilename){
                bFind = fatSameLongFilename((alt_u16 *)FileContext.szName, (alt_u16 *)pFilename);
    8734:	1005003a 	cmpeq	r2,r2,zero
    8738:	003ff706 	br	8718 <_gp+0xffff23fc>
                    bFind = TRUE;
            }    
        } // while 
        
        if (bFind){
            pFile = malloc(sizeof(FAT_FILE_INFO));
    873c:	01005004 	movi	r4,320
    8740:	000c1f40 	call	c1f4 <malloc>
    8744:	1021883a 	mov	r16,r2
            if (pFile){
    8748:	10000c26 	beq	r2,zero,877c <Fat_FileOpen+0xa8>
                pFile->OpenAttribute = FILE_OPEN_READ; 
    874c:	04400044 	movi	r17,1
    8750:	84400115 	stw	r17,4(r16)
                pFile->SeekPos = 0;
    8754:	80000215 	stw	zero,8(r16)
                pFile->Directory = FileContext;
    8758:	01804a04 	movi	r6,296
    875c:	d80b883a 	mov	r5,sp
    8760:	81000504 	addi	r4,r16,20
    8764:	000c21c0 	call	c21c <memcpy>
                pFile->IsOpened = TRUE;
                pFile->Cluster = FileContext.FirstLogicalCluster;
    8768:	d880488b 	ldhu	r2,290(sp)
            pFile = malloc(sizeof(FAT_FILE_INFO));
            if (pFile){
                pFile->OpenAttribute = FILE_OPEN_READ; 
                pFile->SeekPos = 0;
                pFile->Directory = FileContext;
                pFile->IsOpened = TRUE;
    876c:	84400015 	stw	r17,0(r16)
                pFile->Cluster = FileContext.FirstLogicalCluster;
                pFile->ClusterSeq = 0;
    8770:	80000415 	stw	zero,16(r16)
            if (pFile){
                pFile->OpenAttribute = FILE_OPEN_READ; 
                pFile->SeekPos = 0;
                pFile->Directory = FileContext;
                pFile->IsOpened = TRUE;
                pFile->Cluster = FileContext.FirstLogicalCluster;
    8774:	80800315 	stw	r2,12(r16)
                pFile->ClusterSeq = 0;
                pFile->Fat = Fat;
    8778:	84804f15 	stw	r18,316(r16)
        }    
    }  

    
    return (FAT_FILE_HANDLE)pFile;  
}
    877c:	8005883a 	mov	r2,r16
    8780:	dfc04f17 	ldw	ra,316(sp)
    8784:	dc804e17 	ldw	r18,312(sp)
    8788:	dc404d17 	ldw	r17,308(sp)
    878c:	dc004c17 	ldw	r16,304(sp)
    8790:	dec05004 	addi	sp,sp,320
    8794:	f800283a 	ret

00008798 <Fat_FileSize>:


unsigned int Fat_FileSize(FAT_FILE_HANDLE hFileHandle){
    FAT_FILE_INFO *f = (FAT_FILE_INFO *)hFileHandle;
    if (f->IsOpened)
    8798:	20800017 	ldw	r2,0(r4)
    879c:	10000226 	beq	r2,zero,87a8 <Fat_FileSize+0x10>
        return f->Directory.FileSize;
    87a0:	20804e17 	ldw	r2,312(r4)
    87a4:	f800283a 	ret
    return 0;        
    87a8:	0005883a 	mov	r2,zero
}
    87ac:	f800283a 	ret

000087b0 <Fat_FileRead>:
    alt_u32 Pos, PhysicalSecter, NextCluster, Cluster;
    alt_u32 BytesPerCluster, nReadCount=0, nClusterSeq;
    int s;
    bool bSuccess= TRUE;
    
    if (!f || !f->Fat)
    87b0:	2000a126 	beq	r4,zero,8a38 <Fat_FileRead+0x288>
        return f->Directory.FileSize;
    return 0;        
}


bool Fat_FileRead(FAT_FILE_HANDLE hFileHandle, void *pBuffer, const int nBufferSize){
    87b4:	defff304 	addi	sp,sp,-52
    87b8:	dc000315 	stw	r16,12(sp)
    alt_u32 Pos, PhysicalSecter, NextCluster, Cluster;
    alt_u32 BytesPerCluster, nReadCount=0, nClusterSeq;
    int s;
    bool bSuccess= TRUE;
    
    if (!f || !f->Fat)
    87bc:	24004f17 	ldw	r16,316(r4)
        return f->Directory.FileSize;
    return 0;        
}


bool Fat_FileRead(FAT_FILE_HANDLE hFileHandle, void *pBuffer, const int nBufferSize){
    87c0:	dfc00c15 	stw	ra,48(sp)
    87c4:	df000b15 	stw	fp,44(sp)
    87c8:	ddc00a15 	stw	r23,40(sp)
    87cc:	dd800915 	stw	r22,36(sp)
    87d0:	dd400815 	stw	r21,32(sp)
    87d4:	dd000715 	stw	r20,28(sp)
    87d8:	dcc00615 	stw	r19,24(sp)
    87dc:	dc800515 	stw	r18,20(sp)
    87e0:	dc400415 	stw	r17,16(sp)
    alt_u32 Pos, PhysicalSecter, NextCluster, Cluster;
    alt_u32 BytesPerCluster, nReadCount=0, nClusterSeq;
    int s;
    bool bSuccess= TRUE;
    
    if (!f || !f->Fat)
    87e4:	80008726 	beq	r16,zero,8a04 <Fat_FileRead+0x254>
        return FALSE;
    pVol = (VOLUME_INFO *)f->Fat;        
    
    if (!f->IsOpened){
    87e8:	20800017 	ldw	r2,0(r4)
    87ec:	10008326 	beq	r2,zero,89fc <Fat_FileRead+0x24c>
        FAT_DEBUG(("[FAT] Fat_FileRead, file not opened\r\n"));
        return bSuccess;
    }        
        
    BytesPerCluster = pVol->nBytesPerCluster; //gVolumeInfo.BPB_BytsPerSec * gVolumeInfo.BPB_SecPerCluster;  
    87f0:	85000c17 	ldw	r20,48(r16)
    87f4:	d9800015 	stw	r6,0(sp)
    87f8:	d9400115 	stw	r5,4(sp)
    Pos = f->SeekPos;
    if (BytesPerCluster == 32768){
    87fc:	00a00014 	movui	r2,32768
    8800:	2039883a 	mov	fp,r4
        FAT_DEBUG(("[FAT] Fat_FileRead, file not opened\r\n"));
        return bSuccess;
    }        
        
    BytesPerCluster = pVol->nBytesPerCluster; //gVolumeInfo.BPB_BytsPerSec * gVolumeInfo.BPB_SecPerCluster;  
    Pos = f->SeekPos;
    8804:	24800217 	ldw	r18,8(r4)
    8808:	25800417 	ldw	r22,16(r4)
    if (BytesPerCluster == 32768){
    880c:	a080031e 	bne	r20,r2,881c <Fat_FileRead+0x6c>
        nClusterSeq = Pos >> 15;
    8810:	902ed3fa 	srli	r23,r18,15
        Pos -= (f->ClusterSeq << 15);
    8814:	b00693fa 	slli	r3,r22,15
    8818:	00000406 	br	882c <Fat_FileRead+0x7c>
    }else if (BytesPerCluster == 16384){
    881c:	00900004 	movi	r2,16384
    8820:	a080041e 	bne	r20,r2,8834 <Fat_FileRead+0x84>
        nClusterSeq = Pos >> 14;
    8824:	902ed3ba 	srli	r23,r18,14
        Pos -= (f->ClusterSeq << 14);
    8828:	b00693ba 	slli	r3,r22,14
    882c:	90e3c83a 	sub	r17,r18,r3
    8830:	00000d06 	br	8868 <Fat_FileRead+0xb8>
    }else if (BytesPerCluster == 2048){
    8834:	00820004 	movi	r2,2048
    8838:	a080031e 	bne	r20,r2,8848 <Fat_FileRead+0x98>
        nClusterSeq = Pos >> 11;
    883c:	902ed2fa 	srli	r23,r18,11
        Pos -= (f->ClusterSeq << 11);
    8840:	b00692fa 	slli	r3,r22,11
    8844:	003ff906 	br	882c <_gp+0xffff2510>
    }else{        
        nClusterSeq = Pos/BytesPerCluster;
    8848:	a00b883a 	mov	r5,r20
    884c:	9009883a 	mov	r4,r18
    8850:	000ac280 	call	ac28 <__udivsi3>
        Pos -= f->ClusterSeq*BytesPerCluster;
    8854:	b00b883a 	mov	r5,r22
    8858:	a009883a 	mov	r4,r20
        Pos -= (f->ClusterSeq << 14);
    }else if (BytesPerCluster == 2048){
        nClusterSeq = Pos >> 11;
        Pos -= (f->ClusterSeq << 11);
    }else{        
        nClusterSeq = Pos/BytesPerCluster;
    885c:	102f883a 	mov	r23,r2
        Pos -= f->ClusterSeq*BytesPerCluster;
    8860:	000ace40 	call	ace4 <__mulsi3>
    8864:	90a3c83a 	sub	r17,r18,r2
    }    
        
       
    Cluster = f->Cluster;
    8868:	e4c00317 	ldw	r19,12(fp)
    886c:	05400044 	movi	r21,1
    if (nClusterSeq != f->ClusterSeq){
    8870:	bd800d1e 	bne	r23,r22,88a8 <Fat_FileRead+0xf8>
    8874:	00000d06 	br	88ac <Fat_FileRead+0xfc>
        Cluster = f->Cluster;  //11/20/2007, richard
        // move to first clustor for reading
        while (Pos >= BytesPerCluster && bSuccess){
    8878:	a8000c26 	beq	r21,zero,88ac <Fat_FileRead+0xfc>
            // go to next cluster
            NextCluster = fatNextCluster(pVol, Cluster); 
    887c:	980b883a 	mov	r5,r19
    8880:	8009883a 	mov	r4,r16
    8884:	0008e540 	call	8e54 <fatNextCluster>
            if (NextCluster == 0){
    8888:	10000b26 	beq	r2,zero,88b8 <Fat_FileRead+0x108>
    888c:	1027883a 	mov	r19,r2
    8890:	05400044 	movi	r21,1
            }else{
                Cluster = NextCluster;
            }        
            Pos -= BytesPerCluster;
            f->Cluster = Cluster;
            f->ClusterSeq++; 
    8894:	e0800417 	ldw	r2,16(fp)
                bSuccess = FALSE;
                FAT_DEBUG(("[FAT] Fat_FileRead, no next Cluster, current Cluster=%d\r\n", Cluster));
            }else{
                Cluster = NextCluster;
            }        
            Pos -= BytesPerCluster;
    8898:	8d23c83a 	sub	r17,r17,r20
            f->Cluster = Cluster;
    889c:	e4c00315 	stw	r19,12(fp)
            f->ClusterSeq++; 
    88a0:	10800044 	addi	r2,r2,1
    88a4:	e0800415 	stw	r2,16(fp)
       
    Cluster = f->Cluster;
    if (nClusterSeq != f->ClusterSeq){
        Cluster = f->Cluster;  //11/20/2007, richard
        // move to first clustor for reading
        while (Pos >= BytesPerCluster && bSuccess){
    88a8:	8d3ff32e 	bgeu	r17,r20,8878 <_gp+0xffff255c>
        }    
            
        // next cluster
        if (nReadCount < nBufferSize){
            NextCluster = fatNextCluster(pVol, Cluster); 
            if (NextCluster == 0){
    88ac:	002d883a 	mov	r22,zero
    88b0:	85c01004 	addi	r23,r16,64
    88b4:	00001006 	br	88f8 <Fat_FileRead+0x148>
        // move to first clustor for reading
        while (Pos >= BytesPerCluster && bSuccess){
            // go to next cluster
            NextCluster = fatNextCluster(pVol, Cluster); 
            if (NextCluster == 0){
                bSuccess = FALSE;
    88b8:	002b883a 	mov	r21,zero
    88bc:	003ff506 	br	8894 <_gp+0xffff2578>
            f->ClusterSeq++; 
        }
    }            
    
    // reading
    while(nReadCount < nBufferSize && bSuccess){
    88c0:	a8005026 	beq	r21,zero,8a04 <Fat_FileRead+0x254>
        if (pVol->BPB_SecPerCluster == 32)
    88c4:	81400717 	ldw	r5,28(r16)
    88c8:	00800804 	movi	r2,32
    88cc:	993fff84 	addi	r4,r19,-2
    88d0:	84800f17 	ldw	r18,60(r16)
    88d4:	28800b1e 	bne	r5,r2,8904 <Fat_FileRead+0x154>
            PhysicalSecter = ((Cluster-2) << 5) + pVol->DataEntrySecter; // -2: FAT0 & FAT1 are reserved
    88d8:	2008917a 	slli	r4,r4,5
    88dc:	24a5883a 	add	r18,r4,r18
                            Pos = 0;
                    }else{
                        memcpy((void *)((char *)pBuffer+nReadCount), pVol->Secter_Data+Pos,nCopyCount);
                        nReadCount += nCopyCount;
                        if (Pos > 0)
                            Pos = 0;
    88e0:	9029883a 	mov	r20,r18
            PhysicalSecter = ((Cluster-2) << 5) + pVol->DataEntrySecter; // -2: FAT0 & FAT1 are reserved
        else if (pVol->BPB_SecPerCluster == 64)
            PhysicalSecter = ((Cluster-2) << 6) + pVol->DataEntrySecter; // -2: FAT0 & FAT1 are reserved
        else
            PhysicalSecter = (Cluster-2)*pVol->BPB_SecPerCluster + pVol->DataEntrySecter; // -2: FAT0 & FAT1 are reserved
        for(s=0;s<pVol->BPB_SecPerCluster && nReadCount < nBufferSize && bSuccess;s++){
    88e4:	81000717 	ldw	r4,28(r16)
    88e8:	a485c83a 	sub	r2,r20,r18
    88ec:	d8c00017 	ldw	r3,0(sp)
    88f0:	11002e2e 	bgeu	r2,r4,89ac <Fat_FileRead+0x1fc>
    88f4:	b0c00a36 	bltu	r22,r3,8920 <Fat_FileRead+0x170>
            f->ClusterSeq++; 
        }
    }            
    
    // reading
    while(nReadCount < nBufferSize && bSuccess){
    88f8:	d8c00017 	ldw	r3,0(sp)
    88fc:	b0fff036 	bltu	r22,r3,88c0 <_gp+0xffff25a4>
    8900:	00003706 	br	89e0 <Fat_FileRead+0x230>
        if (pVol->BPB_SecPerCluster == 32)
            PhysicalSecter = ((Cluster-2) << 5) + pVol->DataEntrySecter; // -2: FAT0 & FAT1 are reserved
        else if (pVol->BPB_SecPerCluster == 64)
    8904:	00c01004 	movi	r3,64
    8908:	28c0021e 	bne	r5,r3,8914 <Fat_FileRead+0x164>
            PhysicalSecter = ((Cluster-2) << 6) + pVol->DataEntrySecter; // -2: FAT0 & FAT1 are reserved
    890c:	200891ba 	slli	r4,r4,6
    8910:	003ff206 	br	88dc <_gp+0xffff25c0>
        else
            PhysicalSecter = (Cluster-2)*pVol->BPB_SecPerCluster + pVol->DataEntrySecter; // -2: FAT0 & FAT1 are reserved
    8914:	000ace40 	call	ace4 <__mulsi3>
    8918:	14a5883a 	add	r18,r2,r18
    891c:	003ff006 	br	88e0 <_gp+0xffff25c4>
        for(s=0;s<pVol->BPB_SecPerCluster && nReadCount < nBufferSize && bSuccess;s++){
    8920:	a8002326 	beq	r21,zero,89b0 <Fat_FileRead+0x200>
            if (Pos >= pVol->BPB_BytsPerSec){
    8924:	80800617 	ldw	r2,24(r16)
    8928:	88800236 	bltu	r17,r2,8934 <Fat_FileRead+0x184>
                Pos -= pVol->BPB_BytsPerSec;
    892c:	88a3c83a 	sub	r17,r17,r2
    8930:	00001c06 	br	89a4 <Fat_FileRead+0x1f4>
            }else{
                // read secter data
                bSuccess = fatReadSecter(pVol, PhysicalSecter);
    8934:	a00b883a 	mov	r5,r20
    8938:	8009883a 	mov	r4,r16
    893c:	0008de80 	call	8de8 <fatReadSecter>
    8940:	102b883a 	mov	r21,r2
                
                if (bSuccess){
    8944:	10001726 	beq	r2,zero,89a4 <Fat_FileRead+0x1f4>
                    // copy data to user buffer
                
                    int nCopyCount;
                    nCopyCount = pVol->BPB_BytsPerSec;
    8948:	82000617 	ldw	r8,24(r16)
                    if (Pos)
    894c:	88000126 	beq	r17,zero,8954 <Fat_FileRead+0x1a4>
                        nCopyCount -= Pos;
    8950:	4451c83a 	sub	r8,r8,r17
                    if (nCopyCount > (nBufferSize-nReadCount))
    8954:	d8c00017 	ldw	r3,0(sp)
    8958:	1d85c83a 	sub	r2,r3,r22
    895c:	1200012e 	bgeu	r2,r8,8964 <Fat_FileRead+0x1b4>
                        nCopyCount = nBufferSize-nReadCount;
    8960:	1011883a 	mov	r8,r2
    8964:	d8c00117 	ldw	r3,4(sp)
                    if (nCopyCount == 512){
    8968:	00808004 	movi	r2,512
    896c:	1d89883a 	add	r4,r3,r22
    8970:	4080051e 	bne	r8,r2,8988 <Fat_FileRead+0x1d8>
                        memcpy((char *)pBuffer+nReadCount, pVol->Secter_Data, 512);
    8974:	100d883a 	mov	r6,r2
    8978:	b80b883a 	mov	r5,r23
    897c:	000c21c0 	call	c21c <memcpy>
                        nReadCount += nCopyCount;
    8980:	b5808004 	addi	r22,r22,512
    8984:	00000606 	br	89a0 <Fat_FileRead+0x1f0>
                        if (Pos > 0)
                            Pos = 0;
                    }else{
                        memcpy((void *)((char *)pBuffer+nReadCount), pVol->Secter_Data+Pos,nCopyCount);
    8988:	400d883a 	mov	r6,r8
    898c:	bc4b883a 	add	r5,r23,r17
    8990:	da000215 	stw	r8,8(sp)
    8994:	000c21c0 	call	c21c <memcpy>
                        nReadCount += nCopyCount;
    8998:	da000217 	ldw	r8,8(sp)
    899c:	b22d883a 	add	r22,r22,r8
                        if (Pos > 0)
                            Pos = 0;
    89a0:	0023883a 	mov	r17,zero
                    }         
                }    // if bSuccess
                    
            }
            PhysicalSecter++;
    89a4:	a5000044 	addi	r20,r20,1
    89a8:	003fce06 	br	88e4 <_gp+0xffff25c8>
        }    
            
        // next cluster
        if (nReadCount < nBufferSize){
    89ac:	b0ffd22e 	bgeu	r22,r3,88f8 <_gp+0xffff25dc>
            NextCluster = fatNextCluster(pVol, Cluster); 
    89b0:	980b883a 	mov	r5,r19
    89b4:	8009883a 	mov	r4,r16
    89b8:	0008e540 	call	8e54 <fatNextCluster>
            if (NextCluster == 0){
    89bc:	10000226 	beq	r2,zero,89c8 <Fat_FileRead+0x218>
    89c0:	1027883a 	mov	r19,r2
    89c4:	00000106 	br	89cc <Fat_FileRead+0x21c>
                bSuccess = FALSE;
    89c8:	002b883a 	mov	r21,zero
                FAT_DEBUG(("[FAT] Fat_FileRead, no next cluster\r\n"));
            }else{
                Cluster = NextCluster;
            }    
            //    
            f->ClusterSeq++; 
    89cc:	e0800417 	ldw	r2,16(fp)
            f->Cluster = Cluster;
    89d0:	e4c00315 	stw	r19,12(fp)
                FAT_DEBUG(("[FAT] Fat_FileRead, no next cluster\r\n"));
            }else{
                Cluster = NextCluster;
            }    
            //    
            f->ClusterSeq++; 
    89d4:	10800044 	addi	r2,r2,1
    89d8:	e0800415 	stw	r2,16(fp)
    89dc:	003fc606 	br	88f8 <_gp+0xffff25dc>
            f->Cluster = Cluster;
        }                    
    }
    
    if (bSuccess){
    89e0:	a8000826 	beq	r21,zero,8a04 <Fat_FileRead+0x254>
        f->SeekPos += nBufferSize;
    89e4:	e1800217 	ldw	r6,8(fp)
    89e8:	d8c00017 	ldw	r3,0(sp)
    89ec:	a805883a 	mov	r2,r21
    89f0:	30e3883a 	add	r17,r6,r3
    89f4:	e4400215 	stw	r17,8(fp)
    89f8:	00000306 	br	8a08 <Fat_FileRead+0x258>
        return FALSE;
    pVol = (VOLUME_INFO *)f->Fat;        
    
    if (!f->IsOpened){
        FAT_DEBUG(("[FAT] Fat_FileRead, file not opened\r\n"));
        return bSuccess;
    89fc:	00800044 	movi	r2,1
    8a00:	00000106 	br	8a08 <Fat_FileRead+0x258>
    8a04:	0005883a 	mov	r2,zero
        f->SeekPos += nBufferSize;
    }        
        
    
    return bSuccess;
}
    8a08:	dfc00c17 	ldw	ra,48(sp)
    8a0c:	df000b17 	ldw	fp,44(sp)
    8a10:	ddc00a17 	ldw	r23,40(sp)
    8a14:	dd800917 	ldw	r22,36(sp)
    8a18:	dd400817 	ldw	r21,32(sp)
    8a1c:	dd000717 	ldw	r20,28(sp)
    8a20:	dcc00617 	ldw	r19,24(sp)
    8a24:	dc800517 	ldw	r18,20(sp)
    8a28:	dc400417 	ldw	r17,16(sp)
    8a2c:	dc000317 	ldw	r16,12(sp)
    8a30:	dec00d04 	addi	sp,sp,52
    8a34:	f800283a 	ret
    alt_u32 BytesPerCluster, nReadCount=0, nClusterSeq;
    int s;
    bool bSuccess= TRUE;
    
    if (!f || !f->Fat)
        return FALSE;
    8a38:	0005883a 	mov	r2,zero
        f->SeekPos += nBufferSize;
    }        
        
    
    return bSuccess;
}
    8a3c:	f800283a 	ret

00008a40 <Fat_FileSeek>:
bool Fat_FileSeek(FAT_FILE_HANDLE hFileHandle, const FAT_SEEK_POS SeekPos, const int nOffset){
    FAT_FILE_INFO *f = (FAT_FILE_INFO *)hFileHandle;
    VOLUME_INFO *pVol;
    bool bSuccess= TRUE;

    if (!f || !f->Fat)
    8a40:	20001826 	beq	r4,zero,8aa4 <Fat_FileSeek+0x64>
    8a44:	20804f17 	ldw	r2,316(r4)
    8a48:	10001626 	beq	r2,zero,8aa4 <Fat_FileSeek+0x64>
        return FALSE;
    pVol = (VOLUME_INFO *)f->Fat;        
    
    if (!f->IsOpened)
    8a4c:	20800017 	ldw	r2,0(r4)
    8a50:	10001526 	beq	r2,zero,8aa8 <Fat_FileSeek+0x68>
        return FALSE;
        
    switch(SeekPos){
    8a54:	00800044 	movi	r2,1
    8a58:	28800626 	beq	r5,r2,8a74 <Fat_FileSeek+0x34>
    8a5c:	28000a26 	beq	r5,zero,8a88 <Fat_FileSeek+0x48>
    8a60:	00c00084 	movi	r3,2
    8a64:	28c00a1e 	bne	r5,r3,8a90 <Fat_FileSeek+0x50>
            break;
        case FILE_SEEK_CURRENT: 
            f->SeekPos += nOffset; 
            break;
        case FILE_SEEK_END: 
            f->SeekPos = f->Directory.FileSize+nOffset; 
    8a68:	20c04e17 	ldw	r3,312(r4)
    8a6c:	198d883a 	add	r6,r3,r6
    8a70:	00000506 	br	8a88 <Fat_FileSeek+0x48>
    switch(SeekPos){
        case FILE_SEEK_BEGIN: 
            f->SeekPos = nOffset; 
            break;
        case FILE_SEEK_CURRENT: 
            f->SeekPos += nOffset; 
    8a74:	20800217 	ldw	r2,8(r4)
    8a78:	118d883a 	add	r6,r2,r6
    8a7c:	21800215 	stw	r6,8(r4)


bool Fat_FileSeek(FAT_FILE_HANDLE hFileHandle, const FAT_SEEK_POS SeekPos, const int nOffset){
    FAT_FILE_INFO *f = (FAT_FILE_INFO *)hFileHandle;
    VOLUME_INFO *pVol;
    bool bSuccess= TRUE;
    8a80:	2805883a 	mov	r2,r5
        case FILE_SEEK_BEGIN: 
            f->SeekPos = nOffset; 
            break;
        case FILE_SEEK_CURRENT: 
            f->SeekPos += nOffset; 
            break;
    8a84:	00000306 	br	8a94 <Fat_FileSeek+0x54>
        case FILE_SEEK_END: 
            f->SeekPos = f->Directory.FileSize+nOffset; 
    8a88:	21800215 	stw	r6,8(r4)
            break;
    8a8c:	00000106 	br	8a94 <Fat_FileSeek+0x54>
        default:
            bSuccess = FALSE;
    8a90:	0005883a 	mov	r2,zero
            break;    
              
    }
    f->Cluster = f->Directory.FirstLogicalCluster;
    8a94:	20c04d8b 	ldhu	r3,310(r4)
    f->ClusterSeq = 0;
    8a98:	20000415 	stw	zero,16(r4)
        default:
            bSuccess = FALSE;
            break;    
              
    }
    f->Cluster = f->Directory.FirstLogicalCluster;
    8a9c:	20c00315 	stw	r3,12(r4)
    f->ClusterSeq = 0;
    
    return bSuccess;
    8aa0:	f800283a 	ret
    FAT_FILE_INFO *f = (FAT_FILE_INFO *)hFileHandle;
    VOLUME_INFO *pVol;
    bool bSuccess= TRUE;

    if (!f || !f->Fat)
        return FALSE;
    8aa4:	0005883a 	mov	r2,zero
    f->Cluster = f->Directory.FirstLogicalCluster;
    f->ClusterSeq = 0;
    
    return bSuccess;
    
}
    8aa8:	f800283a 	ret

00008aac <Fat_FileClose>:

void Fat_FileClose(FAT_FILE_HANDLE hFileHandle){
    FAT_FILE_INFO *f = (FAT_FILE_INFO *)hFileHandle;
    if (!f)
    8aac:	20000126 	beq	r4,zero,8ab4 <Fat_FileClose+0x8>
        return;
        
    free(f);        
    8ab0:	000c2081 	jmpi	c208 <free>
    8ab4:	f800283a 	ret

00008ab8 <Fat_FileExist>:





bool Fat_FileExist(FAT_HANDLE Fat, const char *pFilename){
    8ab8:	deffb004 	addi	sp,sp,-320
    8abc:	dc004d15 	stw	r16,308(sp)
    8ac0:	2821883a 	mov	r16,r5
    bool bFind = FALSE;
    FAT_BROWSE_HANDLE hBrowse;     
    FILE_CONTEXT FileContext;
    if (Fat_FileBrowseBegin(Fat, &hBrowse)){
    8ac4:	d9404a04 	addi	r5,sp,296





bool Fat_FileExist(FAT_HANDLE Fat, const char *pFilename){
    8ac8:	dc404e15 	stw	r17,312(sp)
    8acc:	dfc04f15 	stw	ra,316(sp)
    8ad0:	2023883a 	mov	r17,r4
    bool bFind = FALSE;
    FAT_BROWSE_HANDLE hBrowse;     
    FILE_CONTEXT FileContext;
    if (Fat_FileBrowseBegin(Fat, &hBrowse)){
    8ad4:	00082ec0 	call	82ec <Fat_FileBrowseBegin>
    8ad8:	10001126 	beq	r2,zero,8b20 <Fat_FileExist+0x68>
        while (!bFind && Fat_FileBrowseNext(&hBrowse, &FileContext)){
    8adc:	d80b883a 	mov	r5,sp
    8ae0:	d9004a04 	addi	r4,sp,296
    8ae4:	00083ec0 	call	83ec <Fat_FileBrowseNext>
    8ae8:	10000926 	beq	r2,zero,8b10 <Fat_FileExist+0x58>
            if (FileContext.bLongFilename){
    8aec:	d8804017 	ldw	r2,256(sp)
                bFind = fatSameLongFilename((alt_u16 *)FileContext.szName, (alt_u16 *)pFilename);
    8af0:	800b883a 	mov	r5,r16
    8af4:	d809883a 	mov	r4,sp
    bool bFind = FALSE;
    FAT_BROWSE_HANDLE hBrowse;     
    FILE_CONTEXT FileContext;
    if (Fat_FileBrowseBegin(Fat, &hBrowse)){
        while (!bFind && Fat_FileBrowseNext(&hBrowse, &FileContext)){
            if (FileContext.bLongFilename){
    8af8:	10000226 	beq	r2,zero,8b04 <Fat_FileExist+0x4c>
                bFind = fatSameLongFilename((alt_u16 *)FileContext.szName, (alt_u16 *)pFilename);
    8afc:	00083140 	call	8314 <fatSameLongFilename>
    8b00:	00000206 	br	8b0c <Fat_FileExist+0x54>
            }else{
                if (strcmpi(FileContext.szName, pFilename) == 0)
    8b04:	000c70c0 	call	c70c <strcasecmp>
    FAT_BROWSE_HANDLE hBrowse;     
    FILE_CONTEXT FileContext;
    if (Fat_FileBrowseBegin(Fat, &hBrowse)){
        while (!bFind && Fat_FileBrowseNext(&hBrowse, &FileContext)){
            if (FileContext.bLongFilename){
                bFind = fatSameLongFilename((alt_u16 *)FileContext.szName, (alt_u16 *)pFilename);
    8b08:	1005003a 	cmpeq	r2,r2,zero
bool Fat_FileExist(FAT_HANDLE Fat, const char *pFilename){
    bool bFind = FALSE;
    FAT_BROWSE_HANDLE hBrowse;     
    FILE_CONTEXT FileContext;
    if (Fat_FileBrowseBegin(Fat, &hBrowse)){
        while (!bFind && Fat_FileBrowseNext(&hBrowse, &FileContext)){
    8b0c:	103ff326 	beq	r2,zero,8adc <_gp+0xffff27c0>
            }else{
                if (strcmpi(FileContext.szName, pFilename) == 0)
                    bFind = TRUE;
            }    
        } // while 
        Fat_FileClose(Fat); 
    8b10:	8809883a 	mov	r4,r17
    8b14:	d8804c15 	stw	r2,304(sp)
    8b18:	0008aac0 	call	8aac <Fat_FileClose>
    8b1c:	d8804c17 	ldw	r2,304(sp)
    }
    return bFind;            
}    
    8b20:	dfc04f17 	ldw	ra,316(sp)
    8b24:	dc404e17 	ldw	r17,312(sp)
    8b28:	dc004d17 	ldw	r16,308(sp)
    8b2c:	dec05004 	addi	sp,sp,320
    8b30:	f800283a 	ret

00008b34 <Fat_SpeedTest>:
    alt_u32 time_start, time_finish, time_elapsed, TotalReadBytes=0;
    int nSecter = 0;
    float fMegaBytePerSec = 0;
    char szBlock[512];
    VOLUME_INFO *pVol = (VOLUME_INFO *)hFat;
    if (!pVol)
    8b34:	20004726 	beq	r4,zero,8c54 <Fat_SpeedTest+0x120>
    free(f);        
}



float Fat_SpeedTest(FAT_HANDLE hFat, alt_u32 TestDurInMs){
    8b38:	deff7a04 	addi	sp,sp,-536
    8b3c:	dc008015 	stw	r16,512(sp)
    8b40:	2021883a 	mov	r16,r4
    8b44:	2809883a 	mov	r4,r5
    char szBlock[512];
    VOLUME_INFO *pVol = (VOLUME_INFO *)hFat;
    if (!pVol)
        return 0;
    time_start = alt_nticks();
    time_finish = alt_nticks() + TestDurInMs * 1000 / alt_ticks_per_second();
    8b48:	0140fa04 	movi	r5,1000
    free(f);        
}



float Fat_SpeedTest(FAT_HANDLE hFat, alt_u32 TestDurInMs){
    8b4c:	dfc08515 	stw	ra,532(sp)
    8b50:	dcc08315 	stw	r19,524(sp)
    8b54:	dc808215 	stw	r18,520(sp)
    8b58:	dc408115 	stw	r17,516(sp)
    8b5c:	dd008415 	stw	r20,528(sp)
    char szBlock[512];
    VOLUME_INFO *pVol = (VOLUME_INFO *)hFat;
    if (!pVol)
        return 0;
    time_start = alt_nticks();
    time_finish = alt_nticks() + TestDurInMs * 1000 / alt_ticks_per_second();
    8b60:	000ace40 	call	ace4 <__mulsi3>
    8b64:	d1604f17 	ldw	r5,-32452(gp)
 * alt_nticks() returns the elapsed number of system clock ticks since reset.
 */

static ALT_INLINE alt_u32 ALT_ALWAYS_INLINE alt_nticks (void)
{
  return _alt_nticks;
    8b68:	d4e04e17 	ldw	r19,-32456(gp)
    8b6c:	d4a04e17 	ldw	r18,-32456(gp)
    8b70:	1009883a 	mov	r4,r2
    8b74:	000ac280 	call	ac28 <__udivsi3>
    8b78:	14a5883a 	add	r18,r2,r18


float Fat_SpeedTest(FAT_HANDLE hFat, alt_u32 TestDurInMs){
    bool bSuccess = TRUE;
    alt_u32 time_start, time_finish, time_elapsed, TotalReadBytes=0;
    int nSecter = 0;
    8b7c:	0023883a 	mov	r17,zero
}



float Fat_SpeedTest(FAT_HANDLE hFat, alt_u32 TestDurInMs){
    bool bSuccess = TRUE;
    8b80:	00800044 	movi	r2,1
    8b84:	d0e04e17 	ldw	r3,-32456(gp)
    8b88:	8828927a 	slli	r20,r17,9
    VOLUME_INFO *pVol = (VOLUME_INFO *)hFat;
    if (!pVol)
        return 0;
    time_start = alt_nticks();
    time_finish = alt_nticks() + TestDurInMs * 1000 / alt_ticks_per_second();
    while(alt_nticks() < time_finish && bSuccess){
    8b8c:	1c800a2e 	bgeu	r3,r18,8bb8 <Fat_SpeedTest+0x84>
    8b90:	1000021e 	bne	r2,zero,8b9c <Fat_SpeedTest+0x68>
    int nSecter = 0;
    float fMegaBytePerSec = 0;
    char szBlock[512];
    VOLUME_INFO *pVol = (VOLUME_INFO *)hFat;
    if (!pVol)
        return 0;
    8b94:	0005883a 	mov	r2,zero
    8b98:	00002606 	br	8c34 <Fat_SpeedTest+0x100>
    time_start = alt_nticks();
    time_finish = alt_nticks() + TestDurInMs * 1000 / alt_ticks_per_second();
    while(alt_nticks() < time_finish && bSuccess){
        bSuccess = pVol->ReadBlock512(pVol->DiskHandle, nSecter, szBlock);
    8b9c:	80800117 	ldw	r2,4(r16)
    8ba0:	81000017 	ldw	r4,0(r16)
    8ba4:	880b883a 	mov	r5,r17
    8ba8:	d80d883a 	mov	r6,sp
    8bac:	103ee83a 	callr	r2
        nSecter++;
    8bb0:	8c400044 	addi	r17,r17,1
    8bb4:	003ff306 	br	8b84 <_gp+0xffff2868>
        TotalReadBytes += sizeof(szBlock);
        
    }        
    if (bSuccess){
    8bb8:	103ff626 	beq	r2,zero,8b94 <_gp+0xffff2878>
        time_elapsed = alt_nticks() - time_start;
        fMegaBytePerSec = (float)TotalReadBytes * (float)alt_ticks_per_second() / (float)time_elapsed / 1024.0 / 1024.0;
    8bbc:	d1204f17 	ldw	r4,-32452(gp)
    8bc0:	d4604e17 	ldw	r17,-32456(gp)
    8bc4:	000b57c0 	call	b57c <__floatunsisf>
    8bc8:	a009883a 	mov	r4,r20
    8bcc:	1021883a 	mov	r16,r2
    8bd0:	000b57c0 	call	b57c <__floatunsisf>
    8bd4:	100b883a 	mov	r5,r2
    8bd8:	8009883a 	mov	r4,r16
    8bdc:	000b14c0 	call	b14c <__mulsf3>
    8be0:	8cc9c83a 	sub	r4,r17,r19
    8be4:	1021883a 	mov	r16,r2
    8be8:	000b57c0 	call	b57c <__floatunsisf>
    8bec:	100b883a 	mov	r5,r2
    8bf0:	8009883a 	mov	r4,r16
    8bf4:	000ad0c0 	call	ad0c <__divsf3>
    8bf8:	1009883a 	mov	r4,r2
    8bfc:	000bed80 	call	bed8 <__extendsfdf2>
    8c00:	000d883a 	mov	r6,zero
    8c04:	01cfd434 	movhi	r7,16208
    8c08:	1009883a 	mov	r4,r2
    8c0c:	180b883a 	mov	r5,r3
    8c10:	000b66c0 	call	b66c <__muldf3>
    8c14:	1009883a 	mov	r4,r2
    8c18:	180b883a 	mov	r5,r3
    8c1c:	000d883a 	mov	r6,zero
    8c20:	01cfd434 	movhi	r7,16208
    8c24:	000b66c0 	call	b66c <__muldf3>
    8c28:	1009883a 	mov	r4,r2
    8c2c:	180b883a 	mov	r5,r3
    8c30:	000bfe80 	call	bfe8 <__truncdfsf2>
    }        
    return fMegaBytePerSec;
    
   
}
    8c34:	dfc08517 	ldw	ra,532(sp)
    8c38:	dd008417 	ldw	r20,528(sp)
    8c3c:	dcc08317 	ldw	r19,524(sp)
    8c40:	dc808217 	ldw	r18,520(sp)
    8c44:	dc408117 	ldw	r17,516(sp)
    8c48:	dc008017 	ldw	r16,512(sp)
    8c4c:	dec08604 	addi	sp,sp,536
    8c50:	f800283a 	ret
    int nSecter = 0;
    float fMegaBytePerSec = 0;
    char szBlock[512];
    VOLUME_INFO *pVol = (VOLUME_INFO *)hFat;
    if (!pVol)
        return 0;
    8c54:	0005883a 	mov	r2,zero
        fMegaBytePerSec = (float)TotalReadBytes * (float)alt_ticks_per_second() / (float)time_elapsed / 1024.0 / 1024.0;
    }        
    return fMegaBytePerSec;
    
   
}
    8c58:	f800283a 	ret

00008c5c <SD_ReadBlock512>:
}

//===================== SUPPORT_SD_CARD =================================================
#ifdef SUPPORT_SD_CARD

bool SD_ReadBlock512(DISK_HANDLE DiskHandle, alt_u32 PysicalSelector, alt_u8 szBuf[512]){
    8c5c:	2809883a 	mov	r4,r5
    return SDLIB_ReadBlock512(PysicalSelector, szBuf);
    8c60:	300b883a 	mov	r5,r6
    8c64:	0009dec1 	jmpi	9dec <SDLIB_ReadBlock512>

00008c68 <SD_WriteBlock512>:
}

bool SD_WriteBlock512(DISK_HANDLE DiskHandle, alt_u32 PysicalSelector, alt_u8 szBuf[512]){
    8c68:	2809883a 	mov	r4,r5
    return SDLIB_WriteBlock512(PysicalSelector, szBuf);
    8c6c:	300b883a 	mov	r5,r6
    8c70:	0009e441 	jmpi	9e44 <SDLIB_WriteBlock512>

00008c74 <fat16ClusterType>:



CLUSTER_TYPE fat16ClusterType(alt_u32 Fat){
    CLUSTER_TYPE Type;
    Fat = Fat & 0xFFFF; // 16 bits
    8c74:	213fffcc 	andi	r4,r4,65535
    
    if (Fat > 0 && Fat < 0xFFF0)
    8c78:	20ffffc4 	addi	r3,r4,-1
    8c7c:	017ffb94 	movui	r5,65518
    8c80:	28c00b2e 	bgeu	r5,r3,8cb0 <fat16ClusterType+0x3c>
        Type = CLUSTER_NEXT_INFILE;
    else if (Fat >= 0xFFF8) // && Fat <= (unsigned short)0xFFFF)
    8c84:	017ffdd4 	movui	r5,65527
    8c88:	29000b36 	bltu	r5,r4,8cb8 <fat16ClusterType+0x44>
        Type = CLUSTER_LAST_INFILE;
    else if (Fat == (alt_u16)0x00)
    8c8c:	20000c26 	beq	r4,zero,8cc0 <fat16ClusterType+0x4c>
        Type = CLUSTER_UNUSED;
    else if (Fat >= 0xFFF0 && Fat <= 0xFFF6)
    8c90:	00fffff4 	movhi	r3,65535
    8c94:	18c00404 	addi	r3,r3,16
    8c98:	20c7883a 	add	r3,r4,r3
    8c9c:	01800184 	movi	r6,6
    8ca0:	30c0092e 	bgeu	r6,r3,8cc8 <fat16ClusterType+0x54>
        Type = CLUSTER_RESERVED;
    else if (Fat == 0xFFF7)
    8ca4:	2140091e 	bne	r4,r5,8ccc <fat16ClusterType+0x58>
        Type = CLUSTER_BAD;
    8ca8:	00800084 	movi	r2,2
    8cac:	f800283a 	ret
CLUSTER_TYPE fat16ClusterType(alt_u32 Fat){
    CLUSTER_TYPE Type;
    Fat = Fat & 0xFFFF; // 16 bits
    
    if (Fat > 0 && Fat < 0xFFF0)
        Type = CLUSTER_NEXT_INFILE;
    8cb0:	00800104 	movi	r2,4
    8cb4:	f800283a 	ret
    else if (Fat >= 0xFFF8) // && Fat <= (unsigned short)0xFFFF)
        Type = CLUSTER_LAST_INFILE;
    8cb8:	008000c4 	movi	r2,3
    8cbc:	f800283a 	ret
    else if (Fat == (alt_u16)0x00)
        Type = CLUSTER_UNUSED;
    8cc0:	0005883a 	mov	r2,zero
    8cc4:	f800283a 	ret
    else if (Fat >= 0xFFF0 && Fat <= 0xFFF6)
        Type = CLUSTER_RESERVED;
    8cc8:	00800044 	movi	r2,1
    else if (Fat == 0xFFF7)
        Type = CLUSTER_BAD;
        
    return Type;        
         
}
    8ccc:	f800283a 	ret

00008cd0 <fat32ClusterType>:

CLUSTER_TYPE fat32ClusterType(alt_u32 Fat){
    CLUSTER_TYPE Type;
    Fat = Fat & 0xFFFFFFF; // 28 bits
    8cd0:	00c40034 	movhi	r3,4096
    8cd4:	18ffffc4 	addi	r3,r3,-1
    8cd8:	20c8703a 	and	r4,r4,r3
    
    if (Fat > 0 && Fat < 0xFFFFFF0)
    8cdc:	01440034 	movhi	r5,4096
    8ce0:	20ffffc4 	addi	r3,r4,-1
    8ce4:	297ffb84 	addi	r5,r5,-18
    8ce8:	28c00c2e 	bgeu	r5,r3,8d1c <fat32ClusterType+0x4c>
        Type = CLUSTER_NEXT_INFILE;
    else if (Fat >= 0xFFFFFF8) // && Fat <= (unsigned short)0xFFFF)
    8cec:	01440034 	movhi	r5,4096
    8cf0:	297ffdc4 	addi	r5,r5,-9
    8cf4:	29000b36 	bltu	r5,r4,8d24 <fat32ClusterType+0x54>
        Type = CLUSTER_LAST_INFILE;
    else if (Fat == (alt_u32)0x00)
    8cf8:	20000c26 	beq	r4,zero,8d2c <fat32ClusterType+0x5c>
        Type = CLUSTER_UNUSED;
    else if (Fat >= 0xFFFFFF0 && Fat <= 0xFFFFFF6)
    8cfc:	00fc0034 	movhi	r3,61440
    8d00:	18c00404 	addi	r3,r3,16
    8d04:	20c7883a 	add	r3,r4,r3
    8d08:	01800184 	movi	r6,6
    8d0c:	30c0092e 	bgeu	r6,r3,8d34 <fat32ClusterType+0x64>
        Type = CLUSTER_RESERVED;
    else if (Fat == 0xFFFFFF7)
    8d10:	2140091e 	bne	r4,r5,8d38 <fat32ClusterType+0x68>
        Type = CLUSTER_BAD;
    8d14:	00800084 	movi	r2,2
    8d18:	f800283a 	ret
CLUSTER_TYPE fat32ClusterType(alt_u32 Fat){
    CLUSTER_TYPE Type;
    Fat = Fat & 0xFFFFFFF; // 28 bits
    
    if (Fat > 0 && Fat < 0xFFFFFF0)
        Type = CLUSTER_NEXT_INFILE;
    8d1c:	00800104 	movi	r2,4
    8d20:	f800283a 	ret
    else if (Fat >= 0xFFFFFF8) // && Fat <= (unsigned short)0xFFFF)
        Type = CLUSTER_LAST_INFILE;
    8d24:	008000c4 	movi	r2,3
    8d28:	f800283a 	ret
    else if (Fat == (alt_u32)0x00)
        Type = CLUSTER_UNUSED;
    8d2c:	0005883a 	mov	r2,zero
    8d30:	f800283a 	ret
    else if (Fat >= 0xFFFFFF0 && Fat <= 0xFFFFFF6)
        Type = CLUSTER_RESERVED;
    8d34:	00800044 	movi	r2,1
    else if (Fat == 0xFFFFFF7)
        Type = CLUSTER_BAD;
        
    return Type;        
         
}
    8d38:	f800283a 	ret

00008d3c <fatDumpDate>:
    8d3c:	f800283a 	ret

00008d40 <fatDumpTime>:
    Month = ((Date >> 5) & 0xF);
    Day = ((Date >> 0) & 0x1F);
    FAT_DEBUG(("%d,%d,%d", Year, Month, Day)); 
}

void fatDumpTime(unsigned short Date){
    8d40:	f800283a 	ret

00008d44 <fatIsLastDir>:
    M = ((Date >> 5) & 0x3F);
    S = ((Date >> 0) & 0x1F)*2;
    FAT_DEBUG(("%d:%d:%d", H, M, S));     
}

bool fatIsLastDir(FAT_DIRECTORY *pDir){
    8d44:	20800007 	ldb	r2,0(r4)
    if (pDir->Name[0] == REMAINED_UNUSED_DIR_ENTRY)  // 0x00
        return TRUE;
    return FALSE;        
}
    8d48:	1005003a 	cmpeq	r2,r2,zero
    8d4c:	f800283a 	ret

00008d50 <fatIsValidDir>:


bool fatIsValidDir(FAT_DIRECTORY *pDir){
    8d50:	defff904 	addi	sp,sp,-28
    char szTest[] = {0x00, 0xE5, 0x22, 0x2A, 0x2B, 0x2C, 0x2E, 0x2F, 0x3A, 0x3B, 0x3C, 0x3E, 0x3F, 0x5B, 0x5C, 0x5D, 0x7C};
    8d54:	01400074 	movhi	r5,1
        return TRUE;
    return FALSE;        
}


bool fatIsValidDir(FAT_DIRECTORY *pDir){
    8d58:	dc000515 	stw	r16,20(sp)
    char szTest[] = {0x00, 0xE5, 0x22, 0x2A, 0x2B, 0x2C, 0x2E, 0x2F, 0x3A, 0x3B, 0x3C, 0x3E, 0x3F, 0x5B, 0x5C, 0x5D, 0x7C};
    8d5c:	01800444 	movi	r6,17
        return TRUE;
    return FALSE;        
}


bool fatIsValidDir(FAT_DIRECTORY *pDir){
    8d60:	2021883a 	mov	r16,r4
    char szTest[] = {0x00, 0xE5, 0x22, 0x2A, 0x2B, 0x2C, 0x2E, 0x2F, 0x3A, 0x3B, 0x3C, 0x3E, 0x3F, 0x5B, 0x5C, 0x5D, 0x7C};
    8d64:	2976e684 	addi	r5,r5,-9318
    8d68:	d809883a 	mov	r4,sp
        return TRUE;
    return FALSE;        
}


bool fatIsValidDir(FAT_DIRECTORY *pDir){
    8d6c:	dfc00615 	stw	ra,24(sp)
    char szTest[] = {0x00, 0xE5, 0x22, 0x2A, 0x2B, 0x2C, 0x2E, 0x2F, 0x3A, 0x3B, 0x3C, 0x3E, 0x3F, 0x5B, 0x5C, 0x5D, 0x7C};
    8d70:	000c21c0 	call	c21c <memcpy>
    int i;
    
    for(i=0;i<sizeof(szTest)/sizeof(szTest[0]);i++){
    8d74:	0005883a 	mov	r2,zero
    8d78:	01000444 	movi	r4,17
        if (pDir->Name[0] == szTest[i]){
    8d7c:	d887883a 	add	r3,sp,r2
    8d80:	81400007 	ldb	r5,0(r16)
    8d84:	18c00007 	ldb	r3,0(r3)
    8d88:	28c00426 	beq	r5,r3,8d9c <fatIsValidDir+0x4c>

bool fatIsValidDir(FAT_DIRECTORY *pDir){
    char szTest[] = {0x00, 0xE5, 0x22, 0x2A, 0x2B, 0x2C, 0x2E, 0x2F, 0x3A, 0x3B, 0x3C, 0x3E, 0x3F, 0x5B, 0x5C, 0x5D, 0x7C};
    int i;
    
    for(i=0;i<sizeof(szTest)/sizeof(szTest[0]);i++){
    8d8c:	10800044 	addi	r2,r2,1
    8d90:	113ffa1e 	bne	r2,r4,8d7c <_gp+0xffff2a60>
        if (pDir->Name[0] == szTest[i]){
            return FALSE;
        }
    }    
    return TRUE;
    8d94:	00800044 	movi	r2,1
    8d98:	00000106 	br	8da0 <fatIsValidDir+0x50>
    char szTest[] = {0x00, 0xE5, 0x22, 0x2A, 0x2B, 0x2C, 0x2E, 0x2F, 0x3A, 0x3B, 0x3C, 0x3E, 0x3F, 0x5B, 0x5C, 0x5D, 0x7C};
    int i;
    
    for(i=0;i<sizeof(szTest)/sizeof(szTest[0]);i++){
        if (pDir->Name[0] == szTest[i]){
            return FALSE;
    8d9c:	0005883a 	mov	r2,zero
        }
    }    
    return TRUE;
    
}
    8da0:	dfc00617 	ldw	ra,24(sp)
    8da4:	dc000517 	ldw	r16,20(sp)
    8da8:	dec00704 	addi	sp,sp,28
    8dac:	f800283a 	ret

00008db0 <fatIsUnusedDir>:

bool fatIsUnusedDir(FAT_DIRECTORY *pDir){
    8db0:	20800007 	ldb	r2,0(r4)
    if (pDir->Name[0] == (alt_8)UNUSED_DIR_ENTRY)
        return TRUE;
    return FALSE; 
}
    8db4:	10bff960 	cmpeqi	r2,r2,-27
    8db8:	f800283a 	ret

00008dbc <fatDump>:

// debug
void fatDump(FAT_DIRECTORY *pDir){
    8dbc:	f800283a 	ret

00008dc0 <fatArray2Value>:
    FAT_DEBUG(("File Size:%08Xh(%ld)\n", pDir->FileSize, (long)pDir->FileSize));
}


unsigned int fatArray2Value(unsigned char *pValue, unsigned int nNum){
    alt_u8 *pMSB = (pValue + nNum - 1);
    8dc0:	28ffffc4 	addi	r3,r5,-1
    8dc4:	20c9883a 	add	r4,r4,r3
    8dc8:	214bc83a 	sub	r5,r4,r5
    alt_u32 nValue;
    int i;
    for(i=0;i<nNum;i++){
    8dcc:	21400526 	beq	r4,r5,8de4 <fatArray2Value+0x24>
        nValue <<= 8;
        nValue |= *pMSB--;
    8dd0:	20c00003 	ldbu	r3,0(r4)
unsigned int fatArray2Value(unsigned char *pValue, unsigned int nNum){
    alt_u8 *pMSB = (pValue + nNum - 1);
    alt_u32 nValue;
    int i;
    for(i=0;i<nNum;i++){
        nValue <<= 8;
    8dd4:	1004923a 	slli	r2,r2,8
    8dd8:	213fffc4 	addi	r4,r4,-1
        nValue |= *pMSB--;
    8ddc:	1884b03a 	or	r2,r3,r2
    8de0:	003ffa06 	br	8dcc <_gp+0xffff2ab0>
        
    }
    
    return nValue;
}
    8de4:	f800283a 	ret

00008de8 <fatReadSecter>:

//=================================================================================
//// add in v2.0
bool fatReadSecter(VOLUME_INFO *pVol, alt_u32 nSecter){
    bool bSuccess = TRUE;
    if (nSecter != pVol->Secter_Index){
    8de8:	20c09017 	ldw	r3,576(r4)
    8dec:	19401226 	beq	r3,r5,8e38 <fatReadSecter+0x50>
    return nValue;
}

//=================================================================================
//// add in v2.0
bool fatReadSecter(VOLUME_INFO *pVol, alt_u32 nSecter){
    8df0:	defffd04 	addi	sp,sp,-12
    8df4:	dc000015 	stw	r16,0(sp)
    bool bSuccess = TRUE;
    if (nSecter != pVol->Secter_Index){
        if (!pVol->ReadBlock512(pVol->DiskHandle, nSecter, pVol->Secter_Data)){
    8df8:	20800117 	ldw	r2,4(r4)
    8dfc:	2021883a 	mov	r16,r4
    8e00:	21801004 	addi	r6,r4,64
    8e04:	21000017 	ldw	r4,0(r4)
    return nValue;
}

//=================================================================================
//// add in v2.0
bool fatReadSecter(VOLUME_INFO *pVol, alt_u32 nSecter){
    8e08:	dc400115 	stw	r17,4(sp)
    8e0c:	dfc00215 	stw	ra,8(sp)
    8e10:	2823883a 	mov	r17,r5
    bool bSuccess = TRUE;
    if (nSecter != pVol->Secter_Index){
        if (!pVol->ReadBlock512(pVol->DiskHandle, nSecter, pVol->Secter_Data)){
    8e14:	103ee83a 	callr	r2
    8e18:	1000041e 	bne	r2,zero,8e2c <fatReadSecter+0x44>
            pVol->Secter_Index = -1;
    8e1c:	00bfffc4 	movi	r2,-1
    8e20:	80809015 	stw	r2,576(r16)
            bSuccess = FALSE;
    8e24:	0005883a 	mov	r2,zero
    8e28:	00000506 	br	8e40 <fatReadSecter+0x58>
        }else{
            pVol->Secter_Index = nSecter;
    8e2c:	84409015 	stw	r17,576(r16)
}

//=================================================================================
//// add in v2.0
bool fatReadSecter(VOLUME_INFO *pVol, alt_u32 nSecter){
    bool bSuccess = TRUE;
    8e30:	00800044 	movi	r2,1
    8e34:	00000206 	br	8e40 <fatReadSecter+0x58>
    8e38:	00800044 	movi	r2,1
    8e3c:	f800283a 	ret
        }else{
            pVol->Secter_Index = nSecter;
        }
    }
    return bSuccess;          
}     
    8e40:	dfc00217 	ldw	ra,8(sp)
    8e44:	dc400117 	ldw	r17,4(sp)
    8e48:	dc000017 	ldw	r16,0(sp)
    8e4c:	dec00304 	addi	sp,sp,12
    8e50:	f800283a 	ret

00008e54 <fatNextCluster>:
    if (ClusterType != CLUSTER_NEXT_INFILE && ClusterType != CLUSTER_LAST_INFILE){
        NextCluster = 0;  // invalid cluster
    }        
#else
    alt_32 nFatEntryPerSecter;
    const alt_32 nFatEntrySize = (pVol->Partition_Type == PARTITION_FAT32)?4:2; // 2 byte for FAT16
    8e54:	20c00317 	ldw	r3,12(r4)
        
    return Type;        
         
}

alt_u32 fatNextCluster(VOLUME_INFO *pVol, alt_u32 ThisCluster){
    8e58:	defffa04 	addi	sp,sp,-24
    8e5c:	dcc00315 	stw	r19,12(sp)
    8e60:	dc000015 	stw	r16,0(sp)
    8e64:	dfc00515 	stw	ra,20(sp)
    8e68:	dd000415 	stw	r20,16(sp)
    8e6c:	dc800215 	stw	r18,8(sp)
    8e70:	dc400115 	stw	r17,4(sp)
    if (ClusterType != CLUSTER_NEXT_INFILE && ClusterType != CLUSTER_LAST_INFILE){
        NextCluster = 0;  // invalid cluster
    }        
#else
    alt_32 nFatEntryPerSecter;
    const alt_32 nFatEntrySize = (pVol->Partition_Type == PARTITION_FAT32)?4:2; // 2 byte for FAT16
    8e74:	008002c4 	movi	r2,11
        
    return Type;        
         
}

alt_u32 fatNextCluster(VOLUME_INFO *pVol, alt_u32 ThisCluster){
    8e78:	2021883a 	mov	r16,r4
    8e7c:	2827883a 	mov	r19,r5
    if (ClusterType != CLUSTER_NEXT_INFILE && ClusterType != CLUSTER_LAST_INFILE){
        NextCluster = 0;  // invalid cluster
    }        
#else
    alt_32 nFatEntryPerSecter;
    const alt_32 nFatEntrySize = (pVol->Partition_Type == PARTITION_FAT32)?4:2; // 2 byte for FAT16
    8e80:	18800226 	beq	r3,r2,8e8c <fatNextCluster+0x38>
    8e84:	04800084 	movi	r18,2
    8e88:	00000106 	br	8e90 <fatNextCluster+0x3c>
    8e8c:	04800104 	movi	r18,4
    alt_u32 Secter;
   // char szBlock[512];
    nFatEntryPerSecter = pVol->BPB_BytsPerSec/nFatEntrySize; 
    8e90:	85000617 	ldw	r20,24(r16)
    Secter = pVol->FatEntrySecter + (ThisCluster*nFatEntrySize)/pVol->BPB_BytsPerSec;
    //if (pVol->ReadBlock512(pVol->DiskHandle, Secter,szBlock)){
    if (fatReadSecter(pVol, Secter)){
    8e94:	980b883a 	mov	r5,r19
    8e98:	9009883a 	mov	r4,r18
    8e9c:	000ace40 	call	ace4 <__mulsi3>
    8ea0:	a00b883a 	mov	r5,r20
    8ea4:	1009883a 	mov	r4,r2
    8ea8:	000ac280 	call	ac28 <__udivsi3>
    8eac:	81400d17 	ldw	r5,52(r16)
    8eb0:	8009883a 	mov	r4,r16
    8eb4:	114b883a 	add	r5,r2,r5
    8eb8:	0008de80 	call	8de8 <fatReadSecter>
    8ebc:	10001d26 	beq	r2,zero,8f34 <fatNextCluster+0xe0>
#else
    alt_32 nFatEntryPerSecter;
    const alt_32 nFatEntrySize = (pVol->Partition_Type == PARTITION_FAT32)?4:2; // 2 byte for FAT16
    alt_u32 Secter;
   // char szBlock[512];
    nFatEntryPerSecter = pVol->BPB_BytsPerSec/nFatEntrySize; 
    8ec0:	900b883a 	mov	r5,r18
    8ec4:	a009883a 	mov	r4,r20
    8ec8:	000ac280 	call	ac28 <__udivsi3>
    Secter = pVol->FatEntrySecter + (ThisCluster*nFatEntrySize)/pVol->BPB_BytsPerSec;
    //if (pVol->ReadBlock512(pVol->DiskHandle, Secter,szBlock)){
    if (fatReadSecter(pVol, Secter)){
        if (pVol->Partition_Type == PARTITION_FAT32){
    8ecc:	80c00317 	ldw	r3,12(r16)
#else
    alt_32 nFatEntryPerSecter;
    const alt_32 nFatEntrySize = (pVol->Partition_Type == PARTITION_FAT32)?4:2; // 2 byte for FAT16
    alt_u32 Secter;
   // char szBlock[512];
    nFatEntryPerSecter = pVol->BPB_BytsPerSec/nFatEntrySize; 
    8ed0:	100b883a 	mov	r5,r2
    Secter = pVol->FatEntrySecter + (ThisCluster*nFatEntrySize)/pVol->BPB_BytsPerSec;
    //if (pVol->ReadBlock512(pVol->DiskHandle, Secter,szBlock)){
    if (fatReadSecter(pVol, Secter)){
        if (pVol->Partition_Type == PARTITION_FAT32){
    8ed4:	008002c4 	movi	r2,11
            NextCluster = *(alt_u32*)(pVol->Secter_Data + (ThisCluster%nFatEntryPerSecter)*nFatEntrySize); 
    8ed8:	9809883a 	mov	r4,r19
   // char szBlock[512];
    nFatEntryPerSecter = pVol->BPB_BytsPerSec/nFatEntrySize; 
    Secter = pVol->FatEntrySecter + (ThisCluster*nFatEntrySize)/pVol->BPB_BytsPerSec;
    //if (pVol->ReadBlock512(pVol->DiskHandle, Secter,szBlock)){
    if (fatReadSecter(pVol, Secter)){
        if (pVol->Partition_Type == PARTITION_FAT32){
    8edc:	1880091e 	bne	r3,r2,8f04 <fatNextCluster+0xb0>
            NextCluster = *(alt_u32*)(pVol->Secter_Data + (ThisCluster%nFatEntryPerSecter)*nFatEntrySize); 
    8ee0:	000ac8c0 	call	ac8c <__umodsi3>
    8ee4:	900b883a 	mov	r5,r18
    8ee8:	1009883a 	mov	r4,r2
    8eec:	000ace40 	call	ace4 <__mulsi3>
    8ef0:	8085883a 	add	r2,r16,r2
    8ef4:	14401017 	ldw	r17,64(r2)
            ClusterType = fat32ClusterType(NextCluster);
    8ef8:	8809883a 	mov	r4,r17
    8efc:	0008cd00 	call	8cd0 <fat32ClusterType>
    8f00:	00000806 	br	8f24 <fatNextCluster+0xd0>
        }else{
            NextCluster = *(alt_u16 *)(pVol->Secter_Data + (ThisCluster%nFatEntryPerSecter)*nFatEntrySize); 
    8f04:	000ac8c0 	call	ac8c <__umodsi3>
    8f08:	1009883a 	mov	r4,r2
    8f0c:	900b883a 	mov	r5,r18
    8f10:	000ace40 	call	ace4 <__mulsi3>
    8f14:	8085883a 	add	r2,r16,r2
    8f18:	1440100b 	ldhu	r17,64(r2)
            ClusterType = fat16ClusterType(NextCluster);
    8f1c:	8809883a 	mov	r4,r17
    8f20:	0008c740 	call	8c74 <fat16ClusterType>
        }    
        if (ClusterType != CLUSTER_NEXT_INFILE && ClusterType != CLUSTER_LAST_INFILE)
    8f24:	10bfff44 	addi	r2,r2,-3
    8f28:	00c00044 	movi	r3,1
    8f2c:	1880012e 	bgeu	r3,r2,8f34 <fatNextCluster+0xe0>
            NextCluster = 0;  // invalid cluster
    8f30:	0023883a 	mov	r17,zero
    return NextCluster;

#endif    
    
    return NextCluster;
}
    8f34:	8805883a 	mov	r2,r17
    8f38:	dfc00517 	ldw	ra,20(sp)
    8f3c:	dd000417 	ldw	r20,16(sp)
    8f40:	dcc00317 	ldw	r19,12(sp)
    8f44:	dc800217 	ldw	r18,8(sp)
    8f48:	dc400117 	ldw	r17,4(sp)
    8f4c:	dc000017 	ldw	r16,0(sp)
    8f50:	dec00604 	addi	sp,sp,24
    8f54:	f800283a 	ret

00008f58 <fatFindUnusedCluster>:
alt_u32 fatFindUnusedCluster(VOLUME_INFO *pVol){
    CLUSTER_TYPE ClusterType;
    alt_u32 UnusedCluster=-1, ThisCluster = 2, ClusterEntryValue;
    void *pFatEntry;

    const alt_32 nFatEntrySize = (pVol->Partition_Type == PARTITION_FAT32)?4:2; // 2 byte for FAT16
    8f58:	20c00317 	ldw	r3,12(r4)
#endif    
    
    return NextCluster;
}

alt_u32 fatFindUnusedCluster(VOLUME_INFO *pVol){
    8f5c:	defff704 	addi	sp,sp,-36
    8f60:	dc000015 	stw	r16,0(sp)
    8f64:	dfc00815 	stw	ra,32(sp)
    8f68:	ddc00715 	stw	r23,28(sp)
    8f6c:	dd800615 	stw	r22,24(sp)
    8f70:	dd400515 	stw	r21,20(sp)
    8f74:	dd000415 	stw	r20,16(sp)
    8f78:	dcc00315 	stw	r19,12(sp)
    8f7c:	dc800215 	stw	r18,8(sp)
    8f80:	dc400115 	stw	r17,4(sp)
    CLUSTER_TYPE ClusterType;
    alt_u32 UnusedCluster=-1, ThisCluster = 2, ClusterEntryValue;
    void *pFatEntry;

    const alt_32 nFatEntrySize = (pVol->Partition_Type == PARTITION_FAT32)?4:2; // 2 byte for FAT16
    8f84:	008002c4 	movi	r2,11
#endif    
    
    return NextCluster;
}

alt_u32 fatFindUnusedCluster(VOLUME_INFO *pVol){
    8f88:	2021883a 	mov	r16,r4
    CLUSTER_TYPE ClusterType;
    alt_u32 UnusedCluster=-1, ThisCluster = 2, ClusterEntryValue;
    void *pFatEntry;

    const alt_32 nFatEntrySize = (pVol->Partition_Type == PARTITION_FAT32)?4:2; // 2 byte for FAT16
    8f8c:	18800226 	beq	r3,r2,8f98 <fatFindUnusedCluster+0x40>
    8f90:	04400084 	movi	r17,2
    8f94:	00000106 	br	8f9c <fatFindUnusedCluster+0x44>
    8f98:	04400104 	movi	r17,4
    const alt_32 nFatEntryPerSecter = pVol->BPB_BytsPerSec/nFatEntrySize;
    8f9c:	81000617 	ldw	r4,24(r16)
    8fa0:	880b883a 	mov	r5,r17
    8fa4:	8c67883a 	add	r19,r17,r17
    8fa8:	000ac280 	call	ac28 <__udivsi3>
    8fac:	102b883a 	mov	r21,r2
    return NextCluster;
}

alt_u32 fatFindUnusedCluster(VOLUME_INFO *pVol){
    CLUSTER_TYPE ClusterType;
    alt_u32 UnusedCluster=-1, ThisCluster = 2, ClusterEntryValue;
    8fb0:	04800084 	movi	r18,2
    8fb4:	053fffc4 	movi	r20,-1
    bool bDone = FALSE;

    while(!bDone){     
        Secter = pVol->FatEntrySecter + (ThisCluster*nFatEntrySize)/pVol->BPB_BytsPerSec;
        if (fatReadSecter(pVol, Secter)){
            pFatEntry = (pVol->Secter_Data + (ThisCluster%nFatEntryPerSecter)*nFatEntrySize);
    8fb8:	85801004 	addi	r22,r16,64
            if (pVol->Partition_Type == PARTITION_FAT32){
    8fbc:	05c002c4 	movi	r23,11
    alt_u32 Secter;
    bool bDone = FALSE;

    while(!bDone){     
        Secter = pVol->FatEntrySecter + (ThisCluster*nFatEntrySize)/pVol->BPB_BytsPerSec;
        if (fatReadSecter(pVol, Secter)){
    8fc0:	81400617 	ldw	r5,24(r16)
    8fc4:	9809883a 	mov	r4,r19
    8fc8:	000ac280 	call	ac28 <__udivsi3>
    8fcc:	81400d17 	ldw	r5,52(r16)
    8fd0:	8009883a 	mov	r4,r16
    8fd4:	114b883a 	add	r5,r2,r5
    8fd8:	0008de80 	call	8de8 <fatReadSecter>
    8fdc:	10001026 	beq	r2,zero,9020 <fatFindUnusedCluster+0xc8>
            pFatEntry = (pVol->Secter_Data + (ThisCluster%nFatEntryPerSecter)*nFatEntrySize);
    8fe0:	a80b883a 	mov	r5,r21
    8fe4:	9009883a 	mov	r4,r18
    8fe8:	000ac8c0 	call	ac8c <__umodsi3>
    8fec:	880b883a 	mov	r5,r17
    8ff0:	1009883a 	mov	r4,r2
    8ff4:	000ace40 	call	ace4 <__mulsi3>
            if (pVol->Partition_Type == PARTITION_FAT32){
    8ff8:	80c00317 	ldw	r3,12(r16)
    bool bDone = FALSE;

    while(!bDone){     
        Secter = pVol->FatEntrySecter + (ThisCluster*nFatEntrySize)/pVol->BPB_BytsPerSec;
        if (fatReadSecter(pVol, Secter)){
            pFatEntry = (pVol->Secter_Data + (ThisCluster%nFatEntryPerSecter)*nFatEntrySize);
    8ffc:	b085883a 	add	r2,r22,r2
            if (pVol->Partition_Type == PARTITION_FAT32){
    9000:	1dc0031e 	bne	r3,r23,9010 <fatFindUnusedCluster+0xb8>
                ClusterEntryValue = *(alt_u32*)pFatEntry; 
                ClusterType = fat32ClusterType(ClusterEntryValue);
    9004:	11000017 	ldw	r4,0(r2)
    9008:	0008cd00 	call	8cd0 <fat32ClusterType>
    900c:	00000206 	br	9018 <fatFindUnusedCluster+0xc0>
            }else{
                ClusterEntryValue = *(alt_u16 *)pFatEntry; 
                ClusterType = fat16ClusterType(ClusterEntryValue);
    9010:	1100000b 	ldhu	r4,0(r2)
    9014:	0008c740 	call	8c74 <fat16ClusterType>
            }    
            if (ClusterType == CLUSTER_UNUSED){
    9018:	1000031e 	bne	r2,zero,9028 <fatFindUnusedCluster+0xd0>
    901c:	9029883a 	mov	r20,r18
                UnusedCluster = ThisCluster;  // invalid cluster
                bDone = TRUE;
            }    
        }else{
            bDone = TRUE;
    9020:	00800044 	movi	r2,1
    9024:	00000106 	br	902c <fatFindUnusedCluster+0xd4>
    9028:	0005883a 	mov	r2,zero
        }     
        ThisCluster++;           
    902c:	94800044 	addi	r18,r18,1
    9030:	9c67883a 	add	r19,r19,r17
    const alt_32 nFatEntrySize = (pVol->Partition_Type == PARTITION_FAT32)?4:2; // 2 byte for FAT16
    const alt_32 nFatEntryPerSecter = pVol->BPB_BytsPerSec/nFatEntrySize;
    alt_u32 Secter;
    bool bDone = FALSE;

    while(!bDone){     
    9034:	103fe226 	beq	r2,zero,8fc0 <_gp+0xffff2ca4>
        ThisCluster++;           
    }                
    
    return UnusedCluster;

}
    9038:	a005883a 	mov	r2,r20
    903c:	dfc00817 	ldw	ra,32(sp)
    9040:	ddc00717 	ldw	r23,28(sp)
    9044:	dd800617 	ldw	r22,24(sp)
    9048:	dd400517 	ldw	r21,20(sp)
    904c:	dd000417 	ldw	r20,16(sp)
    9050:	dcc00317 	ldw	r19,12(sp)
    9054:	dc800217 	ldw	r18,8(sp)
    9058:	dc400117 	ldw	r17,4(sp)
    905c:	dc000017 	ldw	r16,0(sp)
    9060:	dec00904 	addi	sp,sp,36
    9064:	f800283a 	ret

00009068 <fatDelClusterList>:
    bool bDone = FALSE;
    alt_u32 ClusterIndex, Secter, ClusterEntryValue;
    void *pFatEntryValue;
    
    
    const int nFatEntrySize = (pVol->Partition_Type == PARTITION_FAT32)?4:2; // 2 byte for FAT16
    9068:	20c00317 	ldw	r3,12(r4)
    return UnusedCluster;

}


bool fatDelClusterList(VOLUME_INFO *pVol, alt_u32 StartCluster){
    906c:	defff404 	addi	sp,sp,-48
    9070:	dc800415 	stw	r18,16(sp)
    9074:	dc000215 	stw	r16,8(sp)
    9078:	dfc00b15 	stw	ra,44(sp)
    907c:	df000a15 	stw	fp,40(sp)
    9080:	ddc00915 	stw	r23,36(sp)
    9084:	dd800815 	stw	r22,32(sp)
    9088:	dd400715 	stw	r21,28(sp)
    908c:	dd000615 	stw	r20,24(sp)
    9090:	dcc00515 	stw	r19,20(sp)
    9094:	dc400315 	stw	r17,12(sp)
    bool bDone = FALSE;
    alt_u32 ClusterIndex, Secter, ClusterEntryValue;
    void *pFatEntryValue;
    
    
    const int nFatEntrySize = (pVol->Partition_Type == PARTITION_FAT32)?4:2; // 2 byte for FAT16
    9098:	008002c4 	movi	r2,11
    return UnusedCluster;

}


bool fatDelClusterList(VOLUME_INFO *pVol, alt_u32 StartCluster){
    909c:	2021883a 	mov	r16,r4
    90a0:	2825883a 	mov	r18,r5
    bool bDone = FALSE;
    alt_u32 ClusterIndex, Secter, ClusterEntryValue;
    void *pFatEntryValue;
    
    
    const int nFatEntrySize = (pVol->Partition_Type == PARTITION_FAT32)?4:2; // 2 byte for FAT16
    90a4:	18800226 	beq	r3,r2,90b0 <fatDelClusterList+0x48>
    90a8:	04400084 	movi	r17,2
    90ac:	00000106 	br	90b4 <fatDelClusterList+0x4c>
    90b0:	04400104 	movi	r17,4
    const int nFatEntryPerSecter = pVol->BPB_BytsPerSec/nFatEntrySize;
    90b4:	81000617 	ldw	r4,24(r16)
    90b8:	880b883a 	mov	r5,r17
        // read FAT Table
        Secter = pVol->FatEntrySecter + (ClusterIndex*nFatEntrySize)/pVol->BPB_BytsPerSec;
        bSuccess = fatReadSecter(pVol, Secter);
        if (bSuccess){
            // get the value of FAT entry
            pFatEntryValue = (pVol->Secter_Data + (ClusterIndex%nFatEntryPerSecter)*nFatEntrySize);
    90bc:	84c01004 	addi	r19,r16,64
    alt_u32 ClusterIndex, Secter, ClusterEntryValue;
    void *pFatEntryValue;
    
    
    const int nFatEntrySize = (pVol->Partition_Type == PARTITION_FAT32)?4:2; // 2 byte for FAT16
    const int nFatEntryPerSecter = pVol->BPB_BytsPerSec/nFatEntrySize;
    90c0:	000ac280 	call	ac28 <__udivsi3>
     
    ClusterIndex = StartCluster;
    while(bSuccess && !bDone){
        // read FAT Table
        Secter = pVol->FatEntrySecter + (ClusterIndex*nFatEntrySize)/pVol->BPB_BytsPerSec;
    90c4:	900b883a 	mov	r5,r18
    90c8:	8809883a 	mov	r4,r17
    alt_u32 ClusterIndex, Secter, ClusterEntryValue;
    void *pFatEntryValue;
    
    
    const int nFatEntrySize = (pVol->Partition_Type == PARTITION_FAT32)?4:2; // 2 byte for FAT16
    const int nFatEntryPerSecter = pVol->BPB_BytsPerSec/nFatEntrySize;
    90cc:	d8800015 	stw	r2,0(sp)
     
    ClusterIndex = StartCluster;
    while(bSuccess && !bDone){
        // read FAT Table
        Secter = pVol->FatEntrySecter + (ClusterIndex*nFatEntrySize)/pVol->BPB_BytsPerSec;
    90d0:	000ace40 	call	ace4 <__mulsi3>
    90d4:	102f883a 	mov	r23,r2
}


bool fatDelClusterList(VOLUME_INFO *pVol, alt_u32 StartCluster){
    CLUSTER_TYPE ClusterType;
    bool bSuccess = TRUE;
    90d8:	00800044 	movi	r2,1
    bool bDone = FALSE;
    90dc:	0007883a 	mov	r3,zero
        Secter = pVol->FatEntrySecter + (ClusterIndex*nFatEntrySize)/pVol->BPB_BytsPerSec;
        bSuccess = fatReadSecter(pVol, Secter);
        if (bSuccess){
            // get the value of FAT entry
            pFatEntryValue = (pVol->Secter_Data + (ClusterIndex%nFatEntryPerSecter)*nFatEntrySize);
            if (pVol->Partition_Type == PARTITION_FAT32){
    90e0:	050002c4 	movi	r20,11
            }else{
                ClusterEntryValue = *(alt_u16 *)pFatEntryValue; //(pVol->Secter_Data + (ThisCluster%nFatEntryPerSecter)*nFatEntrySize); 
                ClusterType = fat16ClusterType(ClusterEntryValue);
            }
                
            if (ClusterType != CLUSTER_NEXT_INFILE && ClusterType != CLUSTER_LAST_INFILE){
    90e4:	1039883a 	mov	fp,r2
    
    const int nFatEntrySize = (pVol->Partition_Type == PARTITION_FAT32)?4:2; // 2 byte for FAT16
    const int nFatEntryPerSecter = pVol->BPB_BytsPerSec/nFatEntrySize;
     
    ClusterIndex = StartCluster;
    while(bSuccess && !bDone){
    90e8:	1000021e 	bne	r2,zero,90f4 <fatDelClusterList+0x8c>
}


bool fatDelClusterList(VOLUME_INFO *pVol, alt_u32 StartCluster){
    CLUSTER_TYPE ClusterType;
    bool bSuccess = TRUE;
    90ec:	0005883a 	mov	r2,zero
    90f0:	00002606 	br	918c <fatDelClusterList+0x124>
    
    const int nFatEntrySize = (pVol->Partition_Type == PARTITION_FAT32)?4:2; // 2 byte for FAT16
    const int nFatEntryPerSecter = pVol->BPB_BytsPerSec/nFatEntrySize;
     
    ClusterIndex = StartCluster;
    while(bSuccess && !bDone){
    90f4:	1800251e 	bne	r3,zero,918c <fatDelClusterList+0x124>
        // read FAT Table
        Secter = pVol->FatEntrySecter + (ClusterIndex*nFatEntrySize)/pVol->BPB_BytsPerSec;
        bSuccess = fatReadSecter(pVol, Secter);
    90f8:	81400617 	ldw	r5,24(r16)
    90fc:	b809883a 	mov	r4,r23
    9100:	000ac280 	call	ac28 <__udivsi3>
    9104:	81400d17 	ldw	r5,52(r16)
    9108:	8009883a 	mov	r4,r16
    910c:	114b883a 	add	r5,r2,r5
    9110:	0008de80 	call	8de8 <fatReadSecter>
        if (bSuccess){
    9114:	103ff526 	beq	r2,zero,90ec <_gp+0xffff2dd0>
            // get the value of FAT entry
            pFatEntryValue = (pVol->Secter_Data + (ClusterIndex%nFatEntryPerSecter)*nFatEntrySize);
    9118:	d9400017 	ldw	r5,0(sp)
    911c:	9009883a 	mov	r4,r18
    9120:	000ac8c0 	call	ac8c <__umodsi3>
    9124:	880b883a 	mov	r5,r17
    9128:	1009883a 	mov	r4,r2
    912c:	000ace40 	call	ace4 <__mulsi3>
            if (pVol->Partition_Type == PARTITION_FAT32){
    9130:	85400317 	ldw	r21,12(r16)
        // read FAT Table
        Secter = pVol->FatEntrySecter + (ClusterIndex*nFatEntrySize)/pVol->BPB_BytsPerSec;
        bSuccess = fatReadSecter(pVol, Secter);
        if (bSuccess){
            // get the value of FAT entry
            pFatEntryValue = (pVol->Secter_Data + (ClusterIndex%nFatEntryPerSecter)*nFatEntrySize);
    9134:	98ad883a 	add	r22,r19,r2
            if (pVol->Partition_Type == PARTITION_FAT32){
    9138:	ad00031e 	bne	r21,r20,9148 <fatDelClusterList+0xe0>
                ClusterEntryValue = *(alt_u32 *)pFatEntryValue; 
                ClusterType = fat32ClusterType(ClusterEntryValue);
    913c:	b1000017 	ldw	r4,0(r22)
    9140:	0008cd00 	call	8cd0 <fat32ClusterType>
    9144:	00000206 	br	9150 <fatDelClusterList+0xe8>
            }else{
                ClusterEntryValue = *(alt_u16 *)pFatEntryValue; //(pVol->Secter_Data + (ThisCluster%nFatEntryPerSecter)*nFatEntrySize); 
                ClusterType = fat16ClusterType(ClusterEntryValue);
    9148:	b100000b 	ldhu	r4,0(r22)
    914c:	0008c740 	call	8c74 <fat16ClusterType>
            }
                
            if (ClusterType != CLUSTER_NEXT_INFILE && ClusterType != CLUSTER_LAST_INFILE){
    9150:	10ffff44 	addi	r3,r2,-3
    9154:	e0ffe536 	bltu	fp,r3,90ec <_gp+0xffff2dd0>
                bDone = TRUE;
                bSuccess = FALSE;
            }else{
                if (ClusterType == CLUSTER_LAST_INFILE)
                    bDone = TRUE; // the last cluster
    9158:	10c000e0 	cmpeqi	r3,r2,3
                // update
                if (pVol->Partition_Type == PARTITION_FAT32)
    915c:	ad00021e 	bne	r21,r20,9168 <fatDelClusterList+0x100>
                    *(alt_u32 *)pFatEntryValue = CLUSTER_UNUSED;
    9160:	b0000015 	stw	zero,0(r22)
    9164:	00000106 	br	916c <fatDelClusterList+0x104>
                else 
                    *(alt_u16 *)pFatEntryValue = CLUSTER_UNUSED;
    9168:	b000000d 	sth	zero,0(r22)
                //write back FAT Table
                bSuccess = pVol->WriteBlock512(pVol->DiskHandle, pVol->Secter_Index, pVol->Secter_Data);
    916c:	80800217 	ldw	r2,8(r16)
    9170:	81409017 	ldw	r5,576(r16)
    9174:	81000017 	ldw	r4,0(r16)
    9178:	d8c00115 	stw	r3,4(sp)
    917c:	980d883a 	mov	r6,r19
    9180:	103ee83a 	callr	r2
    9184:	d8c00117 	ldw	r3,4(sp)
    9188:	003fd706 	br	90e8 <_gp+0xffff2dcc>
    }  // while                
    
    
    return bSuccess;

}
    918c:	dfc00b17 	ldw	ra,44(sp)
    9190:	df000a17 	ldw	fp,40(sp)
    9194:	ddc00917 	ldw	r23,36(sp)
    9198:	dd800817 	ldw	r22,32(sp)
    919c:	dd400717 	ldw	r21,28(sp)
    91a0:	dd000617 	ldw	r20,24(sp)
    91a4:	dcc00517 	ldw	r19,20(sp)
    91a8:	dc800417 	ldw	r18,16(sp)
    91ac:	dc400317 	ldw	r17,12(sp)
    91b0:	dc000217 	ldw	r16,8(sp)
    91b4:	dec00c04 	addi	sp,sp,48
    91b8:	f800283a 	ret

000091bc <fatFindDirectory>:
    return bSuccess;          
}     

//=================================================================================
//// add in v2.0
FAT_DIRECTORY* fatFindDirectory(VOLUME_INFO *pVol, alt_u32 nDirectoryIndex){
    91bc:	defffc04 	addi	sp,sp,-16
    91c0:	dc800215 	stw	r18,8(sp)
    FAT_DIRECTORY *pDir=NULL;
    alt_u32 nSecterOffset, nSecter, nByteOffset;
             
    nSecterOffset = (sizeof(FAT_DIRECTORY)*nDirectoryIndex)/pVol->BPB_BytsPerSec;
    91c4:	2824917a 	slli	r18,r5,5
    nSecter = pVol->RootDirectoryEntrySecter + nSecterOffset;
        // read sector
    if (fatReadSecter(pVol, nSecter)){
    91c8:	21400617 	ldw	r5,24(r4)
    return bSuccess;          
}     

//=================================================================================
//// add in v2.0
FAT_DIRECTORY* fatFindDirectory(VOLUME_INFO *pVol, alt_u32 nDirectoryIndex){
    91cc:	dc000015 	stw	r16,0(sp)
    91d0:	2021883a 	mov	r16,r4
    alt_u32 nSecterOffset, nSecter, nByteOffset;
             
    nSecterOffset = (sizeof(FAT_DIRECTORY)*nDirectoryIndex)/pVol->BPB_BytsPerSec;
    nSecter = pVol->RootDirectoryEntrySecter + nSecterOffset;
        // read sector
    if (fatReadSecter(pVol, nSecter)){
    91d4:	9009883a 	mov	r4,r18
    return bSuccess;          
}     

//=================================================================================
//// add in v2.0
FAT_DIRECTORY* fatFindDirectory(VOLUME_INFO *pVol, alt_u32 nDirectoryIndex){
    91d8:	dfc00315 	stw	ra,12(sp)
    91dc:	dc400115 	stw	r17,4(sp)
    alt_u32 nSecterOffset, nSecter, nByteOffset;
             
    nSecterOffset = (sizeof(FAT_DIRECTORY)*nDirectoryIndex)/pVol->BPB_BytsPerSec;
    nSecter = pVol->RootDirectoryEntrySecter + nSecterOffset;
        // read sector
    if (fatReadSecter(pVol, nSecter)){
    91e0:	000ac280 	call	ac28 <__udivsi3>
    91e4:	81400e17 	ldw	r5,56(r16)
    91e8:	8009883a 	mov	r4,r16
    91ec:	114b883a 	add	r5,r2,r5
    91f0:	0008de80 	call	8de8 <fatReadSecter>
    91f4:	10000626 	beq	r2,zero,9210 <fatFindDirectory+0x54>
        nByteOffset = (sizeof(FAT_DIRECTORY)*nDirectoryIndex)%pVol->BPB_BytsPerSec; 
        pDir = (FAT_DIRECTORY *)(pVol->Secter_Data + nByteOffset);
    91f8:	81400617 	ldw	r5,24(r16)
    91fc:	9009883a 	mov	r4,r18
    9200:	84401004 	addi	r17,r16,64
    9204:	000ac8c0 	call	ac8c <__umodsi3>
    9208:	8885883a 	add	r2,r17,r2
    920c:	00000106 	br	9214 <fatFindDirectory+0x58>
}     

//=================================================================================
//// add in v2.0
FAT_DIRECTORY* fatFindDirectory(VOLUME_INFO *pVol, alt_u32 nDirectoryIndex){
    FAT_DIRECTORY *pDir=NULL;
    9210:	0005883a 	mov	r2,zero
        nByteOffset = (sizeof(FAT_DIRECTORY)*nDirectoryIndex)%pVol->BPB_BytsPerSec; 
        pDir = (FAT_DIRECTORY *)(pVol->Secter_Data + nByteOffset);
    }        
        
    return pDir;        
}
    9214:	dfc00317 	ldw	ra,12(sp)
    9218:	dc800217 	ldw	r18,8(sp)
    921c:	dc400117 	ldw	r17,4(sp)
    9220:	dc000017 	ldw	r16,0(sp)
    9224:	dec00404 	addi	sp,sp,16
    9228:	f800283a 	ret

0000922c <fatFindUnusedDirectory>:

//=================================================================================
//// add in v2.0
alt_u32 fatFindUnusedDirectory(VOLUME_INFO *pVol){
    922c:	defffa04 	addi	sp,sp,-24
    9230:	dd000415 	stw	r20,16(sp)
    9234:	dc800215 	stw	r18,8(sp)
    9238:	dc400115 	stw	r17,4(sp)
    923c:	dc000015 	stw	r16,0(sp)
    9240:	dfc00515 	stw	ra,20(sp)
    9244:	dcc00315 	stw	r19,12(sp)
    9248:	2021883a 	mov	r16,r4
    alt_u32 Dir = -1;
    FAT_DIRECTORY *pDir=NULL;
    alt_u32 nSecterOffset, nSecter, nByteOffset;
    alt_u32 nDirectoryIndex = 2; //??? start from ?
    924c:	04400084 	movi	r17,2
}

//=================================================================================
//// add in v2.0
alt_u32 fatFindUnusedDirectory(VOLUME_INFO *pVol){
    alt_u32 Dir = -1;
    9250:	04bfffc4 	movi	r18,-1
    return TRUE;
    
}

bool fatIsUnusedDir(FAT_DIRECTORY *pDir){
    if (pDir->Name[0] == (alt_8)UNUSED_DIR_ENTRY)
    9254:	053ff944 	movi	r20,-27
    9258:	8826917a 	slli	r19,r17,5
             
    while(!bDone){             
        nSecterOffset = (sizeof(FAT_DIRECTORY)*nDirectoryIndex)/pVol->BPB_BytsPerSec;
        nSecter = pVol->RootDirectoryEntrySecter + nSecterOffset;
            // read sector
        if (fatReadSecter(pVol, nSecter)){
    925c:	81400617 	ldw	r5,24(r16)
    9260:	9809883a 	mov	r4,r19
    9264:	000ac280 	call	ac28 <__udivsi3>
    9268:	81400e17 	ldw	r5,56(r16)
    926c:	8009883a 	mov	r4,r16
    9270:	114b883a 	add	r5,r2,r5
    9274:	0008de80 	call	8de8 <fatReadSecter>
    9278:	103ff826 	beq	r2,zero,925c <_gp+0xffff2f40>
    S = ((Date >> 0) & 0x1F)*2;
    FAT_DEBUG(("%d:%d:%d", H, M, S));     
}

bool fatIsLastDir(FAT_DIRECTORY *pDir){
    if (pDir->Name[0] == REMAINED_UNUSED_DIR_ENTRY)  // 0x00
    927c:	81400617 	ldw	r5,24(r16)
    9280:	9809883a 	mov	r4,r19
    9284:	000ac8c0 	call	ac8c <__umodsi3>
    9288:	8085883a 	add	r2,r16,r2
    928c:	10801007 	ldb	r2,64(r2)
    9290:	10000e26 	beq	r2,zero,92cc <fatFindUnusedDirectory+0xa0>
    return TRUE;
    
}

bool fatIsUnusedDir(FAT_DIRECTORY *pDir){
    if (pDir->Name[0] == (alt_8)UNUSED_DIR_ENTRY)
    9294:	15000c26 	beq	r2,r20,92c8 <fatFindUnusedDirectory+0x9c>
    9298:	0005883a 	mov	r2,zero
            if (fatIsLastDir(pDir) || fatIsUnusedDir(pDir)){
                bDone = TRUE;
                if (fatIsUnusedDir(pDir))
                    Dir = nDirectoryIndex;
            }
            nDirectoryIndex++;        
    929c:	8c400044 	addi	r17,r17,1
    FAT_DIRECTORY *pDir=NULL;
    alt_u32 nSecterOffset, nSecter, nByteOffset;
    alt_u32 nDirectoryIndex = 2; //??? start from ?
    bool bDone = FALSE;
             
    while(!bDone){             
    92a0:	103fed26 	beq	r2,zero,9258 <_gp+0xffff2f3c>
                bDone = FALSE;
        }
    }             
    
    return Dir;      
}
    92a4:	9005883a 	mov	r2,r18
    92a8:	dfc00517 	ldw	ra,20(sp)
    92ac:	dd000417 	ldw	r20,16(sp)
    92b0:	dcc00317 	ldw	r19,12(sp)
    92b4:	dc800217 	ldw	r18,8(sp)
    92b8:	dc400117 	ldw	r17,4(sp)
    92bc:	dc000017 	ldw	r16,0(sp)
    92c0:	dec00604 	addi	sp,sp,24
    92c4:	f800283a 	ret
    return TRUE;
    
}

bool fatIsUnusedDir(FAT_DIRECTORY *pDir){
    if (pDir->Name[0] == (alt_8)UNUSED_DIR_ENTRY)
    92c8:	8825883a 	mov	r18,r17
            // read sector
        if (fatReadSecter(pVol, nSecter)){
            nByteOffset = (sizeof(FAT_DIRECTORY)*nDirectoryIndex)%pVol->BPB_BytsPerSec; 
            pDir = (FAT_DIRECTORY *)(pVol->Secter_Data + nByteOffset);
            if (fatIsLastDir(pDir) || fatIsUnusedDir(pDir)){
                bDone = TRUE;
    92cc:	00800044 	movi	r2,1
    92d0:	003ff206 	br	929c <_gp+0xffff2f80>

000092d4 <fatMount>:
    
    return Dir;      
}

//=================================================================================
bool fatMount(VOLUME_INFO *pVol){
    92d4:	deff7804 	addi	sp,sp,-544
    92d8:	dc008015 	stw	r16,512(sp)
    // 1DEh( 16 bytes): 3nd Partition Entry
    // 1EEh( 16 bytes): 4nd Partition Entry
    // 1FEh(  2 bytes): Executable Maker (55h AAh)
    
    // read first block (secotor 0), BPB(BIOS Parameter Block) or called as boot sector or reserved sector
    if (!pVol->ReadBlock512(pVol->DiskHandle, 0, szBlock)){
    92dc:	20800117 	ldw	r2,4(r4)
    
    return Dir;      
}

//=================================================================================
bool fatMount(VOLUME_INFO *pVol){
    92e0:	2021883a 	mov	r16,r4
    // 1DEh( 16 bytes): 3nd Partition Entry
    // 1EEh( 16 bytes): 4nd Partition Entry
    // 1FEh(  2 bytes): Executable Maker (55h AAh)
    
    // read first block (secotor 0), BPB(BIOS Parameter Block) or called as boot sector or reserved sector
    if (!pVol->ReadBlock512(pVol->DiskHandle, 0, szBlock)){
    92e4:	21000017 	ldw	r4,0(r4)
    
    return Dir;      
}

//=================================================================================
bool fatMount(VOLUME_INFO *pVol){
    92e8:	dfc08715 	stw	ra,540(sp)
    92ec:	dd808615 	stw	r22,536(sp)
    92f0:	dd408515 	stw	r21,532(sp)
    92f4:	dd008415 	stw	r20,528(sp)
    92f8:	dcc08315 	stw	r19,524(sp)
    92fc:	dc808215 	stw	r18,520(sp)
    9300:	dc408115 	stw	r17,516(sp)
    // 1DEh( 16 bytes): 3nd Partition Entry
    // 1EEh( 16 bytes): 4nd Partition Entry
    // 1FEh(  2 bytes): Executable Maker (55h AAh)
    
    // read first block (secotor 0), BPB(BIOS Parameter Block) or called as boot sector or reserved sector
    if (!pVol->ReadBlock512(pVol->DiskHandle, 0, szBlock)){
    9304:	d80d883a 	mov	r6,sp
    9308:	000b883a 	mov	r5,zero
    930c:	103ee83a 	callr	r2
    9310:	1000021e 	bne	r2,zero,931c <fatMount+0x48>
        FAT_DEBUG(("Read section 0 error.\n"));
        return FALSE;
    9314:	0005883a 	mov	r2,zero
    9318:	00004806 	br	943c <fatMount+0x168>
    }
    */
        
    // check file system 
    FirstPartitionEntry = 0x1BE;
    PartitionType = szBlock[FirstPartitionEntry + 4];
    931c:	d8807083 	ldbu	r2,450(sp)
    if (PartitionType == PARTITION_FAT16){
    9320:	00c00184 	movi	r3,6
    9324:	10c00226 	beq	r2,r3,9330 <fatMount+0x5c>
        FAT_DEBUG(("FAT16\n"));
    }else if (PartitionType == PARTITION_FAT32){
    9328:	00c002c4 	movi	r3,11
    932c:	10fff91e 	bne	r2,r3,9314 <_gp+0xffff2ff8>
        FAT_DEBUG(("the partition type(%d) is not supported.\n", PartitionType));
        return FALSE; // only support FAT16 in this example
    }       
    pVol->Partition_Type = PartitionType; 
    // 2.2 Find the first section of partition 1                    
    FirstSectionInVolume1 = fatArray2Value(&szBlock[FirstPartitionEntry + 8],4);
    9330:	01400104 	movi	r5,4
    9334:	d9007184 	addi	r4,sp,454
        FAT_DEBUG(("FAT32\n"));
    }else{        
        FAT_DEBUG(("the partition type(%d) is not supported.\n", PartitionType));
        return FALSE; // only support FAT16 in this example
    }       
    pVol->Partition_Type = PartitionType; 
    9338:	80800315 	stw	r2,12(r16)
    // 2.2 Find the first section of partition 1                    
    FirstSectionInVolume1 = fatArray2Value(&szBlock[FirstPartitionEntry + 8],4);
    933c:	0008dc00 	call	8dc0 <fatArray2Value>
    9340:	102b883a 	mov	r21,r2
                            //szBlock[FirstPartitionEntry + 8 + 1]*256 + 
                            //szBlock[FirstPartitionEntry + 8];        
    
    //3 Parsing the Volume Boot Record(BR)
    //3.1  Read the Volume Boot Record(BR)
    if (!pVol->ReadBlock512(pVol->DiskHandle, FirstSectionInVolume1, szBlock)){
    9344:	81000017 	ldw	r4,0(r16)
    9348:	80800117 	ldw	r2,4(r16)
    934c:	d80d883a 	mov	r6,sp
    9350:	a80b883a 	mov	r5,r21
    9354:	103ee83a 	callr	r2
    9358:	103fee26 	beq	r2,zero,9314 <_gp+0xffff2ff8>
        FAT_DEBUG(("Read first sector in volume one fail.\n"));
        return FALSE;
    }        
    pVol->PartitionStartSecter = FirstSectionInVolume1;     
    pVol->BPB_BytsPerSec = szBlock[0x0B+1]*256 + szBlock[0x0B];
    935c:	dd000303 	ldbu	r20,12(sp)
    pVol->BPB_SecPerCluster = szBlock[0x0D];
    pVol->BPB_RsvdSecCnt = szBlock[0x0E + 1]*256 + szBlock[0x0E]; 
    9360:	dc4003c3 	ldbu	r17,15(sp)
    pVol->BPB_NumFATs = szBlock[0x10];
    pVol->BPB_RootEntCnt = szBlock[0x11+1]*256 + szBlock[0x11]; 
    9364:	dc800483 	ldbu	r18,18(sp)
    if (!pVol->ReadBlock512(pVol->DiskHandle, FirstSectionInVolume1, szBlock)){
        FAT_DEBUG(("Read first sector in volume one fail.\n"));
        return FALSE;
    }        
    pVol->PartitionStartSecter = FirstSectionInVolume1;     
    pVol->BPB_BytsPerSec = szBlock[0x0B+1]*256 + szBlock[0x0B];
    9368:	a004923a 	slli	r2,r20,8
    936c:	dd0002c3 	ldbu	r20,11(sp)
    pVol->BPB_SecPerCluster = szBlock[0x0D];
    9370:	dcc00343 	ldbu	r19,13(sp)
    pVol->BPB_RsvdSecCnt = szBlock[0x0E + 1]*256 + szBlock[0x0E]; 
    pVol->BPB_NumFATs = szBlock[0x10];
    9374:	dd800403 	ldbu	r22,16(sp)
    if (!pVol->ReadBlock512(pVol->DiskHandle, FirstSectionInVolume1, szBlock)){
        FAT_DEBUG(("Read first sector in volume one fail.\n"));
        return FALSE;
    }        
    pVol->PartitionStartSecter = FirstSectionInVolume1;     
    pVol->BPB_BytsPerSec = szBlock[0x0B+1]*256 + szBlock[0x0B];
    9378:	1529883a 	add	r20,r2,r20
    pVol->BPB_SecPerCluster = szBlock[0x0D];
    pVol->BPB_RsvdSecCnt = szBlock[0x0E + 1]*256 + szBlock[0x0E]; 
    937c:	8804923a 	slli	r2,r17,8
    9380:	dc400383 	ldbu	r17,14(sp)
    //3.1  Read the Volume Boot Record(BR)
    if (!pVol->ReadBlock512(pVol->DiskHandle, FirstSectionInVolume1, szBlock)){
        FAT_DEBUG(("Read first sector in volume one fail.\n"));
        return FALSE;
    }        
    pVol->PartitionStartSecter = FirstSectionInVolume1;     
    9384:	85400515 	stw	r21,20(r16)
    pVol->BPB_BytsPerSec = szBlock[0x0B+1]*256 + szBlock[0x0B];
    9388:	85000615 	stw	r20,24(r16)
    pVol->BPB_SecPerCluster = szBlock[0x0D];
    pVol->BPB_RsvdSecCnt = szBlock[0x0E + 1]*256 + szBlock[0x0E]; 
    938c:	1463883a 	add	r17,r2,r17
    pVol->BPB_NumFATs = szBlock[0x10];
    pVol->BPB_RootEntCnt = szBlock[0x11+1]*256 + szBlock[0x11]; 
    9390:	9004923a 	slli	r2,r18,8
    9394:	dc800443 	ldbu	r18,17(sp)
        FAT_DEBUG(("Read first sector in volume one fail.\n"));
        return FALSE;
    }        
    pVol->PartitionStartSecter = FirstSectionInVolume1;     
    pVol->BPB_BytsPerSec = szBlock[0x0B+1]*256 + szBlock[0x0B];
    pVol->BPB_SecPerCluster = szBlock[0x0D];
    9398:	84c00715 	stw	r19,28(r16)
    pVol->BPB_RsvdSecCnt = szBlock[0x0E + 1]*256 + szBlock[0x0E]; 
    939c:	84400815 	stw	r17,32(r16)
    pVol->BPB_NumFATs = szBlock[0x10];
    pVol->BPB_RootEntCnt = szBlock[0x11+1]*256 + szBlock[0x11]; 
    93a0:	14a5883a 	add	r18,r2,r18
    pVol->BPB_FATSz = szBlock[0x16+1]*256 + szBlock[0x16];
    93a4:	d88005c3 	ldbu	r2,23(sp)
    }        
    pVol->PartitionStartSecter = FirstSectionInVolume1;     
    pVol->BPB_BytsPerSec = szBlock[0x0B+1]*256 + szBlock[0x0B];
    pVol->BPB_SecPerCluster = szBlock[0x0D];
    pVol->BPB_RsvdSecCnt = szBlock[0x0E + 1]*256 + szBlock[0x0E]; 
    pVol->BPB_NumFATs = szBlock[0x10];
    93a8:	85800915 	stw	r22,36(r16)
    pVol->BPB_RootEntCnt = szBlock[0x11+1]*256 + szBlock[0x11]; 
    93ac:	84800a15 	stw	r18,40(r16)
    pVol->BPB_FATSz = szBlock[0x16+1]*256 + szBlock[0x16];
    93b0:	1006923a 	slli	r3,r2,8
    93b4:	d8800583 	ldbu	r2,22(sp)
    
    // add for v2.0
    pVol->Secter_Index = -1;
    memset(pVol->Secter_Data, 0, MY_SECTER_SIZE); // 512 bytes
    93b8:	01808004 	movi	r6,512
    93bc:	000b883a 	mov	r5,zero
    pVol->BPB_BytsPerSec = szBlock[0x0B+1]*256 + szBlock[0x0B];
    pVol->BPB_SecPerCluster = szBlock[0x0D];
    pVol->BPB_RsvdSecCnt = szBlock[0x0E + 1]*256 + szBlock[0x0E]; 
    pVol->BPB_NumFATs = szBlock[0x10];
    pVol->BPB_RootEntCnt = szBlock[0x11+1]*256 + szBlock[0x11]; 
    pVol->BPB_FATSz = szBlock[0x16+1]*256 + szBlock[0x16];
    93c0:	1885883a 	add	r2,r3,r2
    93c4:	80800b15 	stw	r2,44(r16)
    
    // add for v2.0
    pVol->Secter_Index = -1;
    93c8:	00bfffc4 	movi	r2,-1
    93cc:	80809015 	stw	r2,576(r16)
    memset(pVol->Secter_Data, 0, MY_SECTER_SIZE); // 512 bytes
    93d0:	81001004 	addi	r4,r16,64
    93d4:	000c2440 	call	c244 <memset>
    
    if (pVol->Partition_Type == PARTITION_FAT32){
    93d8:	80c00317 	ldw	r3,12(r16)
    93dc:	008002c4 	movi	r2,11
    93e0:	1880041e 	bne	r3,r2,93f4 <fatMount+0x120>
        pVol->BPB_FATSz = fatArray2Value(&szBlock[0x24], 4);  // BPB_FATSz32
    93e4:	01400104 	movi	r5,4
    93e8:	d9000904 	addi	r4,sp,36
    93ec:	0008dc00 	call	8dc0 <fatArray2Value>
    93f0:	80800b15 	stw	r2,44(r16)
        //pVol->BPB_RootEntCnt = fatArray2Value(&szBlock[0x2C], 4);  // BPB_RootClus            
    }
    
    if (pVol->BPB_BytsPerSec != MY_SECTER_SIZE){
    93f4:	00808004 	movi	r2,512
    93f8:	a0bfc61e 	bne	r20,r2,9314 <_gp+0xffff2ff8>
    FAT_DEBUG(("Maxmun Root Directory Entries: %04Xh(%d)\n", gVolumeInfo.BPB_RootEntCnt, gVolumeInfo.BPB_RootEntCnt));
    FAT_DEBUG(("Sectors Per FAT: %04Xh(%d)\n", gVolumeInfo.BPB_FATSz, gVolumeInfo.BPB_FATSz));
#endif    
    //
    pVol->FatEntrySecter = pVol->PartitionStartSecter + pVol->BPB_RsvdSecCnt;
    pVol->RootDirectoryEntrySecter = pVol->FatEntrySecter + pVol->BPB_NumFATs * pVol->BPB_FATSz;
    93fc:	81400b17 	ldw	r5,44(r16)
    FAT_DEBUG(("Number of Copyies of FAT: %02Xh(%d)\n", gVolumeInfo.BPB_NumFATs, gVolumeInfo.BPB_NumFATs));
    FAT_DEBUG(("Maxmun Root Directory Entries: %04Xh(%d)\n", gVolumeInfo.BPB_RootEntCnt, gVolumeInfo.BPB_RootEntCnt));
    FAT_DEBUG(("Sectors Per FAT: %04Xh(%d)\n", gVolumeInfo.BPB_FATSz, gVolumeInfo.BPB_FATSz));
#endif    
    //
    pVol->FatEntrySecter = pVol->PartitionStartSecter + pVol->BPB_RsvdSecCnt;
    9400:	ac63883a 	add	r17,r21,r17
    9404:	84400d15 	stw	r17,52(r16)
    pVol->RootDirectoryEntrySecter = pVol->FatEntrySecter + pVol->BPB_NumFATs * pVol->BPB_FATSz;
    9408:	b009883a 	mov	r4,r22
    940c:	000ace40 	call	ace4 <__mulsi3>
    9410:	1463883a 	add	r17,r2,r17
    pVol->DataEntrySecter = pVol->RootDirectoryEntrySecter + ((pVol->BPB_RootEntCnt*32)+(pVol->BPB_BytsPerSec-1))/pVol->BPB_BytsPerSec;
    9414:	9004917a 	slli	r2,r18,5
    
    // read FAT table into memory
    pVol->nBytesPerCluster = pVol->BPB_BytsPerSec * pVol->BPB_SecPerCluster;
    9418:	9826927a 	slli	r19,r19,9
    FAT_DEBUG(("Maxmun Root Directory Entries: %04Xh(%d)\n", gVolumeInfo.BPB_RootEntCnt, gVolumeInfo.BPB_RootEntCnt));
    FAT_DEBUG(("Sectors Per FAT: %04Xh(%d)\n", gVolumeInfo.BPB_FATSz, gVolumeInfo.BPB_FATSz));
#endif    
    //
    pVol->FatEntrySecter = pVol->PartitionStartSecter + pVol->BPB_RsvdSecCnt;
    pVol->RootDirectoryEntrySecter = pVol->FatEntrySecter + pVol->BPB_NumFATs * pVol->BPB_FATSz;
    941c:	84400e15 	stw	r17,56(r16)
    pVol->DataEntrySecter = pVol->RootDirectoryEntrySecter + ((pVol->BPB_RootEntCnt*32)+(pVol->BPB_BytsPerSec-1))/pVol->BPB_BytsPerSec;
    9420:	10807fc4 	addi	r2,r2,511
    9424:	1004d27a 	srli	r2,r2,9
    
    // read FAT table into memory
    pVol->nBytesPerCluster = pVol->BPB_BytsPerSec * pVol->BPB_SecPerCluster;
    9428:	84c00c15 	stw	r19,48(r16)
    FAT_DEBUG(("Sectors Per FAT: %04Xh(%d)\n", gVolumeInfo.BPB_FATSz, gVolumeInfo.BPB_FATSz));
#endif    
    //
    pVol->FatEntrySecter = pVol->PartitionStartSecter + pVol->BPB_RsvdSecCnt;
    pVol->RootDirectoryEntrySecter = pVol->FatEntrySecter + pVol->BPB_NumFATs * pVol->BPB_FATSz;
    pVol->DataEntrySecter = pVol->RootDirectoryEntrySecter + ((pVol->BPB_RootEntCnt*32)+(pVol->BPB_BytsPerSec-1))/pVol->BPB_BytsPerSec;
    942c:	1463883a 	add	r17,r2,r17
    if (bSuccess){
        FAT_DEBUG(("Fat_Mount success\n"));
    }else{        
        FAT_DEBUG(("Fat_Mount fail\n"));
    }        
    pVol->bMount = bSuccess;
    9430:	00800044 	movi	r2,1
    FAT_DEBUG(("Sectors Per FAT: %04Xh(%d)\n", gVolumeInfo.BPB_FATSz, gVolumeInfo.BPB_FATSz));
#endif    
    //
    pVol->FatEntrySecter = pVol->PartitionStartSecter + pVol->BPB_RsvdSecCnt;
    pVol->RootDirectoryEntrySecter = pVol->FatEntrySecter + pVol->BPB_NumFATs * pVol->BPB_FATSz;
    pVol->DataEntrySecter = pVol->RootDirectoryEntrySecter + ((pVol->BPB_RootEntCnt*32)+(pVol->BPB_BytsPerSec-1))/pVol->BPB_BytsPerSec;
    9434:	84400f15 	stw	r17,60(r16)
    if (bSuccess){
        FAT_DEBUG(("Fat_Mount success\n"));
    }else{        
        FAT_DEBUG(("Fat_Mount fail\n"));
    }        
    pVol->bMount = bSuccess;
    9438:	80800415 	stw	r2,16(r16)
    return bSuccess;   
    

}
    943c:	dfc08717 	ldw	ra,540(sp)
    9440:	dd808617 	ldw	r22,536(sp)
    9444:	dd408517 	ldw	r21,532(sp)
    9448:	dd008417 	ldw	r20,528(sp)
    944c:	dcc08317 	ldw	r19,524(sp)
    9450:	dc808217 	ldw	r18,520(sp)
    9454:	dc408117 	ldw	r17,516(sp)
    9458:	dc008017 	ldw	r16,512(sp)
    945c:	dec08804 	addi	sp,sp,544
    9460:	f800283a 	ret

00009464 <fatMountSdcard>:

bool SD_WriteBlock512(DISK_HANDLE DiskHandle, alt_u32 PysicalSelector, alt_u8 szBuf[512]){
    return SDLIB_WriteBlock512(PysicalSelector, szBuf);
}

FAT_HANDLE fatMountSdcard(void){
    9464:	defffe04 	addi	sp,sp,-8
    9468:	dc000015 	stw	r16,0(sp)
    946c:	dfc00115 	stw	ra,4(sp)
    9470:	040002c4 	movi	r16,11
    9474:	843fffc4 	addi	r16,r16,-1
    int nTry=0;
    bool bSuccess = TRUE;
    
        
    //1. chek whether SD Card existed. Init SD card if it is present.
    while(!bFind && nTry++ < nMaxTry){
    9478:	80000826 	beq	r16,zero,949c <fatMountSdcard+0x38>
        bFind = SDLIB_Init();
    947c:	0009c000 	call	9c00 <SDLIB_Init>
        if (!bFind)
    9480:	1000081e 	bne	r2,zero,94a4 <fatMountSdcard+0x40>
            usleep(100*1000);
    9484:	010000b4 	movhi	r4,2
    9488:	2121a804 	addi	r4,r4,-31072
    948c:	000d8e00 	call	d8e0 <usleep>
    9490:	003ff806 	br	9474 <_gp+0xffff3158>
    if (bSuccess){
        FAT_DEBUG(("Fat_Mount success\n"));
        pVol->bMount = TRUE;
    }else{        
        FAT_DEBUG(("Fat_Mount fail\n"));
        free((void *)hFat);
    9494:	8009883a 	mov	r4,r16
    9498:	000c2080 	call	c208 <free>
        hFat = 0;
    949c:	0005883a 	mov	r2,zero
    94a0:	00000f06 	br	94e0 <fatMountSdcard+0x7c>
    if (!bFind){
        FAT_DEBUG(("Cannot find SD card.\n"));
        return hFat;
    }    
    
    hFat = malloc(sizeof(VOLUME_INFO));
    94a4:	01009104 	movi	r4,580
    94a8:	000c1f40 	call	c1f4 <malloc>
    94ac:	1021883a 	mov	r16,r2
    pVol = (VOLUME_INFO *)hFat;
    pVol->ReadBlock512 = SD_ReadBlock512;
    94b0:	00800074 	movhi	r2,1
    94b4:	10a31704 	addi	r2,r2,-29604
    94b8:	80800115 	stw	r2,4(r16)
    pVol->WriteBlock512 = SD_WriteBlock512;
    94bc:	00800074 	movhi	r2,1
    94c0:	10a31a04 	addi	r2,r2,-29592
    94c4:	80800215 	stw	r2,8(r16)
    bSuccess = fatMount(pVol);
    94c8:	8009883a 	mov	r4,r16
    94cc:	00092d40 	call	92d4 <fatMount>
        
    
  
    if (bSuccess){
    94d0:	103ff026 	beq	r2,zero,9494 <_gp+0xffff3178>
        FAT_DEBUG(("Fat_Mount success\n"));
        pVol->bMount = TRUE;
    94d4:	00800044 	movi	r2,1
    94d8:	80800415 	stw	r2,16(r16)
    if (!bFind){
        FAT_DEBUG(("Cannot find SD card.\n"));
        return hFat;
    }    
    
    hFat = malloc(sizeof(VOLUME_INFO));
    94dc:	8005883a 	mov	r2,r16
        free((void *)hFat);
        hFat = 0;
    }        

    return hFat;   
}
    94e0:	dfc00117 	ldw	ra,4(sp)
    94e4:	dc000017 	ldw	r16,0(sp)
    94e8:	dec00204 	addi	sp,sp,8
    94ec:	f800283a 	ret

000094f0 <crc16>:
alt_u16 crc16(const alt_u8 *buffer, int len){

    int counter;
    alt_u16 crc = 0;
    for( counter = 0; counter < len; counter++)
        crc = (crc<<8) ^ crc16tab[((crc>>8) ^ *(char *)buffer++)&0x00FF];
    94f0:	01c00074 	movhi	r7,1
  
alt_u16 crc16(const alt_u8 *buffer, int len){

    int counter;
    alt_u16 crc = 0;
    for( counter = 0; counter < len; counter++)
    94f4:	200d883a 	mov	r6,r4
};
  
alt_u16 crc16(const alt_u8 *buffer, int len){

    int counter;
    alt_u16 crc = 0;
    94f8:	0005883a 	mov	r2,zero
    for( counter = 0; counter < len; counter++)
        crc = (crc<<8) ^ crc16tab[((crc>>8) ^ *(char *)buffer++)&0x00FF];
    94fc:	39f6eb04 	addi	r7,r7,-9300
  
alt_u16 crc16(const alt_u8 *buffer, int len){

    int counter;
    alt_u16 crc = 0;
    for( counter = 0; counter < len; counter++)
    9500:	3107c83a 	sub	r3,r6,r4
    9504:	19400b0e 	bge	r3,r5,9534 <crc16+0x44>
        crc = (crc<<8) ^ crc16tab[((crc>>8) ^ *(char *)buffer++)&0x00FF];
    9508:	10bfffcc 	andi	r2,r2,65535
    950c:	1010d23a 	srli	r8,r2,8
    9510:	30c00003 	ldbu	r3,0(r6)
    9514:	1004923a 	slli	r2,r2,8
    9518:	31800044 	addi	r6,r6,1
    951c:	40c6f03a 	xor	r3,r8,r3
    9520:	18c7883a 	add	r3,r3,r3
    9524:	38c7883a 	add	r3,r7,r3
    9528:	18c0000b 	ldhu	r3,0(r3)
    952c:	10c4f03a 	xor	r2,r2,r3
    9530:	003ff306 	br	9500 <_gp+0xffff31e4>
    return crc;
}
    9534:	f800283a 	ret

00009538 <crc7_byte>:
      0x46, 0x4f, 0x54, 0x5d, 0x62, 0x6b, 0x70, 0x79
};

alt_u8 crc7_byte(alt_u8 crc, alt_u8 data)
{
        return crc7_syndrome_table[(crc << 1) ^ data];
    9538:	21003fcc 	andi	r4,r4,255
    953c:	2109883a 	add	r4,r4,r4
    9540:	29403fcc 	andi	r5,r5,255
    9544:	214af03a 	xor	r5,r4,r5
    9548:	01000074 	movhi	r4,1
    954c:	21376b04 	addi	r4,r4,-8788
    9550:	214b883a 	add	r5,r4,r5
}
    9554:	28800003 	ldbu	r2,0(r5)
    9558:	f800283a 	ret

0000955c <crc7>:
      0x46, 0x4f, 0x54, 0x5d, 0x62, 0x6b, 0x70, 0x79
};

alt_u8 crc7_byte(alt_u8 crc, alt_u8 data)
{
        return crc7_syndrome_table[(crc << 1) ^ data];
    955c:	00c00074 	movhi	r3,1
 * Context: any
 *
 * Returns the updated CRC7 value.
 */
alt_u8 crc7(alt_u8 crc, const alt_u8 *buffer, int len)
{
    9560:	2005883a 	mov	r2,r4
    9564:	298d883a 	add	r6,r5,r6
      0x46, 0x4f, 0x54, 0x5d, 0x62, 0x6b, 0x70, 0x79
};

alt_u8 crc7_byte(alt_u8 crc, alt_u8 data)
{
        return crc7_syndrome_table[(crc << 1) ^ data];
    9568:	18f76b04 	addi	r3,r3,-8788
 *
 * Returns the updated CRC7 value.
 */
alt_u8 crc7(alt_u8 crc, const alt_u8 *buffer, int len)
{
      while (len--)
    956c:	29800826 	beq	r5,r6,9590 <crc7+0x34>
      0x46, 0x4f, 0x54, 0x5d, 0x62, 0x6b, 0x70, 0x79
};

alt_u8 crc7_byte(alt_u8 crc, alt_u8 data)
{
        return crc7_syndrome_table[(crc << 1) ^ data];
    9570:	29000003 	ldbu	r4,0(r5)
    9574:	10803fcc 	andi	r2,r2,255
    9578:	1085883a 	add	r2,r2,r2
    957c:	1104f03a 	xor	r2,r2,r4
    9580:	1885883a 	add	r2,r3,r2
    9584:	10800003 	ldbu	r2,0(r2)
    9588:	29400044 	addi	r5,r5,1
    958c:	003ff706 	br	956c <_gp+0xffff3250>
alt_u8 crc7(alt_u8 crc, const alt_u8 *buffer, int len)
{
      while (len--)
            crc = crc7_byte(crc, *buffer++);
      return crc;
}
    9590:	f800283a 	ret

00009594 <debug_output>:

#else

void debug_output(char *pMessage){
    
    printf(pMessage);
    9594:	000c4dc1 	jmpi	c4dc <printf>

00009598 <myprintf>:





int myprintf(char *format, ...){
    9598:	deff7b04 	addi	sp,sp,-532
    959c:	dfc08115 	stw	ra,516(sp)
    95a0:	dc008015 	stw	r16,512(sp)
    95a4:	d9408215 	stw	r5,520(sp)
    95a8:	d9808315 	stw	r6,524(sp)
    95ac:	d9c08415 	stw	r7,528(sp)
    int rc;
    char szText[512];
    
    va_list paramList;
    va_start(paramList, format);
    rc = vsnprintf(szText, 512, format, paramList);
    95b0:	01408004 	movi	r5,512
    95b4:	200d883a 	mov	r6,r4
    95b8:	d9c08204 	addi	r7,sp,520
    95bc:	d809883a 	mov	r4,sp
    95c0:	000d3a40 	call	d3a4 <vsnprintf>

#else

void debug_output(char *pMessage){
    
    printf(pMessage);
    95c4:	d809883a 	mov	r4,sp
    int rc;
    char szText[512];
    
    va_list paramList;
    va_start(paramList, format);
    rc = vsnprintf(szText, 512, format, paramList);
    95c8:	1021883a 	mov	r16,r2

#else

void debug_output(char *pMessage){
    
    printf(pMessage);
    95cc:	000c4dc0 	call	c4dc <printf>
    va_end(paramList);
    
    debug_output(szText);

    return rc;    
}
    95d0:	8005883a 	mov	r2,r16
    95d4:	dfc08117 	ldw	ra,516(sp)
    95d8:	dc008017 	ldw	r16,512(sp)
    95dc:	dec08504 	addi	sp,sp,532
    95e0:	f800283a 	ret

000095e4 <myprintf_hexarray>:


int myprintf_hexarray(unsigned char *pHex, int len){
    95e4:	defff804 	addi	sp,sp,-32
    95e8:	dc800615 	stw	r18,24(sp)
    95ec:	dc400515 	stw	r17,20(sp)
    95f0:	dc000415 	stw	r16,16(sp)
    95f4:	dfc00715 	stw	ra,28(sp)
    95f8:	2025883a 	mov	r18,r4
    95fc:	2823883a 	mov	r17,r5
    int i;
    unsigned char szText[16];
    for(i=0;i<len;i++){
    9600:	2021883a 	mov	r16,r4
    9604:	8485c83a 	sub	r2,r16,r18
    9608:	1440090e 	bge	r2,r17,9630 <myprintf_hexarray+0x4c>
        sprintf(szText, "[%02X]", *(pHex+i));
    960c:	81800003 	ldbu	r6,0(r16)
    9610:	01400074 	movhi	r5,1
    9614:	2977ab04 	addi	r5,r5,-8532
    9618:	d809883a 	mov	r4,sp
    961c:	000c6940 	call	c694 <sprintf>
        DEBUG((szText));
    9620:	d809883a 	mov	r4,sp
    9624:	00095980 	call	9598 <myprintf>
    9628:	84000044 	addi	r16,r16,1
    962c:	003ff506 	br	9604 <_gp+0xffff32e8>
    }
    return len;
}
    9630:	8805883a 	mov	r2,r17
    9634:	dfc00717 	ldw	ra,28(sp)
    9638:	dc800617 	ldw	r18,24(sp)
    963c:	dc400517 	ldw	r17,20(sp)
    9640:	dc000417 	ldw	r16,16(sp)
    9644:	dec00804 	addi	sp,sp,32
    9648:	f800283a 	ret

0000964c <myprintf_dwordarray>:

int  myprintf_dwordarray(unsigned int *pArray, int nElementCount){
    964c:	defff804 	addi	sp,sp,-32
    9650:	dc800615 	stw	r18,24(sp)
    9654:	dc400515 	stw	r17,20(sp)
    9658:	dc000415 	stw	r16,16(sp)
    965c:	dfc00715 	stw	ra,28(sp)
    9660:	2825883a 	mov	r18,r5
    9664:	2023883a 	mov	r17,r4
    int i;
    char szText[16];
    for(i=0;i<nElementCount;i++){
    9668:	0021883a 	mov	r16,zero
    966c:	84800a0e 	bge	r16,r18,9698 <myprintf_dwordarray+0x4c>
        sprintf(szText, "[%08X]", *(pArray+i));
    9670:	89800017 	ldw	r6,0(r17)
    9674:	01400074 	movhi	r5,1
    9678:	2977ad04 	addi	r5,r5,-8524
    967c:	d809883a 	mov	r4,sp
    9680:	000c6940 	call	c694 <sprintf>
        DEBUG((szText));
    9684:	d809883a 	mov	r4,sp
    9688:	00095980 	call	9598 <myprintf>
}

int  myprintf_dwordarray(unsigned int *pArray, int nElementCount){
    int i;
    char szText[16];
    for(i=0;i<nElementCount;i++){
    968c:	84000044 	addi	r16,r16,1
    9690:	8c400104 	addi	r17,r17,4
    9694:	003ff506 	br	966c <_gp+0xffff3350>
        sprintf(szText, "[%08X]", *(pArray+i));
        DEBUG((szText));
    }
    return nElementCount;
}
    9698:	9005883a 	mov	r2,r18
    969c:	dfc00717 	ldw	ra,28(sp)
    96a0:	dc800617 	ldw	r18,24(sp)
    96a4:	dc400517 	ldw	r17,20(sp)
    96a8:	dc000417 	ldw	r16,16(sp)
    96ac:	dec00804 	addi	sp,sp,32
    96b0:	f800283a 	ret

000096b4 <SDHAL_IsSupport4Bits>:
    bool bYes = FALSE;
#ifdef SD_4BIT_MODE
    bYes = TRUE;
#endif    
    return bYes;
}
    96b4:	00800044 	movi	r2,1
    96b8:	f800283a 	ret

000096bc <SDHAL_Init>:

void SDHAL_Init(void){
    SD_CMD_OUT;
    96bc:	00c00074 	movhi	r3,1
    96c0:	00800044 	movi	r2,1
    96c4:	18c40904 	addi	r3,r3,4132
    96c8:	18800035 	stwio	r2,0(r3)
    SD_DAT_IN;
    96cc:	01000074 	movhi	r4,1
    96d0:	0007883a 	mov	r3,zero
    96d4:	21040504 	addi	r4,r4,4116
    96d8:	20c00035 	stwio	r3,0(r4)
    SD_CLK_HIGH;
    96dc:	01000074 	movhi	r4,1
    96e0:	21040c04 	addi	r4,r4,4144
    96e4:	20800035 	stwio	r2,0(r4)
    SD_CMD_HIGH;
    96e8:	01000074 	movhi	r4,1
    96ec:	21040804 	addi	r4,r4,4128
    96f0:	20800035 	stwio	r2,0(r4)
    SD_DAT_LOW;    
    96f4:	00800074 	movhi	r2,1
    96f8:	10840404 	addi	r2,r2,4112
    96fc:	10c00035 	stwio	r3,0(r2)
    9700:	f800283a 	ret

00009704 <SDHAL_SendCmd>:
void SDHAL_SendCmd(alt_u8 szCommand[6], int nCmdLen){

    int i, k;
    alt_u8 Mask, Data;
    
    SD_CMD_OUT;
    9704:	00c00074 	movhi	r3,1
    9708:	00800044 	movi	r2,1
    970c:	18c40904 	addi	r3,r3,4132
    9710:	18800035 	stwio	r2,0(r3)
    for(i=0;i<nCmdLen;i++){
        Mask = 0x80;
        Data = szCommand[i];
        for(k=0;k<8;k++){
            SD_CLK_LOW;
    9714:	02800074 	movhi	r10,1
    9718:	02400074 	movhi	r9,1

    int i, k;
    alt_u8 Mask, Data;
    
    SD_CMD_OUT;
    for(i=0;i<nCmdLen;i++){
    971c:	200d883a 	mov	r6,r4
        Mask = 0x80;
        Data = szCommand[i];
        for(k=0;k<8;k++){
            SD_CLK_LOW;
    9720:	52840c04 	addi	r10,r10,4144
    9724:	4a440804 	addi	r9,r9,4128

    int i, k;
    alt_u8 Mask, Data;
    
    SD_CMD_OUT;
    for(i=0;i<nCmdLen;i++){
    9728:	3107c83a 	sub	r3,r6,r4
    972c:	1940130e 	bge	r3,r5,977c <SDHAL_SendCmd+0x78>
        Mask = 0x80;
        Data = szCommand[i];
    9730:	32c00003 	ldbu	r11,0(r6)
    9734:	01c00204 	movi	r7,8
    int i, k;
    alt_u8 Mask, Data;
    
    SD_CMD_OUT;
    for(i=0;i<nCmdLen;i++){
        Mask = 0x80;
    9738:	00ffe004 	movi	r3,-128
        Data = szCommand[i];
        for(k=0;k<8;k++){
            SD_CLK_LOW;
    973c:	50000035 	stwio	zero,0(r10)
            if (Data & Mask)
    9740:	58d0703a 	and	r8,r11,r3
    9744:	42003fcc 	andi	r8,r8,255
    9748:	40000226 	beq	r8,zero,9754 <SDHAL_SendCmd+0x50>
                SD_CMD_HIGH;
    974c:	48800035 	stwio	r2,0(r9)
    9750:	00000106 	br	9758 <SDHAL_SendCmd+0x54>
            else
                SD_CMD_LOW;
    9754:	48000035 	stwio	zero,0(r9)
            SD_CLK_HIGH;    
    9758:	02000074 	movhi	r8,1
    975c:	42040c04 	addi	r8,r8,4144
    9760:	40800035 	stwio	r2,0(r8)
            //    
            Mask >>= 1;
    9764:	18c03fcc 	andi	r3,r3,255
    9768:	39ffffc4 	addi	r7,r7,-1
    976c:	1806d07a 	srli	r3,r3,1
    
    SD_CMD_OUT;
    for(i=0;i<nCmdLen;i++){
        Mask = 0x80;
        Data = szCommand[i];
        for(k=0;k<8;k++){
    9770:	383ff21e 	bne	r7,zero,973c <_gp+0xffff3420>
    9774:	31800044 	addi	r6,r6,1
    9778:	003feb06 	br	9728 <_gp+0xffff340c>
            //    
            Mask >>= 1;
           // usleep(1);
        }
    }
}
    977c:	f800283a 	ret

00009780 <SDHAL_DummyClock>:


void SDHAL_DummyClock(int nClockCnt){
    int i;
    for(i=0;i<nClockCnt;i++){
        SD_CLK_LOW;
    9780:	00c00074 	movhi	r3,1
}


void SDHAL_DummyClock(int nClockCnt){
    int i;
    for(i=0;i<nClockCnt;i++){
    9784:	0005883a 	mov	r2,zero
        SD_CLK_LOW;
    9788:	18c40c04 	addi	r3,r3,4144
        SD_CLK_HIGH;
    978c:	01400044 	movi	r5,1
}


void SDHAL_DummyClock(int nClockCnt){
    int i;
    for(i=0;i<nClockCnt;i++){
    9790:	1100040e 	bge	r2,r4,97a4 <SDHAL_DummyClock+0x24>
        SD_CLK_LOW;
    9794:	18000035 	stwio	zero,0(r3)
        SD_CLK_HIGH;
    9798:	19400035 	stwio	r5,0(r3)
}


void SDHAL_DummyClock(int nClockCnt){
    int i;
    for(i=0;i<nClockCnt;i++){
    979c:	10800044 	addi	r2,r2,1
    97a0:	003ffb06 	br	9790 <_gp+0xffff3474>
        SD_CLK_LOW;
        SD_CLK_HIGH;
    }
}
    97a4:	f800283a 	ret

000097a8 <SDHAL_GetResponse>:
    const int nMaxCnt = 20; // !!!! Note. the value should be large than 8
    int nCnt, nBitCnt, nIndex;
    alt_u8 Value;
    

    SD_CMD_IN;
    97a8:	00800074 	movhi	r2,1
    97ac:	10840904 	addi	r2,r2,4132
    97b0:	10000035 	stwio	zero,0(r2)
    //===== check start bit == 0
    nCnt = 0;
    bDone = FALSE;
    bTimeout = FALSE;
    while(!bDone && !bTimeout){
        SD_CLK_LOW;
    97b4:	00c00074 	movhi	r3,1
        SD_CLK_HIGH;
        if(!(SD_TEST_CMD))
    97b8:	02c00074 	movhi	r11,1
    const int nMaxCnt = 20; // !!!! Note. the value should be large than 8
    int nCnt, nBitCnt, nIndex;
    alt_u8 Value;
    

    SD_CMD_IN;
    97bc:	0005883a 	mov	r2,zero
    //===== check start bit == 0
    nCnt = 0;
    bDone = FALSE;
    bTimeout = FALSE;
    while(!bDone && !bTimeout){
        SD_CLK_LOW;
    97c0:	18c40c04 	addi	r3,r3,4144
        SD_CLK_HIGH;
    97c4:	02800044 	movi	r10,1
        if(!(SD_TEST_CMD))
    97c8:	5ac40804 	addi	r11,r11,4128
    
    //===== check start bit == 0
    nCnt = 0;
    bDone = FALSE;
    bTimeout = FALSE;
    while(!bDone && !bTimeout){
    97cc:	02000504 	movi	r8,20
        SD_CLK_LOW;
    97d0:	18000035 	stwio	zero,0(r3)
        SD_CLK_HIGH;
    97d4:	01c00044 	movi	r7,1
    97d8:	1a800035 	stwio	r10,0(r3)
        if(!(SD_TEST_CMD))
    97dc:	5b000037 	ldwio	r12,0(r11)
    97e0:	01800074 	movhi	r6,1
    97e4:	02400074 	movhi	r9,1
    97e8:	31840c04 	addi	r6,r6,4144
    97ec:	4a440804 	addi	r9,r9,4128
    97f0:	60000526 	beq	r12,zero,9808 <SDHAL_GetResponse+0x60>
    97f4:	100d883a 	mov	r6,r2
    97f8:	11c5883a 	add	r2,r2,r7
    
    //===== check start bit == 0
    nCnt = 0;
    bDone = FALSE;
    bTimeout = FALSE;
    while(!bDone && !bTimeout){
    97fc:	41bff40e 	bge	r8,r6,97d0 <_gp+0xffff34b4>
        else if(nCnt++ > nMaxCnt)
            bTimeout = TRUE;
    }
    
    if (!bDone || bTimeout)
        return FALSE;
    9800:	0005883a 	mov	r2,zero
    
    // A command with response. 8 clocks after the card response end bit.
    SDHAL_DummyClock(8);
    
    return TRUE;
}
    9804:	f800283a 	ret
    if (!bDone || bTimeout)
        return FALSE;
  
    //===== check transmitter bit == 0

    SD_CLK_LOW;
    9808:	30000035 	stwio	zero,0(r6)
    SD_CLK_HIGH;
    980c:	31c00035 	stwio	r7,0(r6)
    if (SD_TEST_CMD)
    9810:	48800037 	ldwio	r2,0(r9)
    9814:	103ffa1e 	bne	r2,zero,9800 <_gp+0xffff34e4>
        return FALSE;   // 0 is expected

    
    //===== read content + CRC + end-bits ======
    nIndex = 2;
    nBitCnt = nLen*8;
    9818:	280a90fa 	slli	r5,r5,3
    bDone = FALSE;
    Value = 0;
    981c:	0007883a 	mov	r3,zero
    if (SD_TEST_CMD)
        return FALSE;   // 0 is expected

    
    //===== read content + CRC + end-bits ======
    nIndex = 2;
    9820:	00800084 	movi	r2,2
    Value = 0;
    while(nIndex < nBitCnt){
        SD_CLK_LOW;
        SD_CLK_HIGH;
        if (SD_TEST_CMD){
            Value |= 0x80 >> (nIndex % 8);
    9824:	02802004 	movi	r10,128
        }
        if (nIndex%8 == 7){
    9828:	02c001c4 	movi	r11,7
    //===== read content + CRC + end-bits ======
    nIndex = 2;
    nBitCnt = nLen*8;
    bDone = FALSE;
    Value = 0;
    while(nIndex < nBitCnt){
    982c:	11400e0e 	bge	r2,r5,9868 <SDHAL_GetResponse+0xc0>
        SD_CLK_LOW;
    9830:	30000035 	stwio	zero,0(r6)
        SD_CLK_HIGH;
    9834:	31c00035 	stwio	r7,0(r6)
        if (SD_TEST_CMD){
    9838:	4b000037 	ldwio	r12,0(r9)
    983c:	120001cc 	andi	r8,r2,7
    9840:	60000226 	beq	r12,zero,984c <SDHAL_GetResponse+0xa4>
            Value |= 0x80 >> (nIndex % 8);
    9844:	5219d83a 	sra	r12,r10,r8
    9848:	60c6b03a 	or	r3,r12,r3
        }
        if (nIndex%8 == 7){
    984c:	42c0041e 	bne	r8,r11,9860 <SDHAL_GetResponse+0xb8>
            szResponse[nIndex/8] = Value;
    9850:	1011d0fa 	srai	r8,r2,3
    9854:	2211883a 	add	r8,r4,r8
    9858:	40c00005 	stb	r3,0(r8)
            Value = 0;
    985c:	0007883a 	mov	r3,zero
        }
        nIndex++;
    9860:	10800044 	addi	r2,r2,1
    9864:	003ff106 	br	982c <_gp+0xffff3510>
}




bool SDHAL_GetResponse(alt_u8 szResponse[], int nLen){
    9868:	deffff04 	addi	sp,sp,-4
        }
        nIndex++;
    } 
    
    // A command with response. 8 clocks after the card response end bit.
    SDHAL_DummyClock(8);
    986c:	01000204 	movi	r4,8
}




bool SDHAL_GetResponse(alt_u8 szResponse[], int nLen){
    9870:	dfc00015 	stw	ra,0(sp)
        }
        nIndex++;
    } 
    
    // A command with response. 8 clocks after the card response end bit.
    SDHAL_DummyClock(8);
    9874:	00097800 	call	9780 <SDHAL_DummyClock>
    
    return TRUE;
    9878:	00800044 	movi	r2,1
}
    987c:	dfc00017 	ldw	ra,0(sp)
    9880:	dec00104 	addi	sp,sp,4
    9884:	f800283a 	ret

00009888 <SDHAL_ReadData>:
    
    alt_u8 Data8_0,Data8_1,Data8_2,Data8_3;
    
#endif    
    
    SD_DAT_IN;
    9888:	00800074 	movhi	r2,1
    988c:	10840504 	addi	r2,r2,4116
    9890:	10000035 	stwio	zero,0(r2)
    
    // wait start bits (zero)
    while(1){
      SD_CLK_LOW;
    9894:	01c00074 	movhi	r7,1
      SD_CLK_HIGH;
#ifdef SD_4BIT_MODE
      if((SD_TEST_DAT & 0x0F) == 0x00) // check start bits (zero is expected)
    9898:	02400074 	movhi	r9,1
    
    alt_u8 Data8_0,Data8_1,Data8_2,Data8_3;
    
#endif    
    
    SD_DAT_IN;
    989c:	0084e284 	movi	r2,5002
    
    // wait start bits (zero)
    while(1){
      SD_CLK_LOW;
    98a0:	39c40c04 	addi	r7,r7,4144
      SD_CLK_HIGH;
    98a4:	02000044 	movi	r8,1
#ifdef SD_4BIT_MODE
      if((SD_TEST_DAT & 0x0F) == 0x00) // check start bits (zero is expected)
    98a8:	4a440404 	addi	r9,r9,4112
    
    SD_DAT_IN;
    
    // wait start bits (zero)
    while(1){
      SD_CLK_LOW;
    98ac:	38000035 	stwio	zero,0(r7)
      SD_CLK_HIGH;
    98b0:	3a000035 	stwio	r8,0(r7)
#ifdef SD_4BIT_MODE
      if((SD_TEST_DAT & 0x0F) == 0x00) // check start bits (zero is expected)
    98b4:	48c00037 	ldwio	r3,0(r9)
    98b8:	01800074 	movhi	r6,1
    98bc:	03000074 	movhi	r12,1
    98c0:	18c003cc 	andi	r3,r3,15
    98c4:	31840c04 	addi	r6,r6,4144
    98c8:	63040404 	addi	r12,r12,4112
    98cc:	18000f1e 	bne	r3,zero,990c <SDHAL_ReadData+0x84>
    
    return TRUE;
}


bool SDHAL_ReadData(alt_u8 szBuf[], int nBufLen){
    98d0:	deff7904 	addi	sp,sp,-540
    98d4:	dfc08615 	stw	ra,536(sp)
    98d8:	dd408515 	stw	r21,532(sp)
    98dc:	dd008415 	stw	r20,528(sp)
    98e0:	dcc08315 	stw	r19,524(sp)
    98e4:	dc808215 	stw	r18,520(sp)
    98e8:	dc408115 	stw	r17,516(sp)
    98ec:	dc008015 	stw	r16,512(sp)
    }     
    
    // read data (512byte = 1 block)
    
#ifdef SD_4BIT_MODE
     for(i=0;i<nBufLen/4;i++)
    98f0:	2800010e 	bge	r5,zero,98f8 <SDHAL_ReadData+0x70>
    98f4:	294000c4 	addi	r5,r5,3
    98f8:	2821d0ba 	srai	r16,r5,2
    98fc:	001b883a 	mov	r13,zero
    9900:	0007883a 	mov	r3,zero
        Data8_3 = 0;
        
        for(j=0;j<8;j++)
        {
          SD_CLK_LOW;
          SD_CLK_HIGH;
    9904:	04800044 	movi	r18,1
    9908:	00002f06 	br	99c8 <SDHAL_ReadData+0x140>
    990c:	10bfffc4 	addi	r2,r2,-1
      if((SD_TEST_DAT & 0x0F) == 0x00) // check start bits (zero is expected)
#else      
      if((SD_TEST_DAT & 0x01) == 0x00) // check start bits (zero is expected)
#endif      
        break;
      if (nTry++ > nMaxTry)
    9910:	103fe61e 	bne	r2,zero,98ac <_gp+0xffff3590>
    9914:	0005883a 	mov	r2,zero
    }            
    
#endif

    return bSuccess;
}
    9918:	f800283a 	ret
        Data8_2 = 0;
        Data8_3 = 0;
        
        for(j=0;j<8;j++)
        {
          SD_CLK_LOW;
    991c:	30000035 	stwio	zero,0(r6)
          SD_CLK_HIGH;
    9920:	34800035 	stwio	r18,0(r6)
          Data8_0 <<= 1;
          Data8_1 <<= 1;
          Data8_2 <<= 1;
          Data8_3 <<= 1; 
          
          DataTemp = SD_TEST_DAT;
    9924:	60800037 	ldwio	r2,0(r12)
          Data8   |= (DataTemp & 0x0F);
          Data8_0 |= (DataTemp & 0x01);
    9928:	1440004c 	andi	r17,r2,1
          Data8_1 <<= 1;
          Data8_2 <<= 1;
          Data8_3 <<= 1; 
          
          DataTemp = SD_TEST_DAT;
          Data8   |= (DataTemp & 0x0F);
    992c:	12c003cc 	andi	r11,r2,15
          Data8_0 |= (DataTemp & 0x01);
    9930:	4a53883a 	add	r9,r9,r9
          Data8_1 |= ((DataTemp >> 1) & 0x01);
    9934:	10803fcc 	andi	r2,r2,255
          Data8_2 <<= 1;
          Data8_3 <<= 1; 
          
          DataTemp = SD_TEST_DAT;
          Data8   |= (DataTemp & 0x0F);
          Data8_0 |= (DataTemp & 0x01);
    9938:	8a52b03a 	or	r9,r17,r9
          Data8_1 |= ((DataTemp >> 1) & 0x01);
    993c:	1022d07a 	srli	r17,r2,1
    9940:	4211883a 	add	r8,r8,r8
          Data8_1 <<= 1;
          Data8_2 <<= 1;
          Data8_3 <<= 1; 
          
          DataTemp = SD_TEST_DAT;
          Data8   |= (DataTemp & 0x0F);
    9944:	5014913a 	slli	r10,r10,4
          Data8_0 |= (DataTemp & 0x01);
          Data8_1 |= ((DataTemp >> 1) & 0x01);
    9948:	8c40004c 	andi	r17,r17,1
    994c:	8a10b03a 	or	r8,r17,r8
          Data8_2 |= ((DataTemp >> 2) & 0x01);
    9950:	1022d0ba 	srli	r17,r2,2
          Data8_3 |= ((DataTemp >> 3) & 0x01);
    9954:	1004d0fa 	srli	r2,r2,3
          Data8_1 <<= 1;
          Data8_2 <<= 1;
          Data8_3 <<= 1; 
          
          DataTemp = SD_TEST_DAT;
          Data8   |= (DataTemp & 0x0F);
    9958:	5a96b03a 	or	r11,r11,r10
          Data8_0 |= (DataTemp & 0x01);
          Data8_1 |= ((DataTemp >> 1) & 0x01);
          Data8_2 |= ((DataTemp >> 2) & 0x01);
    995c:	8c40004c 	andi	r17,r17,1
    9960:	39cf883a 	add	r7,r7,r7
          Data8_3 |= ((DataTemp >> 3) & 0x01);
    9964:	1080004c 	andi	r2,r2,1
    9968:	294b883a 	add	r5,r5,r5
          Data8_1 <<= 1;
          Data8_2 <<= 1;
          Data8_3 <<= 1; 
          
          DataTemp = SD_TEST_DAT;
          Data8   |= (DataTemp & 0x0F);
    996c:	5815883a 	mov	r10,r11
          Data8_0 |= (DataTemp & 0x01);
          Data8_1 |= ((DataTemp >> 1) & 0x01);
          Data8_2 |= ((DataTemp >> 2) & 0x01);
    9970:	89ceb03a 	or	r7,r17,r7
          Data8_3 |= ((DataTemp >> 3) & 0x01);
    9974:	114ab03a 	or	r5,r2,r5
          
          k++;
          if(k == 2)
    9978:	7c801c1e 	bne	r15,r18,99ec <SDHAL_ReadData+0x164>
          {
            szBuf[n++] = Data8;
    997c:	2345883a 	add	r2,r4,r13
    9980:	12c00005 	stb	r11,0(r2)
    9984:	6b400044 	addi	r13,r13,1
            Data8 = 0;
    9988:	0015883a 	mov	r10,zero
            k = 0;
    998c:	001f883a 	mov	r15,zero
    9990:	73bfffc4 	addi	r14,r14,-1
        Data8_0 = 0;
        Data8_1 = 0;
        Data8_2 = 0;
        Data8_3 = 0;
        
        for(j=0;j<8;j++)
    9994:	703fe11e 	bne	r14,zero,991c <_gp+0xffff3600>
            szBuf[n++] = Data8;
            Data8 = 0;
            k = 0;
          }
        } 
        szBuf_0[i] = Data8_0;
    9998:	da806004 	addi	r10,sp,384
    999c:	50c5883a 	add	r2,r10,r3
    99a0:	12400005 	stb	r9,0(r2)
        szBuf_1[i] = Data8_1;
    99a4:	da404004 	addi	r9,sp,256
    99a8:	48c5883a 	add	r2,r9,r3
        szBuf_2[i] = Data8_2;
    99ac:	da802004 	addi	r10,sp,128
            Data8 = 0;
            k = 0;
          }
        } 
        szBuf_0[i] = Data8_0;
        szBuf_1[i] = Data8_1;
    99b0:	12000005 	stb	r8,0(r2)
        szBuf_2[i] = Data8_2;
    99b4:	50c5883a 	add	r2,r10,r3
    99b8:	11c00005 	stb	r7,0(r2)
        szBuf_3[i] = Data8_3;
    99bc:	d8c5883a 	add	r2,sp,r3
    99c0:	11400005 	stb	r5,0(r2)
    }     
    
    // read data (512byte = 1 block)
    
#ifdef SD_4BIT_MODE
     for(i=0;i<nBufLen/4;i++)
    99c4:	18c00044 	addi	r3,r3,1
    99c8:	1c000a0e 	bge	r3,r16,99f4 <SDHAL_ReadData+0x16c>
    99cc:	03800204 	movi	r14,8
    99d0:	000b883a 	mov	r5,zero
    99d4:	000f883a 	mov	r7,zero
    99d8:	0011883a 	mov	r8,zero
    99dc:	0013883a 	mov	r9,zero
    99e0:	0015883a 	mov	r10,zero
    99e4:	001f883a 	mov	r15,zero
    99e8:	003fcc06 	br	991c <_gp+0xffff3600>
    99ec:	03c00044 	movi	r15,1
    99f0:	003fe706 	br	9990 <_gp+0xffff3674>
    99f4:	00c00404 	movi	r3,16
    99f8:	0023883a 	mov	r17,zero
    99fc:	0025883a 	mov	r18,zero
    9a00:	0027883a 	mov	r19,zero
    9a04:	0029883a 	mov	r20,zero
    DataCrc16_2 = 0;
    DataCrc16_3 = 0;
    for(i=0;i<16;i++)
    {
        SD_CLK_LOW;
        SD_CLK_HIGH;
    9a08:	02400044 	movi	r9,1
    DataCrc16_1 = 0;
    DataCrc16_2 = 0;
    DataCrc16_3 = 0;
    for(i=0;i<16;i++)
    {
        SD_CLK_LOW;
    9a0c:	30000035 	stwio	zero,0(r6)
        SD_CLK_HIGH;
    9a10:	32400035 	stwio	r9,0(r6)
        
        DataCrc16_0 <<= 1;
    9a14:	a511883a 	add	r8,r20,r20
        DataCrc16_1 <<= 1;
    9a18:	9ccf883a 	add	r7,r19,r19
        DataCrc16_2 <<= 1;
    9a1c:	948b883a 	add	r5,r18,r18
        DataCrc16_3 <<= 1;
    9a20:	8c49883a 	add	r4,r17,r17
    for(i=0;i<16;i++)
    {
        SD_CLK_LOW;
        SD_CLK_HIGH;
        
        DataCrc16_0 <<= 1;
    9a24:	4029883a 	mov	r20,r8
        DataCrc16_1 <<= 1;
    9a28:	3827883a 	mov	r19,r7
        DataCrc16_2 <<= 1;
    9a2c:	2825883a 	mov	r18,r5
        DataCrc16_3 <<= 1;
    9a30:	2023883a 	mov	r17,r4
        
        DataTemp = SD_TEST_DAT;
    9a34:	60800037 	ldwio	r2,0(r12)
        
        if (DataTemp & 0x01)
    9a38:	1280004c 	andi	r10,r2,1
    9a3c:	50000126 	beq	r10,zero,9a44 <SDHAL_ReadData+0x1bc>
            DataCrc16_0 |= 0x01;
    9a40:	45000054 	ori	r20,r8,1
         if(DataTemp & 0x02)
    9a44:	1200008c 	andi	r8,r2,2
    9a48:	40000126 	beq	r8,zero,9a50 <SDHAL_ReadData+0x1c8>
            DataCrc16_1 |= 0x01;
    9a4c:	3cc00054 	ori	r19,r7,1
         if(DataTemp & 0x04)
    9a50:	11c0010c 	andi	r7,r2,4
    9a54:	38000126 	beq	r7,zero,9a5c <SDHAL_ReadData+0x1d4>
            DataCrc16_2 |= 0x01;
    9a58:	2c800054 	ori	r18,r5,1
         if(DataTemp & 0x08)
    9a5c:	1080020c 	andi	r2,r2,8
    9a60:	10000126 	beq	r2,zero,9a68 <SDHAL_ReadData+0x1e0>
            DataCrc16_3 |= 0x01;
    9a64:	24400054 	ori	r17,r4,1
    9a68:	18ffffc4 	addi	r3,r3,-1
    // Not implement yet
    DataCrc16_0 = 0;
    DataCrc16_1 = 0;
    DataCrc16_2 = 0;
    DataCrc16_3 = 0;
    for(i=0;i<16;i++)
    9a6c:	183fe71e 	bne	r3,zero,9a0c <_gp+0xffff36f0>
         if(DataTemp & 0x08)
            DataCrc16_3 |= 0x01;
    }
    
    // check end bit (value 'one' is expected
    SD_CLK_LOW;
    9a70:	30000035 	stwio	zero,0(r6)
    SD_CLK_HIGH;
    9a74:	00800044 	movi	r2,1
    9a78:	30800035 	stwio	r2,0(r6)
    if ((SD_TEST_DAT & 0x0F) != 0x0F)
    9a7c:	65400037 	ldwio	r21,0(r12)
        bSuccess = FALSE;
     
    // to provide8 (eight) clock cycles for the card to complete the operation before shutting down the clock 
    SDHAL_DummyClock(8);     
    9a80:	01000204 	movi	r4,8
    9a84:	00097800 	call	9780 <SDHAL_DummyClock>
     
    // check crc    
    if (bSuccess){
    9a88:	ad4003cc 	andi	r21,r21,15
    9a8c:	008003c4 	movi	r2,15
    9a90:	a880191e 	bne	r21,r2,9af8 <SDHAL_ReadData+0x270>
        MyCrc16_0 = crc16(szBuf_0, nBufLen/4);
    9a94:	800b883a 	mov	r5,r16
    9a98:	d9006004 	addi	r4,sp,384
    9a9c:	00094f00 	call	94f0 <crc16>
        if (MyCrc16_0 != DataCrc16_0)
    9aa0:	a53fffcc 	andi	r20,r20,65535
    9aa4:	10bfffcc 	andi	r2,r2,65535
    9aa8:	a080131e 	bne	r20,r2,9af8 <SDHAL_ReadData+0x270>
            bSuccess = FALSE;
    }    
    if (bSuccess){
        MyCrc16_1 = crc16(szBuf_1, nBufLen/4);
    9aac:	800b883a 	mov	r5,r16
    9ab0:	d9004004 	addi	r4,sp,256
    9ab4:	00094f00 	call	94f0 <crc16>
        if (MyCrc16_1 != DataCrc16_1)
    9ab8:	9cffffcc 	andi	r19,r19,65535
    9abc:	10bfffcc 	andi	r2,r2,65535
    9ac0:	98800d1e 	bne	r19,r2,9af8 <SDHAL_ReadData+0x270>
            bSuccess = FALSE;
    }   
    if (bSuccess){
        MyCrc16_2 = crc16(szBuf_2, nBufLen/4);
    9ac4:	800b883a 	mov	r5,r16
    9ac8:	d9002004 	addi	r4,sp,128
    9acc:	00094f00 	call	94f0 <crc16>
        if (MyCrc16_2 != DataCrc16_2)
    9ad0:	94bfffcc 	andi	r18,r18,65535
    9ad4:	10bfffcc 	andi	r2,r2,65535
    9ad8:	9080071e 	bne	r18,r2,9af8 <SDHAL_ReadData+0x270>
            bSuccess = FALSE;
    } 
    if (bSuccess){
        MyCrc16_3 = crc16(szBuf_3, nBufLen/4);
    9adc:	800b883a 	mov	r5,r16
    9ae0:	d809883a 	mov	r4,sp
    9ae4:	00094f00 	call	94f0 <crc16>
#else      
      if((SD_TEST_DAT & 0x01) == 0x00) // check start bits (zero is expected)
#endif      
        break;
      if (nTry++ > nMaxTry)
        return FALSE;        
    9ae8:	8c7fffcc 	andi	r17,r17,65535
    9aec:	10bfffcc 	andi	r2,r2,65535
    9af0:	8885003a 	cmpeq	r2,r17,r2
    9af4:	00000106 	br	9afc <SDHAL_ReadData+0x274>
    9af8:	0005883a 	mov	r2,zero
    }            
    
#endif

    return bSuccess;
}
    9afc:	dfc08617 	ldw	ra,536(sp)
    9b00:	dd408517 	ldw	r21,532(sp)
    9b04:	dd008417 	ldw	r20,528(sp)
    9b08:	dcc08317 	ldw	r19,524(sp)
    9b0c:	dc808217 	ldw	r18,520(sp)
    9b10:	dc408117 	ldw	r17,516(sp)
    9b14:	dc008017 	ldw	r16,512(sp)
    9b18:	dec08704 	addi	sp,sp,540
    9b1c:	f800283a 	ret

00009b20 <SDHAL_WriteData>:

bool SDHAL_WriteData(alt_u8 szDataWrite[], int nDataLen){
    9b20:	defffd04 	addi	sp,sp,-12
    9b24:	dc400115 	stw	r17,4(sp)
    9b28:	dc000015 	stw	r16,0(sp)
    9b2c:	2823883a 	mov	r17,r5
    9b30:	dfc00215 	stw	ra,8(sp)
    9b34:	2021883a 	mov	r16,r4
  //  const int nMaxTry = 5000; 
    int i, j;   
    alt_u8 Data8;
    alt_u16 DataCrc16;
    
    DataCrc16 = crc16(szDataWrite, nDataLen);
    9b38:	00094f00 	call	94f0 <crc16>
        break;
      if (nTry++ > nMaxTry)
        return FALSE;        
    } */    
    
    SD_DAT_OUT;
    9b3c:	01400074 	movhi	r5,1
    9b40:	00800044 	movi	r2,1
    9b44:	29440504 	addi	r5,r5,4116
    9b48:	28800035 	stwio	r2,0(r5)
    // start bits (zero value)
    SD_CLK_LOW;
    9b4c:	00c00074 	movhi	r3,1
    9b50:	18c40c04 	addi	r3,r3,4144
    9b54:	18000035 	stwio	zero,0(r3)
    SD_DAT_WRITE(0x00);  
    9b58:	01000074 	movhi	r4,1
    9b5c:	21040404 	addi	r4,r4,4112
    9b60:	20000035 	stwio	zero,0(r4)
    SD_CLK_HIGH;
    9b64:	18800035 	stwio	r2,0(r3)
    
    // write data (512byte = 1 block)
    for(i=0;i<nDataLen;i++)
    9b68:	800d883a 	mov	r6,r16
    9b6c:	340fc83a 	sub	r7,r6,r16
    9b70:	3c400c0e 	bge	r7,r17,9ba4 <SDHAL_WriteData+0x84>
    {
      Data8 = szDataWrite[i];
    9b74:	31c00003 	ldbu	r7,0(r6)
#ifdef SD_4BIT_MODE
      for(j=0;j<2;j++)
      {
        SD_CLK_LOW;
    9b78:	18000035 	stwio	zero,0(r3)
        //
        SD_DAT_WRITE((Data8 >> 4) & 0x0F);
    9b7c:	3a003fcc 	andi	r8,r7,255
    9b80:	4010d13a 	srli	r8,r8,4
    9b84:	22000035 	stwio	r8,0(r4)
        //            
        SD_CLK_HIGH;
    9b88:	18800035 	stwio	r2,0(r3)
    {
      Data8 = szDataWrite[i];
#ifdef SD_4BIT_MODE
      for(j=0;j<2;j++)
      {
        SD_CLK_LOW;
    9b8c:	18000035 	stwio	zero,0(r3)
        //
        SD_DAT_WRITE((Data8 >> 4) & 0x0F);
    9b90:	39c003cc 	andi	r7,r7,15
    9b94:	21c00035 	stwio	r7,0(r4)
        //            
        SD_CLK_HIGH;
    9b98:	18800035 	stwio	r2,0(r3)
    9b9c:	31800044 	addi	r6,r6,1
    9ba0:	003ff206 	br	9b6c <_gp+0xffff3850>

    
#endif    

    // stop bits (value 'one')
    SD_CLK_LOW;
    9ba4:	18000035 	stwio	zero,0(r3)
#ifdef SD_4BIT_MODE
    SD_DAT_WRITE(0x0F);
    9ba8:	008003c4 	movi	r2,15
    9bac:	20800035 	stwio	r2,0(r4)
#else    
    SD_DAT_HIGH;
#endif     
    SD_CLK_HIGH;
    9bb0:	00800044 	movi	r2,1
    9bb4:	18800035 	stwio	r2,0(r3)
    
    //===== check busy bits (data0 only)
    SD_DAT_IN;
    9bb8:	28000035 	stwio	zero,0(r5)
    9bbc:	01400804 	movi	r5,32
bool bWriteSuccess = FALSE;    
for(i=0;i<32 && !bWriteSuccess;i++){        
    SD_CLK_LOW;
    9bc0:	18000035 	stwio	zero,0(r3)
    SD_CLK_HIGH;
    9bc4:	18800035 	stwio	r2,0(r3)
    if ((SD_TEST_DAT & 0x01) == 0x01) // (DAT0==LOW: busy indicate
    9bc8:	24000037 	ldwio	r16,0(r4)
    9bcc:	297fffc4 	addi	r5,r5,-1
    9bd0:	8400004c 	andi	r16,r16,1
    SD_CLK_HIGH;
    
    //===== check busy bits (data0 only)
    SD_DAT_IN;
bool bWriteSuccess = FALSE;    
for(i=0;i<32 && !bWriteSuccess;i++){        
    9bd4:	28000226 	beq	r5,zero,9be0 <SDHAL_WriteData+0xc0>
    9bd8:	803ff926 	beq	r16,zero,9bc0 <_gp+0xffff38a4>

    return bSuccess;
}

bool SDHAL_WriteData(alt_u8 szDataWrite[], int nDataLen){
    bool bSuccess = TRUE;
    9bdc:	04000044 	movi	r16,1
}
    if (!bWriteSuccess)
        bSuccess = FALSE;
                
    // to provide8 (eight) clock cycles for the card to complete the operation before shutting down the clock 
    SDHAL_DummyClock(8);     
    9be0:	01000204 	movi	r4,8
    9be4:	00097800 	call	9780 <SDHAL_DummyClock>
        SD_CLK_HIGH;
    }*/
    
    return bSuccess;
    
}
    9be8:	8005883a 	mov	r2,r16
    9bec:	dfc00217 	ldw	ra,8(sp)
    9bf0:	dc400117 	ldw	r17,4(sp)
    9bf4:	dc000017 	ldw	r16,0(sp)
    9bf8:	dec00304 	addi	sp,sp,12
    9bfc:	f800283a 	ret

00009c00 <SDLIB_Init>:
static SD_INFO gSdInfo;


//-------------------------------------------------------------------------
bool SDLIB_Init(void)
{
    9c00:	defff604 	addi	sp,sp,-40
    9c04:	dc000415 	stw	r16,16(sp)
    const int nTimeout = alt_ticks_per_second();
    alt_u32 TimeStart;

    
   // alt_u8 x,y;
    memset(&gSdInfo, 0, sizeof(gSdInfo));
    9c08:	04000074 	movhi	r16,1
    9c0c:	84391704 	addi	r16,r16,-7076
    9c10:	000b883a 	mov	r5,zero
    9c14:	01800e04 	movi	r6,56
    9c18:	8009883a 	mov	r4,r16
static SD_INFO gSdInfo;


//-------------------------------------------------------------------------
bool SDLIB_Init(void)
{
    9c1c:	dfc00915 	stw	ra,36(sp)
    9c20:	dc800615 	stw	r18,24(sp)
    9c24:	dc400515 	stw	r17,20(sp)
    9c28:	dd000815 	stw	r20,32(sp)
    9c2c:	dcc00715 	stw	r19,28(sp)
 * Obtain the system clock rate in ticks/s. 
 */

static ALT_INLINE alt_u32 ALT_ALWAYS_INLINE alt_ticks_per_second (void)
{
  return _alt_tick_rate;
    9c30:	d4a04f17 	ldw	r18,-32452(gp)
    const int nTimeout = alt_ticks_per_second();
    alt_u32 TimeStart;

    
   // alt_u8 x,y;
    memset(&gSdInfo, 0, sizeof(gSdInfo));
    9c34:	000c2440 	call	c244 <memset>
    gSdInfo.bSupport4Bits = SD_IsSupport4Bits();
    9c38:	0009ea00 	call	9ea0 <SD_IsSupport4Bits>

    SDCARD_DEBUG(("--- Power On, Card Identification Mode, Idle State\r\n"));
    SDCARD_DEBUG(("sd %d-bit mode\r\n", gSdInfo.bSupport4Bits?4:1));
  
    usleep(74*10);
    9c3c:	0100b904 	movi	r4,740
    alt_u32 TimeStart;

    
   // alt_u8 x,y;
    memset(&gSdInfo, 0, sizeof(gSdInfo));
    gSdInfo.bSupport4Bits = SD_IsSupport4Bits();
    9c40:	80800015 	stw	r2,0(r16)

    SDCARD_DEBUG(("--- Power On, Card Identification Mode, Idle State\r\n"));
    SDCARD_DEBUG(("sd %d-bit mode\r\n", gSdInfo.bSupport4Bits?4:1));
  
    usleep(74*10);
    9c44:	000d8e00 	call	d8e0 <usleep>
    
    SD_Init();
    9c48:	0009e9c0 	call	9e9c <SD_Init>

    
    //========================== CMD0 (None Response) ========
    // Reset all cards to idle state
    SD_CMD0();
    9c4c:	0009ea40 	call	9ea4 <SD_CMD0>
    usleep(100*1000);
    9c50:	010000b4 	movhi	r4,2
    9c54:	2121a804 	addi	r4,r4,-31072
    9c58:	000d8e00 	call	d8e0 <usleep>
    
    //========================== CMD8 (Response R7) ==========
    //Sends SD Memory Card interface condition (Added in SDHC 2.0)
    if (SD_CMD8(SD_VHS_2V7_3V6, CMD8_DEFAULT_TEST_PATTERN)){
    9c5c:	04400044 	movi	r17,1
    9c60:	01402a84 	movi	r5,170
    9c64:	8809883a 	mov	r4,r17
    9c68:	0009f080 	call	9f08 <SD_CMD8>
    9c6c:	10000626 	beq	r2,zero,9c88 <SDLIB_Init+0x88>
        // OCR: Operation Condistions Register
        //gSdInfo.HostOCR32 = 0x01 << 30; //argument=0x40FF8000; // support HC
        gSdInfo.HostOCR32 = 0x40FF8000;
    9c70:	00904034 	movhi	r2,16640
    9c74:	10a00004 	addi	r2,r2,-32768
    9c78:	80800315 	stw	r2,12(r16)
        gSdInfo.bVer2 = TRUE;
    9c7c:	84400115 	stw	r17,4(r16)
        gSdInfo.bSDHC = TRUE;
    9c80:	84400215 	stw	r17,8(r16)
    9c84:	00000606 	br	9ca0 <SDLIB_Init+0xa0>
        SDCARD_DEBUG((" 2.0 \r\n"));
    }else{
        gSdInfo.HostOCR32 = 0x00040000;   
    9c88:	00800134 	movhi	r2,4
    9c8c:	80800315 	stw	r2,12(r16)
        SDCARD_TRACE(("CMD8 not supported\r\n"));
        
        // Reset cards to idle state
        SD_CMD0();
    9c90:	0009ea40 	call	9ea4 <SD_CMD0>
        usleep(100*1000);        
    9c94:	010000b4 	movhi	r4,2
    9c98:	2121a804 	addi	r4,r4,-31072
    9c9c:	000d8e00 	call	d8e0 <usleep>
 * alt_nticks() returns the elapsed number of system clock ticks since reset.
 */

static ALT_INLINE alt_u32 ALT_ALWAYS_INLINE alt_nticks (void)
{
  return _alt_nticks;
    9ca0:	d4e04e17 	ldw	r19,-32456(gp)
    }
    //========================== ACMD41 (CMD55) ==============
    TimeStart = alt_nticks();
    while(!bSuccess && !bTimeout){
        if (!SD_CMD55(gSdInfo.RCA16, SD_STATE_IDLE)){  // execute cmd55 before execute and ACMD
    9ca4:	05000074 	movhi	r20,1
    9ca8:	a5391704 	addi	r20,r20,-7076
    9cac:	8100050b 	ldhu	r4,20(r16)
    9cb0:	04400074 	movhi	r17,1
    9cb4:	000b883a 	mov	r5,zero
    9cb8:	8c791704 	addi	r17,r17,-7076
    9cbc:	000a4e80 	call	a4e8 <SD_CMD55>
    9cc0:	1000021e 	bne	r2,zero,9ccc <SDLIB_Init+0xcc>
            SDCARD_ERROR(("CMD55 NG\r\n"));
            return FALSE;
    9cc4:	0005883a 	mov	r2,zero
    9cc8:	00004006 	br	9dcc <SDLIB_Init+0x1cc>
        }else{    
            bSuccess = SD_ACMD41(gSdInfo.HostOCR32, &gSdInfo.OCR32);
    9ccc:	a1000317 	ldw	r4,12(r20)
    9cd0:	89400404 	addi	r5,r17,16
    9cd4:	0009ff80 	call	9ff8 <SD_ACMD41>
            if (bSuccess && gSdInfo.bSDHC && ((gSdInfo.OCR32 & 0x40000000) == 0x00)){
    9cd8:	10003626 	beq	r2,zero,9db4 <SDLIB_Init+0x1b4>
    9cdc:	88800217 	ldw	r2,8(r17)
    9ce0:	10000426 	beq	r2,zero,9cf4 <SDLIB_Init+0xf4>
    9ce4:	88800417 	ldw	r2,16(r17)
    9ce8:	1090002c 	andhi	r2,r2,16384
    9cec:	1000011e 	bne	r2,zero,9cf4 <SDLIB_Init+0xf4>
                gSdInfo.bSDHC = FALSE;
    9cf0:	88000215 	stw	zero,8(r17)
    }
   
    //========================== CMD2 ========================    
    // issue cmd2 & wait response 
    // ALL_SEND_CID (CMD2): Asks any card to send the CID numbers on the CMD line
    if (!SD_CMD2(gSdInfo.szCID, sizeof(gSdInfo.szCID))){
    9cf4:	01000074 	movhi	r4,1
    9cf8:	01400444 	movi	r5,17
    9cfc:	21391c84 	addi	r4,r4,-7054
    9d00:	000a0d80 	call	a0d8 <SD_CMD2>
    9d04:	103fef26 	beq	r2,zero,9cc4 <_gp+0xffff39a8>
    SDCARD_TRACE(("--- Power On, Card Identification Mode, Identification State\r\n"));

    //========================== CMD3 ========================        
    // issue cmd3 & wait response, finally get RCA
    // CMD3 (SEND_RELATIVE_ADDR): Ask the card to publish a new relative address (RCA)
    if (!SD_CMD3(&gSdInfo.RCA16)){
    9d08:	01000074 	movhi	r4,1
    9d0c:	21391c04 	addi	r4,r4,-7056
    9d10:	000a1e00 	call	a1e0 <SD_CMD3>
    9d14:	103feb26 	beq	r2,zero,9cc4 <_gp+0xffff39a8>
    //### Standby-by state in Data-transfer mode
    
    //========================== CMD9 ========================
    SDCARD_DEBUG(("--- enter data-transfer mode, Standby state\r\n"));
    // issue cmd9 with given RCA & wait response 
    if (!SD_CMD9(gSdInfo.RCA16, gSdInfo.szCSD, sizeof(gSdInfo.szCSD))){
    9d18:	04400074 	movhi	r17,1
    9d1c:	8100050b 	ldhu	r4,20(r16)
    9d20:	8c791704 	addi	r17,r17,-7076
    9d24:	01800444 	movi	r6,17
    9d28:	894009c4 	addi	r5,r17,39
    9d2c:	000a2e00 	call	a2e0 <SD_CMD9>
    9d30:	103fe426 	beq	r2,zero,9cc4 <_gp+0xffff39a8>
        return FALSE;
    }
    
    //========================== CMD10 ========================
    // richard add  (query card identification)  
    if (!SD_CMD10(gSdInfo.RCA16, szThisCID, sizeof(szThisCID))){
    9d34:	8900050b 	ldhu	r4,20(r17)
    9d38:	01800404 	movi	r6,16
    9d3c:	d80b883a 	mov	r5,sp
    9d40:	000a3d00 	call	a3d0 <SD_CMD10>
    9d44:	103fdf26 	beq	r2,zero,9cc4 <_gp+0xffff39a8>
    // issue cmd9 with given RCA & wait response
    
    //========================== CMD7 ========================
    // richard: issue cmd7 to enter transfer state
    // cmd7: toggle between Standy-by and Trasfer State
    if (!SD_CMD7(gSdInfo.RCA16)){
    9d48:	8900050b 	ldhu	r4,20(r17)
    9d4c:	000a5d40 	call	a5d4 <SD_CMD7>
    9d50:	103fdc26 	beq	r2,zero,9cc4 <_gp+0xffff39a8>
    //### Transfer state in Data-transfer mode     
    SDCARD_DEBUG(("--- enter data-transfer mode, Transfer state\r\n"));
       
    //========================== CMD16 ========================   
    // issue cmd16 (select a block length) & wait response
    if (!SD_CMD16(512)){  // 512 bytes
    9d54:	01008004 	movi	r4,512
    9d58:	000a6ac0 	call	a6ac <SD_CMD16>
    9d5c:	103fd926 	beq	r2,zero,9cc4 <_gp+0xffff39a8>
        SDCARD_DEBUG(("CMD16 fail\r\n"));
        return FALSE;
    }       
    
    if (gSdInfo.bSupport4Bits){ 
    9d60:	88800017 	ldw	r2,0(r17)
    9d64:	10001126 	beq	r2,zero,9dac <SDLIB_Init+0x1ac>
        // richard add: set bus width
        // Note. This command is valid only in "transfer state", i.e. after CMD7 is issued

        if (!SD_CMD55(gSdInfo.RCA16, SD_STATE_TRAN)){  // execute cmd55 before execute and ACMD, RCA = 0
    9d68:	8900050b 	ldhu	r4,20(r17)
    9d6c:	01400104 	movi	r5,4
    9d70:	000a4e80 	call	a4e8 <SD_CMD55>
    9d74:	103fd326 	beq	r2,zero,9cc4 <_gp+0xffff39a8>
            SDCARD_DEBUG(("CMD55 NG\r\n"));
            return FALSE;
        }       
    
        SDCARD_DEBUG(("ACMD6[SET_BUS_WIDTH], 4-bit\r\n"));
        if (!SD_ACMD6(TRUE, SD_STATE_TRAN)){  // 4-bit mode
    9d78:	01400104 	movi	r5,4
    9d7c:	01000044 	movi	r4,1
    9d80:	000a78c0 	call	a78c <SD_ACMD6>
    9d84:	103fcf26 	beq	r2,zero,9cc4 <_gp+0xffff39a8>
            return FALSE;
        }         
    
    
        //
        if (!SD_CMD55(gSdInfo.RCA16, SD_STATE_TRAN)){  // execute cmd55 before execute and ACMD, RCA = 0
    9d88:	8900050b 	ldhu	r4,20(r17)
    9d8c:	01400104 	movi	r5,4
    9d90:	000a4e80 	call	a4e8 <SD_CMD55>
    9d94:	103fcb26 	beq	r2,zero,9cc4 <_gp+0xffff39a8>
            return FALSE;
        }    
    
       
        SDCARD_DEBUG(("ACMD42[SET_CLR_CARD_DETECT], connect card\r\n"));
        if (!SD_ACMD42(TRUE, SD_STATE_TRAN)){  // connect card
    9d98:	01400104 	movi	r5,4
    9d9c:	01000044 	movi	r4,1
    9da0:	000a8840 	call	a884 <SD_ACMD42>
    //========================== ACMD41 (CMD55) ==============
    TimeStart = alt_nticks();
    while(!bSuccess && !bTimeout){
        if (!SD_CMD55(gSdInfo.RCA16, SD_STATE_IDLE)){  // execute cmd55 before execute and ACMD
            SDCARD_ERROR(("CMD55 NG\r\n"));
            return FALSE;
    9da4:	1004c03a 	cmpne	r2,r2,zero
    9da8:	00000806 	br	9dcc <SDLIB_Init+0x1cc>
        printf("!!!!!write ng\r\n");
#endif
     
    SDCARD_DEBUG(("SDLIB_Init success\r\n"));
    
    return TRUE;
    9dac:	00800044 	movi	r2,1
    9db0:	00000606 	br	9dcc <SDLIB_Init+0x1cc>
    9db4:	d0a04e17 	ldw	r2,-32456(gp)
            if (bSuccess && gSdInfo.bSDHC && ((gSdInfo.OCR32 & 0x40000000) == 0x00)){
                gSdInfo.bSDHC = FALSE;
            }    
            // check timeout
            if (!bSuccess){
                if ((alt_nticks() - TimeStart) > nTimeout){
    9db8:	14c5c83a 	sub	r2,r2,r19
    9dbc:	90bfc136 	bltu	r18,r2,9cc4 <_gp+0xffff39a8>
                    SDCARD_ERROR(("ACMD41[SD_APP_OP_COND] fail\r\n"));
                    bTimeout = TRUE;
                }else{
                    usleep(10*1000);
    9dc0:	0109c404 	movi	r4,10000
    9dc4:	000d8e00 	call	d8e0 <usleep>
    9dc8:	003fb806 	br	9cac <_gp+0xffff3990>
#endif
     
    SDCARD_DEBUG(("SDLIB_Init success\r\n"));
    
    return TRUE;
}
    9dcc:	dfc00917 	ldw	ra,36(sp)
    9dd0:	dd000817 	ldw	r20,32(sp)
    9dd4:	dcc00717 	ldw	r19,28(sp)
    9dd8:	dc800617 	ldw	r18,24(sp)
    9ddc:	dc400517 	ldw	r17,20(sp)
    9de0:	dc000417 	ldw	r16,16(sp)
    9de4:	dec00a04 	addi	sp,sp,40
    9de8:	f800283a 	ret

00009dec <SDLIB_ReadBlock512>:
    // buffer size muse be 512 byte
    bool bSuccess;  
    alt_u32  addr;
  
    // issue cmd17 for 'Single Block Read'. parameter: block address
    if (gSdInfo.bSDHC)
    9dec:	00800074 	movhi	r2,1
    9df0:	10b91704 	addi	r2,r2,-7076
    9df4:	10800217 	ldw	r2,8(r2)
    return TRUE;
}


bool SDLIB_ReadBlock512(alt_u32 block_number, alt_u8 *buff)
{
    9df8:	defffe04 	addi	sp,sp,-8
    9dfc:	dc000015 	stw	r16,0(sp)
    9e00:	dfc00115 	stw	ra,4(sp)
    9e04:	2821883a 	mov	r16,r5
    // buffer size muse be 512 byte
    bool bSuccess;  
    alt_u32  addr;
  
    // issue cmd17 for 'Single Block Read'. parameter: block address
    if (gSdInfo.bSDHC)
    9e08:	1000011e 	bne	r2,zero,9e10 <SDLIB_ReadBlock512+0x24>
        addr = block_number; // note. for SDHC, argument for addr of CMD7 is block number
    else 
        addr = block_number * 512;
    9e0c:	2008927a 	slli	r4,r4,9
    if (!SD_CMD17(addr, SD_STATE_TRAN)){  // 4-bit mode
    9e10:	01400104 	movi	r5,4
    9e14:	000a9700 	call	a970 <SD_CMD17>
    9e18:	10000626 	beq	r2,zero,9e34 <SDLIB_ReadBlock512+0x48>
        SDCARD_DEBUG(("CMD17 NG\r\n"));
        return FALSE;
    }
    //

    bSuccess = SD_ReadData(buff, 512);  // read 512 bytes
    9e1c:	01408004 	movi	r5,512
    9e20:	8009883a 	mov	r4,r16
    
    //
    return bSuccess;
}
    9e24:	dfc00117 	ldw	ra,4(sp)
    9e28:	dc000017 	ldw	r16,0(sp)
    9e2c:	dec00204 	addi	sp,sp,8
        SDCARD_DEBUG(("CMD17 NG\r\n"));
        return FALSE;
    }
    //

    bSuccess = SD_ReadData(buff, 512);  // read 512 bytes
    9e30:	000a4c01 	jmpi	a4c0 <SD_ReadData>
    
    //
    return bSuccess;
}
    9e34:	dfc00117 	ldw	ra,4(sp)
    9e38:	dc000017 	ldw	r16,0(sp)
    9e3c:	dec00204 	addi	sp,sp,8
    9e40:	f800283a 	ret

00009e44 <SDLIB_WriteBlock512>:
    // buffer size muse be 512 byte
    bool bSuccess;  
    alt_u32  addr;
  
    // issue cmd24 for 'Single Block write'. parameter: block address
    if (gSdInfo.bSDHC)
    9e44:	00800074 	movhi	r2,1
    9e48:	10b91704 	addi	r2,r2,-7076
    9e4c:	10800217 	ldw	r2,8(r2)
    //
    return bSuccess;
}

bool SDLIB_WriteBlock512(alt_u32 block_number, alt_u8 *szDataWrite)
{
    9e50:	defffe04 	addi	sp,sp,-8
    9e54:	dc000015 	stw	r16,0(sp)
    9e58:	dfc00115 	stw	ra,4(sp)
    9e5c:	2821883a 	mov	r16,r5
    // buffer size muse be 512 byte
    bool bSuccess;  
    alt_u32  addr;
  
    // issue cmd24 for 'Single Block write'. parameter: block address
    if (gSdInfo.bSDHC)
    9e60:	1000011e 	bne	r2,zero,9e68 <SDLIB_WriteBlock512+0x24>
        addr = block_number; // note. for SDHC, argument for addr of CMD7 is block number
    else 
        addr = block_number * 512;
    9e64:	2008927a 	slli	r4,r4,9
    if (!SD_CMD24(addr, SD_STATE_TRAN)){ 
    9e68:	01400104 	movi	r5,4
    9e6c:	000aa500 	call	aa50 <SD_CMD24>
    9e70:	10000626 	beq	r2,zero,9e8c <SDLIB_WriteBlock512+0x48>
        SDCARD_DEBUG(("CMD24 NG\r\n"));
        return FALSE;
    }
    //

    bSuccess = SD_WriteData(szDataWrite, 512);  // Write 512 bytes
    9e74:	01408004 	movi	r5,512
    9e78:	8009883a 	mov	r4,r16
    
    //
    return bSuccess;
}
    9e7c:	dfc00117 	ldw	ra,4(sp)
    9e80:	dc000017 	ldw	r16,0(sp)
    9e84:	dec00204 	addi	sp,sp,8
        SDCARD_DEBUG(("CMD24 NG\r\n"));
        return FALSE;
    }
    //

    bSuccess = SD_WriteData(szDataWrite, 512);  // Write 512 bytes
    9e88:	000a4c41 	jmpi	a4c4 <SD_WriteData>
    
    //
    return bSuccess;
}
    9e8c:	dfc00117 	ldw	ra,4(sp)
    9e90:	dc000017 	ldw	r16,0(sp)
    9e94:	dec00204 	addi	sp,sp,8
    9e98:	f800283a 	ret

00009e9c <SD_Init>:
alt_u32 ArrayToU32(alt_u8 szData[]);

//============================================================

void SD_Init(void){
    SDHAL_Init();
    9e9c:	00096bc1 	jmpi	96bc <SDHAL_Init>

00009ea0 <SD_IsSupport4Bits>:
}

bool SD_IsSupport4Bits(void){
    return SDHAL_IsSupport4Bits();
    9ea0:	00096b41 	jmpi	96b4 <SDHAL_IsSupport4Bits>

00009ea4 <SD_CMD0>:
}



void SD_CMD0(void){
    9ea4:	defffd04 	addi	sp,sp,-12
    alt_u8 szCmd[6]  = {0x40,0x00,0x00,0x00,0x00, 0x00}, crc;

    SDCARD_TRACE(("CMD0\r\n"));
    // build packet    
    szCmd[0] |= 0X00;
    crc = crc7(0, szCmd, 5);
    9ea8:	01800144 	movi	r6,5
    9eac:	d80b883a 	mov	r5,sp
}



void SD_CMD0(void){
    alt_u8 szCmd[6]  = {0x40,0x00,0x00,0x00,0x00, 0x00}, crc;
    9eb0:	00801004 	movi	r2,64

    SDCARD_TRACE(("CMD0\r\n"));
    // build packet    
    szCmd[0] |= 0X00;
    crc = crc7(0, szCmd, 5);
    9eb4:	0009883a 	mov	r4,zero
    return SDHAL_IsSupport4Bits();
}



void SD_CMD0(void){
    9eb8:	dfc00215 	stw	ra,8(sp)
    alt_u8 szCmd[6]  = {0x40,0x00,0x00,0x00,0x00, 0x00}, crc;
    9ebc:	d8800005 	stb	r2,0(sp)
    9ec0:	d8000045 	stb	zero,1(sp)
    9ec4:	d8000085 	stb	zero,2(sp)
    9ec8:	d80000c5 	stb	zero,3(sp)
    9ecc:	d8000105 	stb	zero,4(sp)
    9ed0:	d8000145 	stb	zero,5(sp)

    SDCARD_TRACE(("CMD0\r\n"));
    // build packet    
    szCmd[0] |= 0X00;
    crc = crc7(0, szCmd, 5);
    9ed4:	000955c0 	call	955c <crc7>
    szCmd[5] = (crc << 1) | 0x01;
    9ed8:	10803fcc 	andi	r2,r2,255
    9edc:	1085883a 	add	r2,r2,r2
    9ee0:	10800054 	ori	r2,r2,1
    
    // Tx 100 clock for power on sequence 
   // SDHAL_DummyClock(100);
    //
    
    SDHAL_SendCmd(szCmd, sizeof(szCmd));
    9ee4:	01400184 	movi	r5,6
    9ee8:	d809883a 	mov	r4,sp

    SDCARD_TRACE(("CMD0\r\n"));
    // build packet    
    szCmd[0] |= 0X00;
    crc = crc7(0, szCmd, 5);
    szCmd[5] = (crc << 1) | 0x01;
    9eec:	d8800145 	stb	r2,5(sp)
    
    // Tx 100 clock for power on sequence 
   // SDHAL_DummyClock(100);
    //
    
    SDHAL_SendCmd(szCmd, sizeof(szCmd));
    9ef0:	00097040 	call	9704 <SDHAL_SendCmd>
    
    // A command with no response. 8 clocks after the host command end bit.
    // !!!!!!!!!! Note. Remember to add dummy clock here
    SDHAL_DummyClock(8);
    9ef4:	01000204 	movi	r4,8
    9ef8:	00097800 	call	9780 <SDHAL_DummyClock>
    
}
    9efc:	dfc00217 	ldw	ra,8(sp)
    9f00:	dec00304 	addi	sp,sp,12
    9f04:	f800283a 	ret

00009f08 <SD_CMD8>:


bool SD_CMD8(alt_u8 VolId, alt_u8 TestPattern){
    9f08:	defff904 	addi	sp,sp,-28
   // int x;
    alt_u8 szCmd[6]  = {0x40,0x00,0x00,0x00,0x00, 0x00}, crc;

    SDCARD_TRACE(("CMD8\r\n"));
    // build packet    
    szCmd[0] |= Cmd;
    9f0c:	00801204 	movi	r2,72
    SDHAL_DummyClock(8);
    
}


bool SD_CMD8(alt_u8 VolId, alt_u8 TestPattern){
    9f10:	dc400415 	stw	r17,16(sp)
    9f14:	dc000315 	stw	r16,12(sp)
   // int x;
    alt_u8 szCmd[6]  = {0x40,0x00,0x00,0x00,0x00, 0x00}, crc;

    SDCARD_TRACE(("CMD8\r\n"));
    // build packet    
    szCmd[0] |= Cmd;
    9f18:	d8800005 	stb	r2,0(sp)
    szCmd[3] |= (VolId & 0x0F);
    szCmd[4] = TestPattern;
    9f1c:	d9400105 	stb	r5,4(sp)
    alt_u8 szCmd[6]  = {0x40,0x00,0x00,0x00,0x00, 0x00}, crc;

    SDCARD_TRACE(("CMD8\r\n"));
    // build packet    
    szCmd[0] |= Cmd;
    szCmd[3] |= (VolId & 0x0F);
    9f20:	208003cc 	andi	r2,r4,15
    szCmd[4] = TestPattern;
    crc = crc7(0, szCmd, 5);
    9f24:	01800144 	movi	r6,5
    SDHAL_DummyClock(8);
    
}


bool SD_CMD8(alt_u8 VolId, alt_u8 TestPattern){
    9f28:	2023883a 	mov	r17,r4
    9f2c:	2821883a 	mov	r16,r5
    SDCARD_TRACE(("CMD8\r\n"));
    // build packet    
    szCmd[0] |= Cmd;
    szCmd[3] |= (VolId & 0x0F);
    szCmd[4] = TestPattern;
    crc = crc7(0, szCmd, 5);
    9f30:	0009883a 	mov	r4,zero
    9f34:	d80b883a 	mov	r5,sp
    SDHAL_DummyClock(8);
    
}


bool SD_CMD8(alt_u8 VolId, alt_u8 TestPattern){
    9f38:	dfc00615 	stw	ra,24(sp)
    9f3c:	dc800515 	stw	r18,20(sp)
    bool bSuccess;
    alt_u8 szResponse[6];
    const alt_u8 Cmd = 8;
   // int x;
    alt_u8 szCmd[6]  = {0x40,0x00,0x00,0x00,0x00, 0x00}, crc;
    9f40:	d8000045 	stb	zero,1(sp)
    9f44:	d8000085 	stb	zero,2(sp)
    9f48:	d8000145 	stb	zero,5(sp)

    SDCARD_TRACE(("CMD8\r\n"));
    // build packet    
    szCmd[0] |= Cmd;
    szCmd[3] |= (VolId & 0x0F);
    9f4c:	d88000c5 	stb	r2,3(sp)
    szCmd[4] = TestPattern;
    crc = crc7(0, szCmd, 5);
    9f50:	000955c0 	call	955c <crc7>
    szCmd[5] = (crc << 1) | 0x01;
    9f54:	10803fcc 	andi	r2,r2,255
    9f58:	1085883a 	add	r2,r2,r2
    9f5c:	10800054 	ori	r2,r2,1
    
    SDHAL_SendCmd(szCmd, sizeof(szCmd));
    9f60:	01400184 	movi	r5,6
    9f64:	d809883a 	mov	r4,sp
    // build packet    
    szCmd[0] |= Cmd;
    szCmd[3] |= (VolId & 0x0F);
    szCmd[4] = TestPattern;
    crc = crc7(0, szCmd, 5);
    szCmd[5] = (crc << 1) | 0x01;
    9f68:	d8800145 	stb	r2,5(sp)
    
    SDHAL_SendCmd(szCmd, sizeof(szCmd));
    9f6c:	00097040 	call	9704 <SDHAL_SendCmd>
    
    bSuccess = SDHAL_GetResponse(szResponse, sizeof(szResponse));
    9f70:	01400184 	movi	r5,6
    9f74:	d949883a 	add	r4,sp,r5
    9f78:	00097a80 	call	97a8 <SDHAL_GetResponse>
    
    // check response content
    if (bSuccess){
    9f7c:	10000426 	beq	r2,zero,9f90 <SD_CMD8+0x88>
        // check command
        if (bSuccess && szResponse[0] != Cmd){
    9f80:	d8c00183 	ldbu	r3,6(sp)
    9f84:	1025883a 	mov	r18,r2
    9f88:	00800204 	movi	r2,8
    9f8c:	18800226 	beq	r3,r2,9f98 <SD_CMD8+0x90>
        }            
        
        // check end-bits
        if (bSuccess && ((szResponse[5] & 0x01) != 0x01)){
            SDCARD_DEBUG(("CMD%d Response: Invalid end-bits\r\n", Cmd));
            bSuccess = FALSE;
    9f90:	0025883a 	mov	r18,zero
    9f94:	00001106 	br	9fdc <SD_CMD8+0xd4>
            SDCARD_DEBUG(("CMD%d Response: Invalid command index\r\n", Cmd));
            bSuccess = FALSE;
        }
        
        // check voltage supplied        
        if (bSuccess && szResponse[3] != VolId){
    9f98:	d8800243 	ldbu	r2,9(sp)
    9f9c:	8c403fcc 	andi	r17,r17,255
    9fa0:	88bffb1e 	bne	r17,r2,9f90 <_gp+0xffff3c74>
            SDCARD_DEBUG(("CMD%d Response: Invalid Void Id\r\n", Cmd));
            bSuccess = FALSE;
        }        

        // check test pattern        
        if (bSuccess && szResponse[4] != TestPattern){
    9fa4:	d8800283 	ldbu	r2,10(sp)
    9fa8:	84003fcc 	andi	r16,r16,255
    9fac:	80bff81e 	bne	r16,r2,9f90 <_gp+0xffff3c74>
        }
        
        // check crc
        if (bSuccess){
            alt_u8 crc;
            crc = crc7(0, szResponse, 5);
    9fb0:	0009883a 	mov	r4,zero
    9fb4:	01800144 	movi	r6,5
    9fb8:	d9400184 	addi	r5,sp,6
    9fbc:	000955c0 	call	955c <crc7>
            if (crc != (szResponse[5] >> 1)){
    9fc0:	d8c002c3 	ldbu	r3,11(sp)
    9fc4:	10803fcc 	andi	r2,r2,255
    9fc8:	19003fcc 	andi	r4,r3,255
    9fcc:	2008d07a 	srli	r4,r4,1
    9fd0:	113fef1e 	bne	r2,r4,9f90 <_gp+0xffff3c74>
                bSuccess = FALSE;
            }
        }            
        
        // check end-bits
        if (bSuccess && ((szResponse[5] & 0x01) != 0x01)){
    9fd4:	18c0004c 	andi	r3,r3,1
    9fd8:	183fed26 	beq	r3,zero,9f90 <_gp+0xffff3c74>
         
    }
    
    return bSuccess;
    
}
    9fdc:	9005883a 	mov	r2,r18
    9fe0:	dfc00617 	ldw	ra,24(sp)
    9fe4:	dc800517 	ldw	r18,20(sp)
    9fe8:	dc400417 	ldw	r17,16(sp)
    9fec:	dc000317 	ldw	r16,12(sp)
    9ff0:	dec00704 	addi	sp,sp,28
    9ff4:	f800283a 	ret

00009ff8 <SD_ACMD41>:
    return bSuccess;
    
}

// Response: R3
bool SD_ACMD41(alt_u32 HostOCR32, alt_u32 *pOCR32){
    9ff8:	defffb04 	addi	sp,sp,-20
    //alt_u8 szCmd[6]  = {0x40,0x00,0xff,0x80,0x00, 0x00}, crc;  // 2.7~3.6V
    alt_u8 szCmd[6]  = {0x40,0x00,0x00,0x00,0x00, 0x00}, crc;  
    
    SDCARD_TRACE(("ACMD41\r\n"));
    // build packet    
    szCmd[0] |= Cmd;
    9ffc:	00801a44 	movi	r2,105
    a000:	d8800005 	stb	r2,0(sp)
    szCmd[1] |= (HostOCR32>> 24) & 0x40;
    a004:	2004d63a 	srli	r2,r4,24
    return bSuccess;
    
}

// Response: R3
bool SD_ACMD41(alt_u32 HostOCR32, alt_u32 *pOCR32){
    a008:	dc000315 	stw	r16,12(sp)
    // build packet    
    szCmd[0] |= Cmd;
    szCmd[1] |= (HostOCR32>> 24) & 0x40;
    szCmd[2] = (HostOCR32 >> 16) & 0xFF;
    szCmd[3] = (HostOCR32 >> 8) & 0xFF;
    szCmd[4] = HostOCR32 & 0xFF;
    a00c:	d9000105 	stb	r4,4(sp)
    alt_u8 szCmd[6]  = {0x40,0x00,0x00,0x00,0x00, 0x00}, crc;  
    
    SDCARD_TRACE(("ACMD41\r\n"));
    // build packet    
    szCmd[0] |= Cmd;
    szCmd[1] |= (HostOCR32>> 24) & 0x40;
    a010:	1080100c 	andi	r2,r2,64
    a014:	d8800045 	stb	r2,1(sp)
    szCmd[2] = (HostOCR32 >> 16) & 0xFF;
    a018:	2004d43a 	srli	r2,r4,16
    /*szCmd[0] = 0x69;
    szCmd[1] = 0x40;
    szCmd[2] = 0xFF;
    szCmd[3] = 0x80;
    szCmd[4] = 0x00;*/
    crc = crc7(0, szCmd, 5);
    a01c:	01800144 	movi	r6,5
    return bSuccess;
    
}

// Response: R3
bool SD_ACMD41(alt_u32 HostOCR32, alt_u32 *pOCR32){
    a020:	2821883a 	mov	r16,r5
    
    SDCARD_TRACE(("ACMD41\r\n"));
    // build packet    
    szCmd[0] |= Cmd;
    szCmd[1] |= (HostOCR32>> 24) & 0x40;
    szCmd[2] = (HostOCR32 >> 16) & 0xFF;
    a024:	d8800085 	stb	r2,2(sp)
    szCmd[3] = (HostOCR32 >> 8) & 0xFF;
    a028:	2004d23a 	srli	r2,r4,8
    /*szCmd[0] = 0x69;
    szCmd[1] = 0x40;
    szCmd[2] = 0xFF;
    szCmd[3] = 0x80;
    szCmd[4] = 0x00;*/
    crc = crc7(0, szCmd, 5);
    a02c:	d80b883a 	mov	r5,sp
    a030:	0009883a 	mov	r4,zero
    return bSuccess;
    
}

// Response: R3
bool SD_ACMD41(alt_u32 HostOCR32, alt_u32 *pOCR32){
    a034:	dfc00415 	stw	ra,16(sp)
    
    alt_u8 szResponse[6];  // Response: R1, see section 4.9.4 (OCR Register)
    const alt_u8 Cmd = 41;
    //alt_u8 szCmd[6]  = {0x40,0x0f,0xf0,0x00,0x00, 0x00}, crc;
    //alt_u8 szCmd[6]  = {0x40,0x00,0xff,0x80,0x00, 0x00}, crc;  // 2.7~3.6V
    alt_u8 szCmd[6]  = {0x40,0x00,0x00,0x00,0x00, 0x00}, crc;  
    a038:	d8000145 	stb	zero,5(sp)
    SDCARD_TRACE(("ACMD41\r\n"));
    // build packet    
    szCmd[0] |= Cmd;
    szCmd[1] |= (HostOCR32>> 24) & 0x40;
    szCmd[2] = (HostOCR32 >> 16) & 0xFF;
    szCmd[3] = (HostOCR32 >> 8) & 0xFF;
    a03c:	d88000c5 	stb	r2,3(sp)
    /*szCmd[0] = 0x69;
    szCmd[1] = 0x40;
    szCmd[2] = 0xFF;
    szCmd[3] = 0x80;
    szCmd[4] = 0x00;*/
    crc = crc7(0, szCmd, 5);
    a040:	000955c0 	call	955c <crc7>
    szCmd[5] = (crc << 1) | 0x01;
    a044:	10803fcc 	andi	r2,r2,255
    a048:	1085883a 	add	r2,r2,r2
    a04c:	10800054 	ori	r2,r2,1
    
    SDHAL_SendCmd(szCmd, sizeof(szCmd));
    a050:	01400184 	movi	r5,6
    a054:	d809883a 	mov	r4,sp
    szCmd[1] = 0x40;
    szCmd[2] = 0xFF;
    szCmd[3] = 0x80;
    szCmd[4] = 0x00;*/
    crc = crc7(0, szCmd, 5);
    szCmd[5] = (crc << 1) | 0x01;
    a058:	d8800145 	stb	r2,5(sp)
    
    SDHAL_SendCmd(szCmd, sizeof(szCmd));
    a05c:	00097040 	call	9704 <SDHAL_SendCmd>
    
    bSuccess = SDHAL_GetResponse(szResponse, sizeof(szResponse));
    a060:	01400184 	movi	r5,6
    a064:	d949883a 	add	r4,sp,r5
    a068:	00097a80 	call	97a8 <SDHAL_GetResponse>
    
    if (bSuccess){
    a06c:	10001626 	beq	r2,zero,a0c8 <SD_ACMD41+0xd0>
        int i;
        // check command
        if (bSuccess && szResponse[0] != 0x3F){
    a070:	d9000183 	ldbu	r4,6(sp)
    a074:	00c00fc4 	movi	r3,63
    a078:	20c00126 	beq	r4,r3,a080 <SD_ACMD41+0x88>
            SDCARD_DEBUG(("ACMD%d Response: Invalid reserved bits\r\n", Cmd));
            bSuccess = FALSE;
    a07c:	0005883a 	mov	r2,zero
        }
        
        // [1]~[4]: 32-bits OCR (exampe: 0xFF8000)
        OCR = 0;
        for(i=0;i<4;i++){
    a080:	0009883a 	mov	r4,zero
            SDCARD_DEBUG(("ACMD%d Response: Invalid reserved bits\r\n", Cmd));
            bSuccess = FALSE;
        }
        
        // [1]~[4]: 32-bits OCR (exampe: 0xFF8000)
        OCR = 0;
    a084:	0007883a 	mov	r3,zero
        for(i=0;i<4;i++){
    a088:	01400104 	movi	r5,4
            OCR <<= 8;
            OCR |= szResponse[i+1];
    a08c:	21000044 	addi	r4,r4,1
    a090:	d9c00184 	addi	r7,sp,6
    a094:	390d883a 	add	r6,r7,r4
        }
        
        // [1]~[4]: 32-bits OCR (exampe: 0xFF8000)
        OCR = 0;
        for(i=0;i<4;i++){
            OCR <<= 8;
    a098:	1806923a 	slli	r3,r3,8
            OCR |= szResponse[i+1];
    a09c:	31800003 	ldbu	r6,0(r6)
    a0a0:	30c6b03a 	or	r3,r6,r3
            bSuccess = FALSE;
        }
        
        // [1]~[4]: 32-bits OCR (exampe: 0xFF8000)
        OCR = 0;
        for(i=0;i<4;i++){
    a0a4:	217ff91e 	bne	r4,r5,a08c <_gp+0xffff3d70>
            OCR <<= 8;
            OCR |= szResponse[i+1];
        }           
        
        //!!!!!!!!!! note. bit31(Card power up status bit) is LOW when the card is busy.
        if ((OCR & 0x80000000) != 0x80000000){
    a0a8:	1800040e 	bge	r3,zero,a0bc <SD_ACMD41+0xc4>
            SDCARD_DEBUG(("ACMD%d Response: card is busy\r\n", Cmd));
            bSuccess = FALSE;
        } 
        
        // check reserved bits and end-bits
        if (bSuccess && (szResponse[5] != 0xFF)){
    a0ac:	10000626 	beq	r2,zero,a0c8 <SD_ACMD41+0xd0>
    a0b0:	d94002c3 	ldbu	r5,11(sp)
    a0b4:	01003fc4 	movi	r4,255
    a0b8:	29000226 	beq	r5,r4,a0c4 <SD_ACMD41+0xcc>
    a0bc:	0005883a 	mov	r2,zero
    a0c0:	00000106 	br	a0c8 <SD_ACMD41+0xd0>
        }
          
    }      
    
   if (bSuccess)
      *pOCR32 = OCR;  
    a0c4:	80c00015 	stw	r3,0(r16)

    return bSuccess;
}
    a0c8:	dfc00417 	ldw	ra,16(sp)
    a0cc:	dc000317 	ldw	r16,12(sp)
    a0d0:	dec00504 	addi	sp,sp,20
    a0d4:	f800283a 	ret

0000a0d8 <SD_CMD2>:

// function: Asks any card to send the CID numbers on the CMD line (4.7.4)
// response: 4.9.3 R2 (CMD2 & CMD10)
// CID(Card IDentification): 128 bits = 128/8 = 16 bytes
bool SD_CMD2(alt_u8 szCID[], int nBufLen){
    a0d8:	defff604 	addi	sp,sp,-40
    a0dc:	dc400715 	stw	r17,28(sp)
    a0e0:	dc000615 	stw	r16,24(sp)
    const alt_u8 Cmd = 2;
    alt_u8 szCmd[6]  = {0x40,0x00,0x00,0x00,0x00, 0x00}, crc;

    SDCARD_TRACE(("CMD2\r\n"));
    // build packet    
    szCmd[0] |= Cmd;
    a0e4:	00801084 	movi	r2,66
    crc = crc7(0, szCmd, 5);
    a0e8:	01800144 	movi	r6,5
}

// function: Asks any card to send the CID numbers on the CMD line (4.7.4)
// response: 4.9.3 R2 (CMD2 & CMD10)
// CID(Card IDentification): 128 bits = 128/8 = 16 bytes
bool SD_CMD2(alt_u8 szCID[], int nBufLen){
    a0ec:	2021883a 	mov	r16,r4
    a0f0:	2823883a 	mov	r17,r5
    alt_u8 szCmd[6]  = {0x40,0x00,0x00,0x00,0x00, 0x00}, crc;

    SDCARD_TRACE(("CMD2\r\n"));
    // build packet    
    szCmd[0] |= Cmd;
    crc = crc7(0, szCmd, 5);
    a0f4:	0009883a 	mov	r4,zero
    a0f8:	d9400444 	addi	r5,sp,17
}

// function: Asks any card to send the CID numbers on the CMD line (4.7.4)
// response: 4.9.3 R2 (CMD2 & CMD10)
// CID(Card IDentification): 128 bits = 128/8 = 16 bytes
bool SD_CMD2(alt_u8 szCID[], int nBufLen){
    a0fc:	dfc00915 	stw	ra,36(sp)
    a100:	dc800815 	stw	r18,32(sp)
    bool bSuccess;
    alt_u8 szResponse[17];  // 136/8 = 17
    const alt_u8 Cmd = 2;
    alt_u8 szCmd[6]  = {0x40,0x00,0x00,0x00,0x00, 0x00}, crc;
    a104:	d8000485 	stb	zero,18(sp)
    a108:	d80004c5 	stb	zero,19(sp)
    a10c:	d8000505 	stb	zero,20(sp)
    a110:	d8000545 	stb	zero,21(sp)
    a114:	d8000585 	stb	zero,22(sp)

    SDCARD_TRACE(("CMD2\r\n"));
    // build packet    
    szCmd[0] |= Cmd;
    a118:	d8800445 	stb	r2,17(sp)
    crc = crc7(0, szCmd, 5);
    a11c:	000955c0 	call	955c <crc7>
    szCmd[5] = (crc << 1) | 0x01;
    a120:	10803fcc 	andi	r2,r2,255
    a124:	1085883a 	add	r2,r2,r2
    a128:	10800054 	ori	r2,r2,1
    
    //
 //   sd_Ncc();
    //for(x=0;x<40;x++)
    //    sd_Ncr();
    SDHAL_SendCmd(szCmd, sizeof(szCmd));
    a12c:	01400184 	movi	r5,6
    a130:	d9000444 	addi	r4,sp,17

    SDCARD_TRACE(("CMD2\r\n"));
    // build packet    
    szCmd[0] |= Cmd;
    crc = crc7(0, szCmd, 5);
    szCmd[5] = (crc << 1) | 0x01;
    a134:	d8800585 	stb	r2,22(sp)
    
    //
 //   sd_Ncc();
    //for(x=0;x<40;x++)
    //    sd_Ncr();
    SDHAL_SendCmd(szCmd, sizeof(szCmd));
    a138:	00097040 	call	9704 <SDHAL_SendCmd>
  //  sd_Ncr();
    
    bSuccess = SDHAL_GetResponse(szResponse, sizeof(szResponse));
    a13c:	01400444 	movi	r5,17
    a140:	d809883a 	mov	r4,sp
    a144:	00097a80 	call	97a8 <SDHAL_GetResponse>
    
    // check response content
    if (bSuccess){
    a148:	10000d26 	beq	r2,zero,a180 <SD_CMD2+0xa8>
        // check command
        if (bSuccess && szResponse[0] != 0x3F){ 
    a14c:	d8c00003 	ldbu	r3,0(sp)
    a150:	1025883a 	mov	r18,r2
    a154:	00800fc4 	movi	r2,63
    a158:	1880091e 	bne	r3,r2,a180 <SD_CMD2+0xa8>
        
        
        // check crc
        if (bSuccess){
            alt_u8 crc;
            crc = crc7(0, &szResponse[1], 15);
    a15c:	0009883a 	mov	r4,zero
    a160:	018003c4 	movi	r6,15
    a164:	d9400044 	addi	r5,sp,1
    a168:	000955c0 	call	955c <crc7>
            if (crc != (szResponse[16] >> 1)){
    a16c:	d8c00403 	ldbu	r3,16(sp)
    a170:	10803fcc 	andi	r2,r2,255
    a174:	19003fcc 	andi	r4,r3,255
    a178:	2008d07a 	srli	r4,r4,1
    a17c:	11000226 	beq	r2,r4,a188 <SD_CMD2+0xb0>
        int nCopyLen, x;
        // [1]~[16]: CIS or CSD register
        nCopyLen = nBufLen;
        if (nCopyLen > 16)
            nCopyLen = 16;
        for(x=0;x<nCopyLen;x++)
    a180:	0025883a 	mov	r18,zero
            szCID[x] = szResponse[x+1];
        
    }
    
    return bSuccess;
    a184:	00000f06 	br	a1c4 <SD_CMD2+0xec>
                bSuccess = FALSE;
            }
        }            
        
        // check end-bits
        if (bSuccess && ((szResponse[16] & 0x01) != 0x01)){
    a188:	18c0004c 	andi	r3,r3,1
    a18c:	183ffc26 	beq	r3,zero,a180 <_gp+0xffff3e64>
    a190:	00800404 	movi	r2,16
    a194:	880b883a 	mov	r5,r17
    a198:	1440010e 	bge	r2,r17,a1a0 <SD_CMD2+0xc8>
    a19c:	100b883a 	mov	r5,r2
    a1a0:	8009883a 	mov	r4,r16
        int nCopyLen, x;
        // [1]~[16]: CIS or CSD register
        nCopyLen = nBufLen;
        if (nCopyLen > 16)
            nCopyLen = 16;
        for(x=0;x<nCopyLen;x++)
    a1a4:	0005883a 	mov	r2,zero
    a1a8:	1140060e 	bge	r2,r5,a1c4 <SD_CMD2+0xec>
            szCID[x] = szResponse[x+1];
    a1ac:	10800044 	addi	r2,r2,1
    a1b0:	d887883a 	add	r3,sp,r2
    a1b4:	18c00003 	ldbu	r3,0(r3)
    a1b8:	21000044 	addi	r4,r4,1
    a1bc:	20ffffc5 	stb	r3,-1(r4)
    a1c0:	003ff906 	br	a1a8 <_gp+0xffff3e8c>
        
    }
    
    return bSuccess;
    
}
    a1c4:	9005883a 	mov	r2,r18
    a1c8:	dfc00917 	ldw	ra,36(sp)
    a1cc:	dc800817 	ldw	r18,32(sp)
    a1d0:	dc400717 	ldw	r17,28(sp)
    a1d4:	dc000617 	ldw	r16,24(sp)
    a1d8:	dec00a04 	addi	sp,sp,40
    a1dc:	f800283a 	ret

0000a1e0 <SD_CMD3>:

//
bool SD_CMD3(alt_u16 *pRCA16){
    a1e0:	defff904 	addi	sp,sp,-28
    a1e4:	dc400415 	stw	r17,16(sp)
    const alt_u8 Cmd = 3;
    alt_u8 szCmd[6]  = {0x40,0x00,0x00,0x00,0x00, 0x00}, crc;

    SDCARD_TRACE(("CMD3\r\n"));
    // build packet    
    szCmd[0] |= Cmd;
    a1e8:	008010c4 	movi	r2,67
    crc = crc7(0, szCmd, 5);
    a1ec:	01800144 	movi	r6,5
    a1f0:	d80b883a 	mov	r5,sp
    return bSuccess;
    
}

//
bool SD_CMD3(alt_u16 *pRCA16){
    a1f4:	2023883a 	mov	r17,r4
    alt_u8 szCmd[6]  = {0x40,0x00,0x00,0x00,0x00, 0x00}, crc;

    SDCARD_TRACE(("CMD3\r\n"));
    // build packet    
    szCmd[0] |= Cmd;
    crc = crc7(0, szCmd, 5);
    a1f8:	0009883a 	mov	r4,zero
    return bSuccess;
    
}

//
bool SD_CMD3(alt_u16 *pRCA16){
    a1fc:	dfc00615 	stw	ra,24(sp)
    a200:	dc800515 	stw	r18,20(sp)
    a204:	dc000315 	stw	r16,12(sp)
    bool bSuccess;
    alt_u16 RCA16;
    alt_u8 szResponse[6];
    const alt_u8 Cmd = 3;
    alt_u8 szCmd[6]  = {0x40,0x00,0x00,0x00,0x00, 0x00}, crc;
    a208:	d8000045 	stb	zero,1(sp)
    a20c:	d8000085 	stb	zero,2(sp)
    a210:	d80000c5 	stb	zero,3(sp)
    a214:	d8000105 	stb	zero,4(sp)
    a218:	d8000145 	stb	zero,5(sp)

    SDCARD_TRACE(("CMD3\r\n"));
    // build packet    
    szCmd[0] |= Cmd;
    a21c:	d8800005 	stb	r2,0(sp)
    crc = crc7(0, szCmd, 5);
    a220:	000955c0 	call	955c <crc7>
    szCmd[5] = (crc << 1) | 0x01;
    a224:	10803fcc 	andi	r2,r2,255
    a228:	1085883a 	add	r2,r2,r2
    a22c:	10800054 	ori	r2,r2,1

    // send package    
    SDHAL_SendCmd(szCmd, sizeof(szCmd));
    a230:	01400184 	movi	r5,6
    a234:	d809883a 	mov	r4,sp

    SDCARD_TRACE(("CMD3\r\n"));
    // build packet    
    szCmd[0] |= Cmd;
    crc = crc7(0, szCmd, 5);
    szCmd[5] = (crc << 1) | 0x01;
    a238:	d8800145 	stb	r2,5(sp)

    // send package    
    SDHAL_SendCmd(szCmd, sizeof(szCmd));
    a23c:	00097040 	call	9704 <SDHAL_SendCmd>
  
    // get response  
    bSuccess = SDHAL_GetResponse(szResponse, sizeof(szResponse));
    a240:	01400184 	movi	r5,6
    a244:	d949883a 	add	r4,sp,r5
    a248:	00097a80 	call	97a8 <SDHAL_GetResponse>
    
    // check response content
    if (bSuccess){
    a24c:	10001a26 	beq	r2,zero,a2b8 <SD_CMD3+0xd8>
        alt_u16 Status16;
        alt_u8  State8;
        // check command
        if (bSuccess && szResponse[0] != Cmd){ 
    a250:	d8c00183 	ldbu	r3,6(sp)
    a254:	1021883a 	mov	r16,r2
    a258:	008000c4 	movi	r2,3
    a25c:	18800126 	beq	r3,r2,a264 <SD_CMD3+0x84>
            SDCARD_DEBUG(("CMD%d Response: Invalid strat+tx+reserved bit\r\n", Cmd));
            bSuccess = FALSE;
    a260:	0021883a 	mov	r16,zero
        }
        
        // New published RCA[31:16] of the card
        RCA16 = (szResponse[1] << 8) | szResponse[2];
    a264:	dc8001c3 	ldbu	r18,7(sp)
    a268:	d8800203 	ldbu	r2,8(sp)
        
        // [15:0] card status bits (16 bits: 23, 22, 19, 12~0) 0x500   
        Status16 = (szResponse[3] << 8) | szResponse[4];
        State8 = SD_CURRENT_STATE_DECODE(Status16);
        if (State8 != SD_STATE_IDENT){
    a26c:	00c00084 	movi	r3,2
            SDCARD_DEBUG(("CMD%d Response: Invalid strat+tx+reserved bit\r\n", Cmd));
            bSuccess = FALSE;
        }
        
        // New published RCA[31:16] of the card
        RCA16 = (szResponse[1] << 8) | szResponse[2];
    a270:	9024923a 	slli	r18,r18,8
    a274:	90a4b03a 	or	r18,r18,r2
        
        // [15:0] card status bits (16 bits: 23, 22, 19, 12~0) 0x500   
        Status16 = (szResponse[3] << 8) | szResponse[4];
        State8 = SD_CURRENT_STATE_DECODE(Status16);
        if (State8 != SD_STATE_IDENT){
    a278:	d8800243 	ldbu	r2,9(sp)
    a27c:	1004d07a 	srli	r2,r2,1
    a280:	108003cc 	andi	r2,r2,15
    a284:	10c00c1e 	bne	r2,r3,a2b8 <SD_CMD3+0xd8>
           SDCARD_DEBUG(("CMD%d Response: Unexpected CURRENT_STATE\r\n", Cmd));
           bSuccess = FALSE;
        }
        
        // check crc
        if (bSuccess){
    a288:	80000b26 	beq	r16,zero,a2b8 <SD_CMD3+0xd8>
            alt_u8 crc;
            crc = crc7(0, szResponse, 5);
    a28c:	0009883a 	mov	r4,zero
    a290:	01800144 	movi	r6,5
    a294:	d9400184 	addi	r5,sp,6
    a298:	000955c0 	call	955c <crc7>
            if (crc != (szResponse[5] >> 1)){
    a29c:	d8c002c3 	ldbu	r3,11(sp)
    a2a0:	10803fcc 	andi	r2,r2,255
    a2a4:	19003fcc 	andi	r4,r3,255
    a2a8:	2008d07a 	srli	r4,r4,1
    a2ac:	1100021e 	bne	r2,r4,a2b8 <SD_CMD3+0xd8>
                bSuccess = FALSE;
            }
        }            
        
        // check end-bits
        if (bSuccess && ((szResponse[5] & 0x01) != 0x01)){
    a2b0:	18c0004c 	andi	r3,r3,1
    a2b4:	1800021e 	bne	r3,zero,a2c0 <SD_CMD3+0xe0>
        alt_u16 Status16;
        alt_u8  State8;
        // check command
        if (bSuccess && szResponse[0] != Cmd){ 
            SDCARD_DEBUG(("CMD%d Response: Invalid strat+tx+reserved bit\r\n", Cmd));
            bSuccess = FALSE;
    a2b8:	0021883a 	mov	r16,zero
    a2bc:	00000106 	br	a2c4 <SD_CMD3+0xe4>
        }
          
    }
    
    if (bSuccess)
        *pRCA16 = RCA16;
    a2c0:	8c80000d 	sth	r18,0(r17)
    
    return bSuccess;
    
}
    a2c4:	8005883a 	mov	r2,r16
    a2c8:	dfc00617 	ldw	ra,24(sp)
    a2cc:	dc800517 	ldw	r18,20(sp)
    a2d0:	dc400417 	ldw	r17,16(sp)
    a2d4:	dc000317 	ldw	r16,12(sp)
    a2d8:	dec00704 	addi	sp,sp,28
    a2dc:	f800283a 	ret

0000a2e0 <SD_CMD9>:

bool SD_CMD9(alt_u16 RCA16, alt_u8 szCSD[], int nBufLen){
    a2e0:	defff704 	addi	sp,sp,-36
    alt_u8 szCmd[6]  = {0x40,0x00,0x00,0x00,0x00, 0x00}, crc;

    SDCARD_TRACE(("CMD9\r\n"));

    // build packet    
    szCmd[0] |= Cmd;
    a2e4:	00801244 	movi	r2,73
    a2e8:	d8800445 	stb	r2,17(sp)
    szCmd[1] |= RCA16 >> 8;
    a2ec:	2004d23a 	srli	r2,r4,8
    
    return bSuccess;
    
}

bool SD_CMD9(alt_u16 RCA16, alt_u8 szCSD[], int nBufLen){
    a2f0:	dc000615 	stw	r16,24(sp)
    SDCARD_TRACE(("CMD9\r\n"));

    // build packet    
    szCmd[0] |= Cmd;
    szCmd[1] |= RCA16 >> 8;
    szCmd[2] |= RCA16 & 0xFF;
    a2f4:	d90004c5 	stb	r4,19(sp)
    crc = crc7(0, szCmd, 5);
    a2f8:	01800144 	movi	r6,5
    a2fc:	0009883a 	mov	r4,zero
    
    return bSuccess;
    
}

bool SD_CMD9(alt_u16 RCA16, alt_u8 szCSD[], int nBufLen){
    a300:	2821883a 	mov	r16,r5

    // build packet    
    szCmd[0] |= Cmd;
    szCmd[1] |= RCA16 >> 8;
    szCmd[2] |= RCA16 & 0xFF;
    crc = crc7(0, szCmd, 5);
    a304:	d9400444 	addi	r5,sp,17
    
    return bSuccess;
    
}

bool SD_CMD9(alt_u16 RCA16, alt_u8 szCSD[], int nBufLen){
    a308:	dfc00815 	stw	ra,32(sp)
    a30c:	dc400715 	stw	r17,28(sp)
    bool bSuccess;
    alt_u8 szResponse[17];
    const alt_u8 Cmd = 9;
    alt_u8 szCmd[6]  = {0x40,0x00,0x00,0x00,0x00, 0x00}, crc;
    a310:	d8000505 	stb	zero,20(sp)
    a314:	d8000545 	stb	zero,21(sp)
    a318:	d8000585 	stb	zero,22(sp)

    SDCARD_TRACE(("CMD9\r\n"));

    // build packet    
    szCmd[0] |= Cmd;
    szCmd[1] |= RCA16 >> 8;
    a31c:	d8800485 	stb	r2,18(sp)
    szCmd[2] |= RCA16 & 0xFF;
    crc = crc7(0, szCmd, 5);
    a320:	000955c0 	call	955c <crc7>
    szCmd[5] = (crc << 1) | 0x01;
    a324:	10803fcc 	andi	r2,r2,255
    a328:	1085883a 	add	r2,r2,r2
    a32c:	10800054 	ori	r2,r2,1

    // send package    
    SDHAL_SendCmd(szCmd, sizeof(szCmd));
    a330:	01400184 	movi	r5,6
    a334:	d9000444 	addi	r4,sp,17
    // build packet    
    szCmd[0] |= Cmd;
    szCmd[1] |= RCA16 >> 8;
    szCmd[2] |= RCA16 & 0xFF;
    crc = crc7(0, szCmd, 5);
    szCmd[5] = (crc << 1) | 0x01;
    a338:	d8800585 	stb	r2,22(sp)

    // send package    
    SDHAL_SendCmd(szCmd, sizeof(szCmd));
    a33c:	00097040 	call	9704 <SDHAL_SendCmd>
  
    // get response  
    bSuccess = SDHAL_GetResponse(szResponse, sizeof(szResponse));
    a340:	01400444 	movi	r5,17
    a344:	d809883a 	mov	r4,sp
    a348:	00097a80 	call	97a8 <SDHAL_GetResponse>
    
    // check response content
    if (bSuccess){
    a34c:	10000d26 	beq	r2,zero,a384 <SD_CMD9+0xa4>
        // check command
        if (bSuccess && szResponse[0] != 0x3F){ 
    a350:	d8c00003 	ldbu	r3,0(sp)
    a354:	1023883a 	mov	r17,r2
    a358:	00800fc4 	movi	r2,63
    a35c:	1880091e 	bne	r3,r2,a384 <SD_CMD9+0xa4>
        }
        
        // check crc
        if (bSuccess){
            alt_u8 crc;
            crc = crc7(0, &szResponse[1], 15);
    a360:	0009883a 	mov	r4,zero
    a364:	018003c4 	movi	r6,15
    a368:	d9400044 	addi	r5,sp,1
    a36c:	000955c0 	call	955c <crc7>
            if (crc != (szResponse[16] >> 1)){
    a370:	d8c00403 	ldbu	r3,16(sp)
    a374:	10803fcc 	andi	r2,r2,255
    a378:	19003fcc 	andi	r4,r3,255
    a37c:	2008d07a 	srli	r4,r4,1
    a380:	11000226 	beq	r2,r4,a38c <SD_CMD9+0xac>
                bSuccess = FALSE;
            }
        }            
        
        // check end-bits
        if (bSuccess && ((szResponse[16] & 0x01) != 0x01)){
    a384:	0023883a 	mov	r17,zero
            nCopyLen = 16;
        for(x=0;x<nCopyLen;x++)
            szCSD[x] = szResponse[x+1];           
    }        
    
    return bSuccess;
    a388:	00000b06 	br	a3b8 <SD_CMD9+0xd8>
                bSuccess = FALSE;
            }
        }            
        
        // check end-bits
        if (bSuccess && ((szResponse[16] & 0x01) != 0x01)){
    a38c:	18c0004c 	andi	r3,r3,1
    a390:	183ffc26 	beq	r3,zero,a384 <_gp+0xffff4068>
    a394:	800b883a 	mov	r5,r16
    a398:	0005883a 	mov	r2,zero
    
    if (bSuccess){
        int nCopyLen, x;
        if (nCopyLen > 16)
            nCopyLen = 16;
        for(x=0;x<nCopyLen;x++)
    a39c:	00c00404 	movi	r3,16
            szCSD[x] = szResponse[x+1];           
    a3a0:	10800044 	addi	r2,r2,1
    a3a4:	d889883a 	add	r4,sp,r2
    a3a8:	21000003 	ldbu	r4,0(r4)
    a3ac:	29400044 	addi	r5,r5,1
    a3b0:	293fffc5 	stb	r4,-1(r5)
    
    if (bSuccess){
        int nCopyLen, x;
        if (nCopyLen > 16)
            nCopyLen = 16;
        for(x=0;x<nCopyLen;x++)
    a3b4:	10fffa1e 	bne	r2,r3,a3a0 <_gp+0xffff4084>
            szCSD[x] = szResponse[x+1];           
    }        
    
    return bSuccess;
}
    a3b8:	8805883a 	mov	r2,r17
    a3bc:	dfc00817 	ldw	ra,32(sp)
    a3c0:	dc400717 	ldw	r17,28(sp)
    a3c4:	dc000617 	ldw	r16,24(sp)
    a3c8:	dec00904 	addi	sp,sp,36
    a3cc:	f800283a 	ret

0000a3d0 <SD_CMD10>:

bool SD_CMD10(alt_u16 RCA16, alt_u8 szCID[], int nBufLen){
    a3d0:	defff704 	addi	sp,sp,-36
    alt_u8 szCmd[6]  = {0x40,0x00,0x00,0x00,0x00, 0x00}, crc;

    SDCARD_TRACE(("CMD10\r\n"));

    // build packet    
    szCmd[0] |= Cmd;
    a3d4:	00801284 	movi	r2,74
    a3d8:	d8800445 	stb	r2,17(sp)
    szCmd[1] |= RCA16 >> 8;
    a3dc:	2004d23a 	srli	r2,r4,8
    }        
    
    return bSuccess;
}

bool SD_CMD10(alt_u16 RCA16, alt_u8 szCID[], int nBufLen){
    a3e0:	dc000615 	stw	r16,24(sp)
    SDCARD_TRACE(("CMD10\r\n"));

    // build packet    
    szCmd[0] |= Cmd;
    szCmd[1] |= RCA16 >> 8;
    szCmd[2] |= RCA16 & 0xFF;
    a3e4:	d90004c5 	stb	r4,19(sp)
    crc = crc7(0, szCmd, 5);
    a3e8:	01800144 	movi	r6,5
    a3ec:	0009883a 	mov	r4,zero
    }        
    
    return bSuccess;
}

bool SD_CMD10(alt_u16 RCA16, alt_u8 szCID[], int nBufLen){
    a3f0:	2821883a 	mov	r16,r5

    // build packet    
    szCmd[0] |= Cmd;
    szCmd[1] |= RCA16 >> 8;
    szCmd[2] |= RCA16 & 0xFF;
    crc = crc7(0, szCmd, 5);
    a3f4:	d9400444 	addi	r5,sp,17
    }        
    
    return bSuccess;
}

bool SD_CMD10(alt_u16 RCA16, alt_u8 szCID[], int nBufLen){
    a3f8:	dfc00815 	stw	ra,32(sp)
    a3fc:	dc400715 	stw	r17,28(sp)
    bool bSuccess;
    alt_u8 szResponse[17];
    const alt_u8 Cmd = 10;
    alt_u8 szCmd[6]  = {0x40,0x00,0x00,0x00,0x00, 0x00}, crc;
    a400:	d8000505 	stb	zero,20(sp)
    a404:	d8000545 	stb	zero,21(sp)
    a408:	d8000585 	stb	zero,22(sp)

    SDCARD_TRACE(("CMD10\r\n"));

    // build packet    
    szCmd[0] |= Cmd;
    szCmd[1] |= RCA16 >> 8;
    a40c:	d8800485 	stb	r2,18(sp)
    szCmd[2] |= RCA16 & 0xFF;
    crc = crc7(0, szCmd, 5);
    a410:	000955c0 	call	955c <crc7>
    szCmd[5] = (crc << 1) | 0x01;
    a414:	10803fcc 	andi	r2,r2,255
    a418:	1085883a 	add	r2,r2,r2
    a41c:	10800054 	ori	r2,r2,1

    // send package    
    SDHAL_SendCmd(szCmd, sizeof(szCmd));
    a420:	01400184 	movi	r5,6
    a424:	d9000444 	addi	r4,sp,17
    // build packet    
    szCmd[0] |= Cmd;
    szCmd[1] |= RCA16 >> 8;
    szCmd[2] |= RCA16 & 0xFF;
    crc = crc7(0, szCmd, 5);
    szCmd[5] = (crc << 1) | 0x01;
    a428:	d8800585 	stb	r2,22(sp)

    // send package    
    SDHAL_SendCmd(szCmd, sizeof(szCmd));
    a42c:	00097040 	call	9704 <SDHAL_SendCmd>
  
    // get response  
    bSuccess = SDHAL_GetResponse(szResponse, sizeof(szResponse));
    a430:	01400444 	movi	r5,17
    a434:	d809883a 	mov	r4,sp
    a438:	00097a80 	call	97a8 <SDHAL_GetResponse>
    
    // check response content
    if (bSuccess){
    a43c:	10000d26 	beq	r2,zero,a474 <SD_CMD10+0xa4>
        // check command
        if (bSuccess && szResponse[0] != 0x3F){ 
    a440:	d8c00003 	ldbu	r3,0(sp)
    a444:	1023883a 	mov	r17,r2
    a448:	00800fc4 	movi	r2,63
    a44c:	1880091e 	bne	r3,r2,a474 <SD_CMD10+0xa4>
        }
        
        // check crc
        if (bSuccess){
            alt_u8 crc;
            crc = crc7(0, &szResponse[1], 15);
    a450:	0009883a 	mov	r4,zero
    a454:	018003c4 	movi	r6,15
    a458:	d9400044 	addi	r5,sp,1
    a45c:	000955c0 	call	955c <crc7>
            if (crc != (szResponse[16] >> 1)){
    a460:	d8c00403 	ldbu	r3,16(sp)
    a464:	10803fcc 	andi	r2,r2,255
    a468:	19003fcc 	andi	r4,r3,255
    a46c:	2008d07a 	srli	r4,r4,1
    a470:	11000226 	beq	r2,r4,a47c <SD_CMD10+0xac>
                bSuccess = FALSE;
            }
        }            
        
        // check end-bits
        if (bSuccess && ((szResponse[16] & 0x01) != 0x01)){
    a474:	0023883a 	mov	r17,zero
            nCopyLen = 16;
        for(x=0;x<nCopyLen;x++)
            szCID[x] = szResponse[x+1];           
    }        
    
    return bSuccess;
    a478:	00000b06 	br	a4a8 <SD_CMD10+0xd8>
                bSuccess = FALSE;
            }
        }            
        
        // check end-bits
        if (bSuccess && ((szResponse[16] & 0x01) != 0x01)){
    a47c:	18c0004c 	andi	r3,r3,1
    a480:	183ffc26 	beq	r3,zero,a474 <_gp+0xffff4158>
    a484:	800b883a 	mov	r5,r16
    a488:	0005883a 	mov	r2,zero
    
    if (bSuccess){
        int nCopyLen, x;
        if (nCopyLen > 16)
            nCopyLen = 16;
        for(x=0;x<nCopyLen;x++)
    a48c:	00c00404 	movi	r3,16
            szCID[x] = szResponse[x+1];           
    a490:	10800044 	addi	r2,r2,1
    a494:	d889883a 	add	r4,sp,r2
    a498:	21000003 	ldbu	r4,0(r4)
    a49c:	29400044 	addi	r5,r5,1
    a4a0:	293fffc5 	stb	r4,-1(r5)
    
    if (bSuccess){
        int nCopyLen, x;
        if (nCopyLen > 16)
            nCopyLen = 16;
        for(x=0;x<nCopyLen;x++)
    a4a4:	10fffa1e 	bne	r2,r3,a490 <_gp+0xffff4174>
            szCID[x] = szResponse[x+1];           
    }        
    
    return bSuccess;
}
    a4a8:	8805883a 	mov	r2,r17
    a4ac:	dfc00817 	ldw	ra,32(sp)
    a4b0:	dc400717 	ldw	r17,28(sp)
    a4b4:	dc000617 	ldw	r16,24(sp)
    a4b8:	dec00904 	addi	sp,sp,36
    a4bc:	f800283a 	ret

0000a4c0 <SD_ReadData>:
}


bool SD_ReadData(alt_u8 szBuf[], int nBufLen){
    bool bSuccess;
    bSuccess = SDHAL_ReadData(szBuf, nBufLen);
    a4c0:	00098881 	jmpi	9888 <SDHAL_ReadData>

0000a4c4 <SD_WriteData>:
    return bSuccess;
}

bool SD_WriteData(alt_u8 szDataWrite[], int nDataLen){
    bool bSuccess;
    bSuccess = SDHAL_WriteData(szDataWrite, nDataLen);
    a4c4:	0009b201 	jmpi	9b20 <SDHAL_WriteData>

0000a4c8 <ArrayToU32>:
    return bSuccess;
}


alt_u32 ArrayToU32(alt_u8 szData[]){
    a4c8:	20c00104 	addi	r3,r4,4
    alt_u32 Value32 = 0;
    a4cc:	0005883a 	mov	r2,zero
    int i;
    
    for(i=0;i<4;i++){
        Value32 <<= 8;
        Value32 |= szData[i];
    a4d0:	21400003 	ldbu	r5,0(r4)
alt_u32 ArrayToU32(alt_u8 szData[]){
    alt_u32 Value32 = 0;
    int i;
    
    for(i=0;i<4;i++){
        Value32 <<= 8;
    a4d4:	1004923a 	slli	r2,r2,8
    a4d8:	21000044 	addi	r4,r4,1
        Value32 |= szData[i];
    a4dc:	2884b03a 	or	r2,r5,r2

alt_u32 ArrayToU32(alt_u8 szData[]){
    alt_u32 Value32 = 0;
    int i;
    
    for(i=0;i<4;i++){
    a4e0:	20fffb1e 	bne	r4,r3,a4d0 <_gp+0xffff41b4>
        Value32 <<= 8;
        Value32 |= szData[i];
    }
    return Value32;
}
    a4e4:	f800283a 	ret

0000a4e8 <SD_CMD55>:
    
    return bSuccess;
    
}

bool SD_CMD55(alt_u16 RCA16, alt_u8 ExpectedState){
    a4e8:	defffa04 	addi	sp,sp,-24
    alt_u8 szCmd[6]  = {0x40,0x00,0x00,0x00,0x00, 0x00}, crc;

    SDCARD_TRACE(("CMD55\r\n"));

    // build packet    
    szCmd[0] |= Cmd;
    a4ec:	00801dc4 	movi	r2,119
    a4f0:	d8800005 	stb	r2,0(sp)
    szCmd[1] = RCA16 >> 8;
    a4f4:	2004d23a 	srli	r2,r4,8
    
    return bSuccess;
    
}

bool SD_CMD55(alt_u16 RCA16, alt_u8 ExpectedState){
    a4f8:	dc000315 	stw	r16,12(sp)
    SDCARD_TRACE(("CMD55\r\n"));

    // build packet    
    szCmd[0] |= Cmd;
    szCmd[1] = RCA16 >> 8;
    szCmd[2] = RCA16 & 0xFF;
    a4fc:	d9000085 	stb	r4,2(sp)
    crc = crc7(0, szCmd, 5);
    a500:	01800144 	movi	r6,5
    a504:	0009883a 	mov	r4,zero
    
    return bSuccess;
    
}

bool SD_CMD55(alt_u16 RCA16, alt_u8 ExpectedState){
    a508:	2821883a 	mov	r16,r5

    // build packet    
    szCmd[0] |= Cmd;
    szCmd[1] = RCA16 >> 8;
    szCmd[2] = RCA16 & 0xFF;
    crc = crc7(0, szCmd, 5);
    a50c:	d80b883a 	mov	r5,sp
    
    return bSuccess;
    
}

bool SD_CMD55(alt_u16 RCA16, alt_u8 ExpectedState){
    a510:	dfc00515 	stw	ra,20(sp)
    a514:	dc400415 	stw	r17,16(sp)
    bool bSuccess;
    alt_u8 szResponse[6];
    const alt_u8 Cmd = 55;
    alt_u8 szCmd[6]  = {0x40,0x00,0x00,0x00,0x00, 0x00}, crc;
    a518:	d80000c5 	stb	zero,3(sp)
    a51c:	d8000105 	stb	zero,4(sp)
    a520:	d8000145 	stb	zero,5(sp)

    SDCARD_TRACE(("CMD55\r\n"));

    // build packet    
    szCmd[0] |= Cmd;
    szCmd[1] = RCA16 >> 8;
    a524:	d8800045 	stb	r2,1(sp)
    szCmd[2] = RCA16 & 0xFF;
    crc = crc7(0, szCmd, 5);
    a528:	000955c0 	call	955c <crc7>
    szCmd[5] = (crc << 1) | 0x01;
    a52c:	10803fcc 	andi	r2,r2,255
    a530:	1085883a 	add	r2,r2,r2
    a534:	10800054 	ori	r2,r2,1
    
    SDHAL_SendCmd(szCmd, sizeof(szCmd));
    a538:	01400184 	movi	r5,6
    a53c:	d809883a 	mov	r4,sp
    // build packet    
    szCmd[0] |= Cmd;
    szCmd[1] = RCA16 >> 8;
    szCmd[2] = RCA16 & 0xFF;
    crc = crc7(0, szCmd, 5);
    szCmd[5] = (crc << 1) | 0x01;
    a540:	d8800145 	stb	r2,5(sp)
    
    SDHAL_SendCmd(szCmd, sizeof(szCmd));
    a544:	00097040 	call	9704 <SDHAL_SendCmd>
  
    bSuccess = SDHAL_GetResponse(szResponse, sizeof(szResponse));
    a548:	01400184 	movi	r5,6
    a54c:	d949883a 	add	r4,sp,r5
    a550:	00097a80 	call	97a8 <SDHAL_GetResponse>
    
    // check response content
    if (bSuccess){
    a554:	10001526 	beq	r2,zero,a5ac <SD_CMD55+0xc4>
        alt_u32 CardStatus, ExpectedStatus;  // define in 4.10
        // check command
        if (bSuccess && szResponse[0] != Cmd){
    a558:	d8c00183 	ldbu	r3,6(sp)
    a55c:	1023883a 	mov	r17,r2
    a560:	00800dc4 	movi	r2,55
    a564:	18800126 	beq	r3,r2,a56c <SD_CMD55+0x84>
            SDCARD_DEBUG(("CMD%d Response: Invalid command index\r\n", Cmd));
            bSuccess = FALSE;
    a568:	0023883a 	mov	r17,zero
        }
        
        // [1]~[4]: 32-bits card status
        CardStatus = ArrayToU32(&szResponse[1]);
        ExpectedStatus = SD_BIT_APP_CMD | SD_BIT_READY_FOR_DATA | SD_CURRENT_STATE_ENCODE(ExpectedState);
        if (CardStatus != ExpectedStatus){
    a56c:	840003cc 	andi	r16,r16,15
    a570:	8020927a 	slli	r16,r16,9
            SDCARD_DEBUG(("CMD%d Response: Invalid command index\r\n", Cmd));
            bSuccess = FALSE;
        }
        
        // [1]~[4]: 32-bits card status
        CardStatus = ArrayToU32(&szResponse[1]);
    a574:	d90001c4 	addi	r4,sp,7
    a578:	000a4c80 	call	a4c8 <ArrayToU32>
        ExpectedStatus = SD_BIT_APP_CMD | SD_BIT_READY_FOR_DATA | SD_CURRENT_STATE_ENCODE(ExpectedState);
        if (CardStatus != ExpectedStatus){
    a57c:	84004814 	ori	r16,r16,288
    a580:	14000a1e 	bne	r2,r16,a5ac <SD_CMD55+0xc4>
            SDCARD_DEBUG(("CMD%d Response: unexpected stauts\r\n", Cmd));
            bSuccess = FALSE;
        }
        
        // check crc
        if (bSuccess){
    a584:	88000926 	beq	r17,zero,a5ac <SD_CMD55+0xc4>
            alt_u8 crc;
            crc = crc7(0, szResponse, 5);
    a588:	0009883a 	mov	r4,zero
    a58c:	01800144 	movi	r6,5
    a590:	d9400184 	addi	r5,sp,6
    a594:	000955c0 	call	955c <crc7>
            if (crc != (szResponse[5] >> 1)){
    a598:	d8c002c3 	ldbu	r3,11(sp)
    a59c:	10803fcc 	andi	r2,r2,255
    a5a0:	19003fcc 	andi	r4,r3,255
    a5a4:	2008d07a 	srli	r4,r4,1
    a5a8:	11000226 	beq	r2,r4,a5b4 <SD_CMD55+0xcc>
        }            
        
        // check end-bits
        if (bSuccess && ((szResponse[5] & 0x01) != 0x01)){
            SDCARD_DEBUG(("CMD%d Response: Invalid end-bits\r\n", Cmd));
            bSuccess = FALSE;
    a5ac:	0023883a 	mov	r17,zero
    a5b0:	00000206 	br	a5bc <SD_CMD55+0xd4>
                bSuccess = FALSE;
            }
        }            
        
        // check end-bits
        if (bSuccess && ((szResponse[5] & 0x01) != 0x01)){
    a5b4:	18c0004c 	andi	r3,r3,1
    a5b8:	183ffc26 	beq	r3,zero,a5ac <_gp+0xffff4290>
          
    }
    
    return bSuccess;
    
}
    a5bc:	8805883a 	mov	r2,r17
    a5c0:	dfc00517 	ldw	ra,20(sp)
    a5c4:	dc400417 	ldw	r17,16(sp)
    a5c8:	dc000317 	ldw	r16,12(sp)
    a5cc:	dec00604 	addi	sp,sp,24
    a5d0:	f800283a 	ret

0000a5d4 <SD_CMD7>:
    
    return bSuccess;
}


bool SD_CMD7(alt_u16 RCA16){
    a5d4:	defffb04 	addi	sp,sp,-20
    alt_u8 szCmd[6]  = {0x40,0x00,0x00,0x00,0x00, 0x00}, crc;

    SDCARD_TRACE(("CMD7\r\n"));

    // build packet    
    szCmd[0] |= Cmd;
    a5d8:	008011c4 	movi	r2,71
    a5dc:	d8800005 	stb	r2,0(sp)
    szCmd[1] |= RCA16 >> 8;
    a5e0:	2004d23a 	srli	r2,r4,8
    szCmd[2] |= RCA16 & 0xFF;
    a5e4:	d9000085 	stb	r4,2(sp)
    crc = crc7(0, szCmd, 5);
    a5e8:	01800144 	movi	r6,5
    a5ec:	d80b883a 	mov	r5,sp
    a5f0:	0009883a 	mov	r4,zero
    
    return bSuccess;
}


bool SD_CMD7(alt_u16 RCA16){
    a5f4:	dfc00415 	stw	ra,16(sp)
    a5f8:	dc000315 	stw	r16,12(sp)
    bool bSuccess;
    alt_u8 szResponse[6];
    const alt_u8 Cmd = 7;
    alt_u8 szCmd[6]  = {0x40,0x00,0x00,0x00,0x00, 0x00}, crc;
    a5fc:	d80000c5 	stb	zero,3(sp)
    a600:	d8000105 	stb	zero,4(sp)
    a604:	d8000145 	stb	zero,5(sp)

    SDCARD_TRACE(("CMD7\r\n"));

    // build packet    
    szCmd[0] |= Cmd;
    szCmd[1] |= RCA16 >> 8;
    a608:	d8800045 	stb	r2,1(sp)
    szCmd[2] |= RCA16 & 0xFF;
    crc = crc7(0, szCmd, 5);
    a60c:	000955c0 	call	955c <crc7>
    szCmd[5] = (crc << 1) | 0x01;
    a610:	10803fcc 	andi	r2,r2,255
    a614:	1085883a 	add	r2,r2,r2
    a618:	10800054 	ori	r2,r2,1

    // send package    
    SDHAL_SendCmd(szCmd, sizeof(szCmd));
    a61c:	01400184 	movi	r5,6
    a620:	d809883a 	mov	r4,sp
    // build packet    
    szCmd[0] |= Cmd;
    szCmd[1] |= RCA16 >> 8;
    szCmd[2] |= RCA16 & 0xFF;
    crc = crc7(0, szCmd, 5);
    szCmd[5] = (crc << 1) | 0x01;
    a624:	d8800145 	stb	r2,5(sp)

    // send package    
    SDHAL_SendCmd(szCmd, sizeof(szCmd));
    a628:	00097040 	call	9704 <SDHAL_SendCmd>
  
    // get response  
    bSuccess = SDHAL_GetResponse(szResponse, sizeof(szResponse));
    a62c:	01400184 	movi	r5,6
    a630:	d949883a 	add	r4,sp,r5
    a634:	00097a80 	call	97a8 <SDHAL_GetResponse>
    
    // check response content
    if (bSuccess){
    a638:	10001326 	beq	r2,zero,a688 <SD_CMD7+0xb4>
        alt_u32 CardStatus, ExpectedStatus;
        // check command
        if (bSuccess && szResponse[0] != Cmd){ 
    a63c:	d8c00183 	ldbu	r3,6(sp)
    a640:	1021883a 	mov	r16,r2
    a644:	008001c4 	movi	r2,7
    a648:	18800126 	beq	r3,r2,a650 <SD_CMD7+0x7c>
            SDCARD_DEBUG(("CMD%d Response: Invalid strat+tx+reserved bit\r\n", Cmd));
            bSuccess = FALSE;
    a64c:	0021883a 	mov	r16,zero
        }

        // [1]~[4]: 32-bits card status
        CardStatus = ArrayToU32(&szResponse[1]);
    a650:	d90001c4 	addi	r4,sp,7
    a654:	000a4c80 	call	a4c8 <ArrayToU32>
        ExpectedStatus = SD_BIT_READY_FOR_DATA | SD_CURRENT_STATE_ENCODE(SD_STATE_STBY);
        if (CardStatus != ExpectedStatus){
    a658:	00c1c004 	movi	r3,1792
    a65c:	10c00a1e 	bne	r2,r3,a688 <SD_CMD7+0xb4>
            SDCARD_DEBUG(("CMD%d Response: unexpected stauts\r\n", Cmd));
            bSuccess = FALSE;
        }        
        
        // check crc
        if (bSuccess){
    a660:	80000926 	beq	r16,zero,a688 <SD_CMD7+0xb4>
            alt_u8 crc;
            crc = crc7(0, szResponse, 5);
    a664:	0009883a 	mov	r4,zero
    a668:	01800144 	movi	r6,5
    a66c:	d9400184 	addi	r5,sp,6
    a670:	000955c0 	call	955c <crc7>
            if (crc != (szResponse[5] >> 1)){
    a674:	d8c002c3 	ldbu	r3,11(sp)
    a678:	10803fcc 	andi	r2,r2,255
    a67c:	19003fcc 	andi	r4,r3,255
    a680:	2008d07a 	srli	r4,r4,1
    a684:	11000226 	beq	r2,r4,a690 <SD_CMD7+0xbc>
        }            
        
        // check end-bits
        if (bSuccess && ((szResponse[5] & 0x01) != 0x01)){
            SDCARD_DEBUG(("CMD%d Response: Invalid end-bits\r\n", Cmd));
            bSuccess = FALSE;
    a688:	0021883a 	mov	r16,zero
    a68c:	00000206 	br	a698 <SD_CMD7+0xc4>
                bSuccess = FALSE;
            }
        }            
        
        // check end-bits
        if (bSuccess && ((szResponse[5] & 0x01) != 0x01)){
    a690:	18c0004c 	andi	r3,r3,1
    a694:	183ffc26 	beq	r3,zero,a688 <_gp+0xffff436c>
    }
    
     
    
    return bSuccess;
}
    a698:	8005883a 	mov	r2,r16
    a69c:	dfc00417 	ldw	ra,16(sp)
    a6a0:	dc000317 	ldw	r16,12(sp)
    a6a4:	dec00504 	addi	sp,sp,20
    a6a8:	f800283a 	ret

0000a6ac <SD_CMD16>:

bool SD_CMD16(alt_u32 BlockSize){
    a6ac:	defffb04 	addi	sp,sp,-20
    alt_u8 szCmd[6]  = {0x40,0x00,0x00,0x00,0x00, 0x00}, crc;

    SDCARD_TRACE(("CMD16\r\n"));

    // build packet    
    szCmd[0] |= Cmd;
    a6b0:	00801404 	movi	r2,80
    a6b4:	d8800005 	stb	r2,0(sp)
    szCmd[1] |= BlockSize >> 24;
    a6b8:	2004d63a 	srli	r2,r4,24
    szCmd[2] |= BlockSize >> 16;
    szCmd[3] |= BlockSize >> 8;
    szCmd[4] |= BlockSize & 0xFF;
    a6bc:	d9000105 	stb	r4,4(sp)
    crc = crc7(0, szCmd, 5);
    a6c0:	01800144 	movi	r6,5

    SDCARD_TRACE(("CMD16\r\n"));

    // build packet    
    szCmd[0] |= Cmd;
    szCmd[1] |= BlockSize >> 24;
    a6c4:	d8800045 	stb	r2,1(sp)
    szCmd[2] |= BlockSize >> 16;
    a6c8:	2004d43a 	srli	r2,r4,16
    szCmd[3] |= BlockSize >> 8;
    szCmd[4] |= BlockSize & 0xFF;
    crc = crc7(0, szCmd, 5);
    a6cc:	d80b883a 	mov	r5,sp
     
    
    return bSuccess;
}

bool SD_CMD16(alt_u32 BlockSize){
    a6d0:	dfc00415 	stw	ra,16(sp)
    SDCARD_TRACE(("CMD16\r\n"));

    // build packet    
    szCmd[0] |= Cmd;
    szCmd[1] |= BlockSize >> 24;
    szCmd[2] |= BlockSize >> 16;
    a6d4:	d8800085 	stb	r2,2(sp)
    szCmd[3] |= BlockSize >> 8;
    a6d8:	2004d23a 	srli	r2,r4,8
    szCmd[4] |= BlockSize & 0xFF;
    crc = crc7(0, szCmd, 5);
    a6dc:	0009883a 	mov	r4,zero
     
    
    return bSuccess;
}

bool SD_CMD16(alt_u32 BlockSize){
    a6e0:	dc000315 	stw	r16,12(sp)
    bool bSuccess;
    alt_u8 szResponse[6];
    const alt_u8 Cmd = 16;
    alt_u8 szCmd[6]  = {0x40,0x00,0x00,0x00,0x00, 0x00}, crc;
    a6e4:	d8000145 	stb	zero,5(sp)

    // build packet    
    szCmd[0] |= Cmd;
    szCmd[1] |= BlockSize >> 24;
    szCmd[2] |= BlockSize >> 16;
    szCmd[3] |= BlockSize >> 8;
    a6e8:	d88000c5 	stb	r2,3(sp)
    szCmd[4] |= BlockSize & 0xFF;
    crc = crc7(0, szCmd, 5);
    a6ec:	000955c0 	call	955c <crc7>
    szCmd[5] = (crc << 1) | 0x01;
    a6f0:	10803fcc 	andi	r2,r2,255
    a6f4:	1085883a 	add	r2,r2,r2
    a6f8:	10800054 	ori	r2,r2,1

    // send package    
    SDHAL_SendCmd(szCmd, sizeof(szCmd));
    a6fc:	01400184 	movi	r5,6
    a700:	d809883a 	mov	r4,sp
    szCmd[1] |= BlockSize >> 24;
    szCmd[2] |= BlockSize >> 16;
    szCmd[3] |= BlockSize >> 8;
    szCmd[4] |= BlockSize & 0xFF;
    crc = crc7(0, szCmd, 5);
    szCmd[5] = (crc << 1) | 0x01;
    a704:	d8800145 	stb	r2,5(sp)

    // send package    
    SDHAL_SendCmd(szCmd, sizeof(szCmd));
    a708:	00097040 	call	9704 <SDHAL_SendCmd>
  
    // get response  
    bSuccess = SDHAL_GetResponse(szResponse, sizeof(szResponse));
    a70c:	01400184 	movi	r5,6
    a710:	d949883a 	add	r4,sp,r5
    a714:	00097a80 	call	97a8 <SDHAL_GetResponse>
    
    // check response content
    if (bSuccess){
    a718:	10001326 	beq	r2,zero,a768 <SD_CMD16+0xbc>
        alt_u32 CardStatus, ExpectedStatus;
        // check command
        if (bSuccess && szResponse[0] != Cmd){ 
    a71c:	d8c00183 	ldbu	r3,6(sp)
    a720:	1021883a 	mov	r16,r2
    a724:	00800404 	movi	r2,16
    a728:	18800126 	beq	r3,r2,a730 <SD_CMD16+0x84>
            SDCARD_DEBUG(("CMD%d Response: Invalid strat+tx+reserved bit\r\n", Cmd));
            bSuccess = FALSE;
    a72c:	0021883a 	mov	r16,zero
        }

        // [1]~[4]: 32-bits card status
        CardStatus = ArrayToU32(&szResponse[1]);
    a730:	d90001c4 	addi	r4,sp,7
    a734:	000a4c80 	call	a4c8 <ArrayToU32>
        ExpectedStatus = SD_BIT_READY_FOR_DATA | SD_CURRENT_STATE_ENCODE(SD_STATE_TRAN);
        if (CardStatus != ExpectedStatus){
    a738:	00c24004 	movi	r3,2304
    a73c:	10c00a1e 	bne	r2,r3,a768 <SD_CMD16+0xbc>
            SDCARD_DEBUG(("CMD%d Response: unexpected stauts\r\n", Cmd));
            bSuccess = FALSE;
        }        
        
        // check crc
        if (bSuccess){
    a740:	80000926 	beq	r16,zero,a768 <SD_CMD16+0xbc>
            alt_u8 crc;
            crc = crc7(0, szResponse, 5);
    a744:	0009883a 	mov	r4,zero
    a748:	01800144 	movi	r6,5
    a74c:	d9400184 	addi	r5,sp,6
    a750:	000955c0 	call	955c <crc7>
            if (crc != (szResponse[5] >> 1)){
    a754:	d8c002c3 	ldbu	r3,11(sp)
    a758:	10803fcc 	andi	r2,r2,255
    a75c:	19003fcc 	andi	r4,r3,255
    a760:	2008d07a 	srli	r4,r4,1
    a764:	11000226 	beq	r2,r4,a770 <SD_CMD16+0xc4>
        }            
        
        // check end-bits
        if (bSuccess && ((szResponse[5] & 0x01) != 0x01)){
            SDCARD_DEBUG(("CMD%d Response: Invalid end-bits\r\n", Cmd));
            bSuccess = FALSE;
    a768:	0021883a 	mov	r16,zero
    a76c:	00000206 	br	a778 <SD_CMD16+0xcc>
                bSuccess = FALSE;
            }
        }            
        
        // check end-bits
        if (bSuccess && ((szResponse[5] & 0x01) != 0x01)){
    a770:	18c0004c 	andi	r3,r3,1
    a774:	183ffc26 	beq	r3,zero,a768 <_gp+0xffff444c>
    }
    
     
    
    return bSuccess;
}
    a778:	8005883a 	mov	r2,r16
    a77c:	dfc00417 	ldw	ra,16(sp)
    a780:	dc000317 	ldw	r16,12(sp)
    a784:	dec00504 	addi	sp,sp,20
    a788:	f800283a 	ret

0000a78c <SD_ACMD6>:

    SDCARD_TRACE(("ACMD6\r\n"));

    // build packet    
    szCmd[0] |= Cmd;
    szCmd[4] |= b4BitsBus?2:0;
    a78c:	2008c03a 	cmpne	r4,r4,zero
    a790:	2008907a 	slli	r4,r4,1
    return bSuccess;
}

// SET_BUS_WIDTH
// Response: R1
bool SD_ACMD6(bool b4BitsBus, alt_u8 ExpectedState){
    a794:	defff904 	addi	sp,sp,-28
    a798:	dc000315 	stw	r16,12(sp)
    alt_u8 szCmd[6]  = {0x40,0x00,0x00,0x00,0x00, 0x00}, crc; 

    SDCARD_TRACE(("ACMD6\r\n"));

    // build packet    
    szCmd[0] |= Cmd;
    a79c:	00801184 	movi	r2,70
    szCmd[4] |= b4BitsBus?2:0;
    a7a0:	d9000105 	stb	r4,4(sp)
    crc = crc7(0, szCmd, 5);
    a7a4:	01800144 	movi	r6,5
    a7a8:	0009883a 	mov	r4,zero
    return bSuccess;
}

// SET_BUS_WIDTH
// Response: R1
bool SD_ACMD6(bool b4BitsBus, alt_u8 ExpectedState){
    a7ac:	2821883a 	mov	r16,r5
    SDCARD_TRACE(("ACMD6\r\n"));

    // build packet    
    szCmd[0] |= Cmd;
    szCmd[4] |= b4BitsBus?2:0;
    crc = crc7(0, szCmd, 5);
    a7b0:	d80b883a 	mov	r5,sp
    return bSuccess;
}

// SET_BUS_WIDTH
// Response: R1
bool SD_ACMD6(bool b4BitsBus, alt_u8 ExpectedState){
    a7b4:	dfc00615 	stw	ra,24(sp)
    a7b8:	dc800515 	stw	r18,20(sp)
    a7bc:	dc400415 	stw	r17,16(sp)

    bool bSuccess;
    
    alt_u8 szResponse[6];  // Response: R1, see section 4.9.4 (OCR Register)
    const alt_u8 Cmd = 6;
    alt_u8 szCmd[6]  = {0x40,0x00,0x00,0x00,0x00, 0x00}, crc; 
    a7c0:	d8000045 	stb	zero,1(sp)
    a7c4:	d8000085 	stb	zero,2(sp)
    a7c8:	d80000c5 	stb	zero,3(sp)
    a7cc:	d8000145 	stb	zero,5(sp)

    SDCARD_TRACE(("ACMD6\r\n"));

    // build packet    
    szCmd[0] |= Cmd;
    a7d0:	d8800005 	stb	r2,0(sp)
    szCmd[4] |= b4BitsBus?2:0;
    crc = crc7(0, szCmd, 5);
    a7d4:	000955c0 	call	955c <crc7>
    szCmd[5] = (crc << 1) | 0x01;
    a7d8:	10803fcc 	andi	r2,r2,255
    
    
    SDHAL_SendCmd(szCmd, sizeof(szCmd));
    a7dc:	04800184 	movi	r18,6

    // build packet    
    szCmd[0] |= Cmd;
    szCmd[4] |= b4BitsBus?2:0;
    crc = crc7(0, szCmd, 5);
    szCmd[5] = (crc << 1) | 0x01;
    a7e0:	1085883a 	add	r2,r2,r2
    a7e4:	10800054 	ori	r2,r2,1
    
    
    SDHAL_SendCmd(szCmd, sizeof(szCmd));
    a7e8:	900b883a 	mov	r5,r18
    a7ec:	d809883a 	mov	r4,sp

    // build packet    
    szCmd[0] |= Cmd;
    szCmd[4] |= b4BitsBus?2:0;
    crc = crc7(0, szCmd, 5);
    szCmd[5] = (crc << 1) | 0x01;
    a7f0:	d8800145 	stb	r2,5(sp)
    
    
    SDHAL_SendCmd(szCmd, sizeof(szCmd));
    a7f4:	00097040 	call	9704 <SDHAL_SendCmd>
    
    bSuccess = SDHAL_GetResponse(szResponse, sizeof(szResponse));
    a7f8:	900b883a 	mov	r5,r18
    a7fc:	dc89883a 	add	r4,sp,r18
    a800:	00097a80 	call	97a8 <SDHAL_GetResponse>
    
    if (bSuccess){
    a804:	10001426 	beq	r2,zero,a858 <SD_ACMD6+0xcc>
    a808:	1023883a 	mov	r17,r2
        alt_u32 CardStatus, ExpectedStatus;
        // check command
        if (bSuccess && szResponse[0] != Cmd){
    a80c:	d8800183 	ldbu	r2,6(sp)
    a810:	14800126 	beq	r2,r18,a818 <SD_ACMD6+0x8c>
            SDCARD_DEBUG(("CMD%d Response: Invalid reserved bits\r\n", Cmd));
            bSuccess = FALSE;
    a814:	0023883a 	mov	r17,zero
        }
        
        // [1]~[4]: CardStatus
        CardStatus = ArrayToU32(&szResponse[1]);
        ExpectedStatus = SD_BIT_APP_CMD | SD_BIT_READY_FOR_DATA | SD_CURRENT_STATE_ENCODE(ExpectedState);
        if (CardStatus != ExpectedStatus){
    a818:	840003cc 	andi	r16,r16,15
    a81c:	8020927a 	slli	r16,r16,9
            SDCARD_DEBUG(("CMD%d Response: Invalid reserved bits\r\n", Cmd));
            bSuccess = FALSE;
        }
        
        // [1]~[4]: CardStatus
        CardStatus = ArrayToU32(&szResponse[1]);
    a820:	d90001c4 	addi	r4,sp,7
    a824:	000a4c80 	call	a4c8 <ArrayToU32>
        ExpectedStatus = SD_BIT_APP_CMD | SD_BIT_READY_FOR_DATA | SD_CURRENT_STATE_ENCODE(ExpectedState);
        if (CardStatus != ExpectedStatus){
    a828:	84004814 	ori	r16,r16,288
    a82c:	14000a1e 	bne	r2,r16,a858 <SD_ACMD6+0xcc>
            SDCARD_DEBUG(("CMD%d Response: unexpected stauts\r\n", Cmd));
            bSuccess = FALSE;
        }
                
        // check crc
        if (bSuccess){
    a830:	88000926 	beq	r17,zero,a858 <SD_ACMD6+0xcc>
            alt_u8 crc;
            crc = crc7(0, szResponse, 5);
    a834:	0009883a 	mov	r4,zero
    a838:	01800144 	movi	r6,5
    a83c:	d9400184 	addi	r5,sp,6
    a840:	000955c0 	call	955c <crc7>
            if (crc != (szResponse[5] >> 1)){
    a844:	d8c002c3 	ldbu	r3,11(sp)
    a848:	10803fcc 	andi	r2,r2,255
    a84c:	19003fcc 	andi	r4,r3,255
    a850:	2008d07a 	srli	r4,r4,1
    a854:	11000226 	beq	r2,r4,a860 <SD_ACMD6+0xd4>
        }            
        
        // check end-bits
        if (bSuccess && ((szResponse[5] & 0x01) != 0x01)){
            SDCARD_DEBUG(("CMD%d Response: Invalid end-bits\r\n", Cmd));
            bSuccess = FALSE;
    a858:	0023883a 	mov	r17,zero
    a85c:	00000206 	br	a868 <SD_ACMD6+0xdc>
                bSuccess = FALSE;
            }
        }            
        
        // check end-bits
        if (bSuccess && ((szResponse[5] & 0x01) != 0x01)){
    a860:	18c0004c 	andi	r3,r3,1
    a864:	183ffc26 	beq	r3,zero,a858 <_gp+0xffff453c>
          
    }      
    

    return bSuccess;
}
    a868:	8805883a 	mov	r2,r17
    a86c:	dfc00617 	ldw	ra,24(sp)
    a870:	dc800517 	ldw	r18,20(sp)
    a874:	dc400417 	ldw	r17,16(sp)
    a878:	dc000317 	ldw	r16,12(sp)
    a87c:	dec00704 	addi	sp,sp,28
    a880:	f800283a 	ret

0000a884 <SD_ACMD42>:

// SET_CLR_CARD_DETECT
// Response: R1
bool SD_ACMD42(bool b4BitsBus, alt_u8 ExpectedState){
    a884:	defffa04 	addi	sp,sp,-24

    SDCARD_TRACE(("ACMD42\r\n"));

    // build packet    
    szCmd[0] |= Cmd;
    szCmd[4] |= b4BitsBus?1:0;
    a888:	2008c03a 	cmpne	r4,r4,zero
    return bSuccess;
}

// SET_CLR_CARD_DETECT
// Response: R1
bool SD_ACMD42(bool b4BitsBus, alt_u8 ExpectedState){
    a88c:	dc000315 	stw	r16,12(sp)
    alt_u8 szCmd[6]  = {0x40,0x00,0x00,0x00,0x00, 0x00}, crc; 

    SDCARD_TRACE(("ACMD42\r\n"));

    // build packet    
    szCmd[0] |= Cmd;
    a890:	00801a84 	movi	r2,106
    szCmd[4] |= b4BitsBus?1:0;
    a894:	d9000105 	stb	r4,4(sp)
    crc = crc7(0, szCmd, 5);
    a898:	01800144 	movi	r6,5
    a89c:	0009883a 	mov	r4,zero
    return bSuccess;
}

// SET_CLR_CARD_DETECT
// Response: R1
bool SD_ACMD42(bool b4BitsBus, alt_u8 ExpectedState){
    a8a0:	2821883a 	mov	r16,r5
    SDCARD_TRACE(("ACMD42\r\n"));

    // build packet    
    szCmd[0] |= Cmd;
    szCmd[4] |= b4BitsBus?1:0;
    crc = crc7(0, szCmd, 5);
    a8a4:	d80b883a 	mov	r5,sp
    return bSuccess;
}

// SET_CLR_CARD_DETECT
// Response: R1
bool SD_ACMD42(bool b4BitsBus, alt_u8 ExpectedState){
    a8a8:	dfc00515 	stw	ra,20(sp)
    a8ac:	dc400415 	stw	r17,16(sp)

    bool bSuccess;
    
    alt_u8 szResponse[6];  // Response: R1, see section 4.9.4 (OCR Register)
    const alt_u8 Cmd = 42;
    alt_u8 szCmd[6]  = {0x40,0x00,0x00,0x00,0x00, 0x00}, crc; 
    a8b0:	d8000045 	stb	zero,1(sp)
    a8b4:	d8000085 	stb	zero,2(sp)
    a8b8:	d80000c5 	stb	zero,3(sp)
    a8bc:	d8000145 	stb	zero,5(sp)

    SDCARD_TRACE(("ACMD42\r\n"));

    // build packet    
    szCmd[0] |= Cmd;
    a8c0:	d8800005 	stb	r2,0(sp)
    szCmd[4] |= b4BitsBus?1:0;
    crc = crc7(0, szCmd, 5);
    a8c4:	000955c0 	call	955c <crc7>
    szCmd[5] = (crc << 1) | 0x01;
    a8c8:	10803fcc 	andi	r2,r2,255
    a8cc:	1085883a 	add	r2,r2,r2
    a8d0:	10800054 	ori	r2,r2,1
    
    
    SDHAL_SendCmd(szCmd, sizeof(szCmd));
    a8d4:	01400184 	movi	r5,6
    a8d8:	d809883a 	mov	r4,sp

    // build packet    
    szCmd[0] |= Cmd;
    szCmd[4] |= b4BitsBus?1:0;
    crc = crc7(0, szCmd, 5);
    szCmd[5] = (crc << 1) | 0x01;
    a8dc:	d8800145 	stb	r2,5(sp)
    
    
    SDHAL_SendCmd(szCmd, sizeof(szCmd));
    a8e0:	00097040 	call	9704 <SDHAL_SendCmd>
    
    bSuccess = SDHAL_GetResponse(szResponse, sizeof(szResponse));
    a8e4:	01400184 	movi	r5,6
    a8e8:	d949883a 	add	r4,sp,r5
    a8ec:	00097a80 	call	97a8 <SDHAL_GetResponse>
    
    if (bSuccess){
    a8f0:	10001526 	beq	r2,zero,a948 <SD_ACMD42+0xc4>
        alt_u32 CardStatus, ExpectedStatus;
        // check command
        if (bSuccess && szResponse[0] != Cmd){
    a8f4:	d8c00183 	ldbu	r3,6(sp)
    a8f8:	1023883a 	mov	r17,r2
    a8fc:	00800a84 	movi	r2,42
    a900:	18800126 	beq	r3,r2,a908 <SD_ACMD42+0x84>
            SDCARD_DEBUG(("CMD%d Response: Invalid reserved bits\r\n", Cmd));
            bSuccess = FALSE;
    a904:	0023883a 	mov	r17,zero
        }
        
        // [1]~[4]: CardStatus
        CardStatus = ArrayToU32(&szResponse[1]);
        ExpectedStatus = SD_BIT_APP_CMD | SD_BIT_READY_FOR_DATA | SD_CURRENT_STATE_ENCODE(ExpectedState);
        if (CardStatus != ExpectedStatus){
    a908:	840003cc 	andi	r16,r16,15
    a90c:	8020927a 	slli	r16,r16,9
            SDCARD_DEBUG(("CMD%d Response: Invalid reserved bits\r\n", Cmd));
            bSuccess = FALSE;
        }
        
        // [1]~[4]: CardStatus
        CardStatus = ArrayToU32(&szResponse[1]);
    a910:	d90001c4 	addi	r4,sp,7
    a914:	000a4c80 	call	a4c8 <ArrayToU32>
        ExpectedStatus = SD_BIT_APP_CMD | SD_BIT_READY_FOR_DATA | SD_CURRENT_STATE_ENCODE(ExpectedState);
        if (CardStatus != ExpectedStatus){
    a918:	84004814 	ori	r16,r16,288
    a91c:	14000a1e 	bne	r2,r16,a948 <SD_ACMD42+0xc4>
            SDCARD_DEBUG(("CMD%d Response: unexpected stauts\r\n", Cmd));
            bSuccess = FALSE;
        }
                
        // check crc
        if (bSuccess){
    a920:	88000926 	beq	r17,zero,a948 <SD_ACMD42+0xc4>
            alt_u8 crc;
            crc = crc7(0, szResponse, 5);
    a924:	0009883a 	mov	r4,zero
    a928:	01800144 	movi	r6,5
    a92c:	d9400184 	addi	r5,sp,6
    a930:	000955c0 	call	955c <crc7>
            if (crc != (szResponse[5] >> 1)){
    a934:	d8c002c3 	ldbu	r3,11(sp)
    a938:	10803fcc 	andi	r2,r2,255
    a93c:	19003fcc 	andi	r4,r3,255
    a940:	2008d07a 	srli	r4,r4,1
    a944:	11000226 	beq	r2,r4,a950 <SD_ACMD42+0xcc>
        }            
        
        // check end-bits
        if (bSuccess && ((szResponse[5] & 0x01) != 0x01)){
            SDCARD_DEBUG(("CMD%d Response: Invalid end-bits\r\n", Cmd));
            bSuccess = FALSE;
    a948:	0023883a 	mov	r17,zero
    a94c:	00000206 	br	a958 <SD_ACMD42+0xd4>
                bSuccess = FALSE;
            }
        }            
        
        // check end-bits
        if (bSuccess && ((szResponse[5] & 0x01) != 0x01)){
    a950:	18c0004c 	andi	r3,r3,1
    a954:	183ffc26 	beq	r3,zero,a948 <_gp+0xffff462c>
          
    }      
    

    return bSuccess;
}
    a958:	8805883a 	mov	r2,r17
    a95c:	dfc00517 	ldw	ra,20(sp)
    a960:	dc400417 	ldw	r17,16(sp)
    a964:	dc000317 	ldw	r16,12(sp)
    a968:	dec00604 	addi	sp,sp,24
    a96c:	f800283a 	ret

0000a970 <SD_CMD17>:


// READ_SINGLE_BLOCK
// Response R1
bool SD_CMD17(alt_u32 Addr, alt_u8 ExpectedStatus){
    a970:	defffb04 	addi	sp,sp,-20
    const alt_u8 Cmd = 17;
    alt_u8 szCmd[6]  = {0x40,0x00,0x00,0x00,0x00, 0x00}, crc;

    SDCARD_TRACE(("CMD17\r\n"));
    // build packet    
    szCmd[0] |= Cmd;
    a974:	00801444 	movi	r2,81
    a978:	d8800005 	stb	r2,0(sp)
    szCmd[1] |= (Addr >> 24) & 0xFF;
    a97c:	2004d63a 	srli	r2,r4,24
    szCmd[2] |= (Addr >> 16) & 0xFF;
    szCmd[3] |= (Addr >> 8) & 0xFF;
    szCmd[4] |= Addr & 0xFF;
    a980:	d9000105 	stb	r4,4(sp)
    crc = crc7(0, szCmd, 5);
    a984:	01800144 	movi	r6,5
    alt_u8 szCmd[6]  = {0x40,0x00,0x00,0x00,0x00, 0x00}, crc;

    SDCARD_TRACE(("CMD17\r\n"));
    // build packet    
    szCmd[0] |= Cmd;
    szCmd[1] |= (Addr >> 24) & 0xFF;
    a988:	d8800045 	stb	r2,1(sp)
    szCmd[2] |= (Addr >> 16) & 0xFF;
    a98c:	2004d43a 	srli	r2,r4,16
    szCmd[3] |= (Addr >> 8) & 0xFF;
    szCmd[4] |= Addr & 0xFF;
    crc = crc7(0, szCmd, 5);
    a990:	d80b883a 	mov	r5,sp
}


// READ_SINGLE_BLOCK
// Response R1
bool SD_CMD17(alt_u32 Addr, alt_u8 ExpectedStatus){
    a994:	dfc00415 	stw	ra,16(sp)

    SDCARD_TRACE(("CMD17\r\n"));
    // build packet    
    szCmd[0] |= Cmd;
    szCmd[1] |= (Addr >> 24) & 0xFF;
    szCmd[2] |= (Addr >> 16) & 0xFF;
    a998:	d8800085 	stb	r2,2(sp)
    szCmd[3] |= (Addr >> 8) & 0xFF;
    a99c:	2004d23a 	srli	r2,r4,8
    szCmd[4] |= Addr & 0xFF;
    crc = crc7(0, szCmd, 5);
    a9a0:	0009883a 	mov	r4,zero
}


// READ_SINGLE_BLOCK
// Response R1
bool SD_CMD17(alt_u32 Addr, alt_u8 ExpectedStatus){
    a9a4:	dc000315 	stw	r16,12(sp)
    bool bSuccess;
    alt_u8 szResponse[6];
    const alt_u8 Cmd = 17;
    alt_u8 szCmd[6]  = {0x40,0x00,0x00,0x00,0x00, 0x00}, crc;
    a9a8:	d8000145 	stb	zero,5(sp)
    SDCARD_TRACE(("CMD17\r\n"));
    // build packet    
    szCmd[0] |= Cmd;
    szCmd[1] |= (Addr >> 24) & 0xFF;
    szCmd[2] |= (Addr >> 16) & 0xFF;
    szCmd[3] |= (Addr >> 8) & 0xFF;
    a9ac:	d88000c5 	stb	r2,3(sp)
    szCmd[4] |= Addr & 0xFF;
    crc = crc7(0, szCmd, 5);
    a9b0:	000955c0 	call	955c <crc7>
    szCmd[5] = (crc << 1) | 0x01;
    a9b4:	10803fcc 	andi	r2,r2,255
    a9b8:	1085883a 	add	r2,r2,r2
    a9bc:	10800054 	ori	r2,r2,1

    // send package    
    SDHAL_SendCmd(szCmd, sizeof(szCmd));
    a9c0:	01400184 	movi	r5,6
    a9c4:	d809883a 	mov	r4,sp
    szCmd[1] |= (Addr >> 24) & 0xFF;
    szCmd[2] |= (Addr >> 16) & 0xFF;
    szCmd[3] |= (Addr >> 8) & 0xFF;
    szCmd[4] |= Addr & 0xFF;
    crc = crc7(0, szCmd, 5);
    szCmd[5] = (crc << 1) | 0x01;
    a9c8:	d8800145 	stb	r2,5(sp)

    // send package    
    SDHAL_SendCmd(szCmd, sizeof(szCmd));
    a9cc:	00097040 	call	9704 <SDHAL_SendCmd>
  

    // get response  
    bSuccess = SDHAL_GetResponse(szResponse, sizeof(szResponse));
    a9d0:	01400184 	movi	r5,6
    a9d4:	d949883a 	add	r4,sp,r5
    a9d8:	00097a80 	call	97a8 <SDHAL_GetResponse>
    
    // check response content
    if (bSuccess){
    a9dc:	10001326 	beq	r2,zero,aa2c <SD_CMD17+0xbc>
        alt_u32 CardStatus, ExpectedStatus;
        // check command
        if (bSuccess && szResponse[0] != Cmd){ 
    a9e0:	d8c00183 	ldbu	r3,6(sp)
    a9e4:	1021883a 	mov	r16,r2
    a9e8:	00800444 	movi	r2,17
    a9ec:	18800126 	beq	r3,r2,a9f4 <SD_CMD17+0x84>
            SDCARD_DEBUG(("CMD%d Response: Invalid strat+tx+reserved bit\r\n", Cmd));
            bSuccess = FALSE;
    a9f0:	0021883a 	mov	r16,zero
        }

        // [1]~[4]: 32-bits card status
        CardStatus = ArrayToU32(&szResponse[1]);
    a9f4:	d90001c4 	addi	r4,sp,7
    a9f8:	000a4c80 	call	a4c8 <ArrayToU32>
        ExpectedStatus = SD_BIT_READY_FOR_DATA | SD_CURRENT_STATE_ENCODE(SD_STATE_TRAN);
        if (CardStatus != ExpectedStatus){
    a9fc:	00c24004 	movi	r3,2304
    aa00:	10c00a1e 	bne	r2,r3,aa2c <SD_CMD17+0xbc>
            SDCARD_DEBUG(("CMD%d Response: unexpected stauts\r\n", Cmd));
            bSuccess = FALSE;
        }        
        
        // check crc
        if (bSuccess){
    aa04:	80000926 	beq	r16,zero,aa2c <SD_CMD17+0xbc>
            alt_u8 crc;
            crc = crc7(0, szResponse, 5);
    aa08:	0009883a 	mov	r4,zero
    aa0c:	01800144 	movi	r6,5
    aa10:	d9400184 	addi	r5,sp,6
    aa14:	000955c0 	call	955c <crc7>
            if (crc != (szResponse[5] >> 1)){
    aa18:	d8c002c3 	ldbu	r3,11(sp)
    aa1c:	10803fcc 	andi	r2,r2,255
    aa20:	19003fcc 	andi	r4,r3,255
    aa24:	2008d07a 	srli	r4,r4,1
    aa28:	11000226 	beq	r2,r4,aa34 <SD_CMD17+0xc4>
        }            
        
        // check end-bits
        if (bSuccess && ((szResponse[5] & 0x01) != 0x01)){
            SDCARD_DEBUG(("CMD%d Response: Invalid end-bits\r\n", Cmd));
            bSuccess = FALSE;
    aa2c:	0021883a 	mov	r16,zero
    aa30:	00000206 	br	aa3c <SD_CMD17+0xcc>
                bSuccess = FALSE;
            }
        }            
        
        // check end-bits
        if (bSuccess && ((szResponse[5] & 0x01) != 0x01)){
    aa34:	18c0004c 	andi	r3,r3,1
    aa38:	183ffc26 	beq	r3,zero,aa2c <_gp+0xffff4710>
    }
    
     
    
    return bSuccess;
}
    aa3c:	8005883a 	mov	r2,r16
    aa40:	dfc00417 	ldw	ra,16(sp)
    aa44:	dc000317 	ldw	r16,12(sp)
    aa48:	dec00504 	addi	sp,sp,20
    aa4c:	f800283a 	ret

0000aa50 <SD_CMD24>:

// WRITE_BLOCK (Single)
// Response R1
bool SD_CMD24(alt_u32 Addr, alt_u8 ExpectedStatus){
    aa50:	defffb04 	addi	sp,sp,-20
    const alt_u8 Cmd = 24;
    alt_u8 szCmd[6]  = {0x40,0x00,0x00,0x00,0x00, 0x00}, crc;

    SDCARD_TRACE(("CMD24\r\n"));
    // build packet    
    szCmd[0] |= Cmd;
    aa54:	00801604 	movi	r2,88
    aa58:	d8800005 	stb	r2,0(sp)
    szCmd[1] |= (Addr >> 24) & 0xFF;
    aa5c:	2004d63a 	srli	r2,r4,24
    szCmd[2] |= (Addr >> 16) & 0xFF;
    szCmd[3] |= (Addr >> 8) & 0xFF;
    szCmd[4] |= Addr & 0xFF;
    aa60:	d9000105 	stb	r4,4(sp)
    crc = crc7(0, szCmd, 5);
    aa64:	01800144 	movi	r6,5
    alt_u8 szCmd[6]  = {0x40,0x00,0x00,0x00,0x00, 0x00}, crc;

    SDCARD_TRACE(("CMD24\r\n"));
    // build packet    
    szCmd[0] |= Cmd;
    szCmd[1] |= (Addr >> 24) & 0xFF;
    aa68:	d8800045 	stb	r2,1(sp)
    szCmd[2] |= (Addr >> 16) & 0xFF;
    aa6c:	2004d43a 	srli	r2,r4,16
    szCmd[3] |= (Addr >> 8) & 0xFF;
    szCmd[4] |= Addr & 0xFF;
    crc = crc7(0, szCmd, 5);
    aa70:	d80b883a 	mov	r5,sp
    return bSuccess;
}

// WRITE_BLOCK (Single)
// Response R1
bool SD_CMD24(alt_u32 Addr, alt_u8 ExpectedStatus){
    aa74:	dfc00415 	stw	ra,16(sp)

    SDCARD_TRACE(("CMD24\r\n"));
    // build packet    
    szCmd[0] |= Cmd;
    szCmd[1] |= (Addr >> 24) & 0xFF;
    szCmd[2] |= (Addr >> 16) & 0xFF;
    aa78:	d8800085 	stb	r2,2(sp)
    szCmd[3] |= (Addr >> 8) & 0xFF;
    aa7c:	2004d23a 	srli	r2,r4,8
    szCmd[4] |= Addr & 0xFF;
    crc = crc7(0, szCmd, 5);
    aa80:	0009883a 	mov	r4,zero
    return bSuccess;
}

// WRITE_BLOCK (Single)
// Response R1
bool SD_CMD24(alt_u32 Addr, alt_u8 ExpectedStatus){
    aa84:	dc000315 	stw	r16,12(sp)
    bool bSuccess;
    alt_u8 szResponse[6];
    const alt_u8 Cmd = 24;
    alt_u8 szCmd[6]  = {0x40,0x00,0x00,0x00,0x00, 0x00}, crc;
    aa88:	d8000145 	stb	zero,5(sp)
    SDCARD_TRACE(("CMD24\r\n"));
    // build packet    
    szCmd[0] |= Cmd;
    szCmd[1] |= (Addr >> 24) & 0xFF;
    szCmd[2] |= (Addr >> 16) & 0xFF;
    szCmd[3] |= (Addr >> 8) & 0xFF;
    aa8c:	d88000c5 	stb	r2,3(sp)
    szCmd[4] |= Addr & 0xFF;
    crc = crc7(0, szCmd, 5);
    aa90:	000955c0 	call	955c <crc7>
    szCmd[5] = (crc << 1) | 0x01;
    aa94:	10803fcc 	andi	r2,r2,255
    aa98:	1085883a 	add	r2,r2,r2
    aa9c:	10800054 	ori	r2,r2,1

    // send package    
    SDHAL_SendCmd(szCmd, sizeof(szCmd));
    aaa0:	01400184 	movi	r5,6
    aaa4:	d809883a 	mov	r4,sp
    szCmd[1] |= (Addr >> 24) & 0xFF;
    szCmd[2] |= (Addr >> 16) & 0xFF;
    szCmd[3] |= (Addr >> 8) & 0xFF;
    szCmd[4] |= Addr & 0xFF;
    crc = crc7(0, szCmd, 5);
    szCmd[5] = (crc << 1) | 0x01;
    aaa8:	d8800145 	stb	r2,5(sp)

    // send package    
    SDHAL_SendCmd(szCmd, sizeof(szCmd));
    aaac:	00097040 	call	9704 <SDHAL_SendCmd>
  

    // get response  
    bSuccess = SDHAL_GetResponse(szResponse, sizeof(szResponse));
    aab0:	01400184 	movi	r5,6
    aab4:	d949883a 	add	r4,sp,r5
    aab8:	00097a80 	call	97a8 <SDHAL_GetResponse>
    
    // check response content
    if (bSuccess){
    aabc:	10001326 	beq	r2,zero,ab0c <SD_CMD24+0xbc>
        alt_u32 CardStatus, ExpectedStatus;
        // check command
        if (bSuccess && szResponse[0] != Cmd){ 
    aac0:	d8c00183 	ldbu	r3,6(sp)
    aac4:	1021883a 	mov	r16,r2
    aac8:	00800604 	movi	r2,24
    aacc:	18800126 	beq	r3,r2,aad4 <SD_CMD24+0x84>
            SDCARD_DEBUG(("CMD%d Response: Invalid strat+tx+reserved bit\r\n", Cmd));
            bSuccess = FALSE;
    aad0:	0021883a 	mov	r16,zero
        }

        // [1]~[4]: 32-bits card status
        CardStatus = ArrayToU32(&szResponse[1]);
    aad4:	d90001c4 	addi	r4,sp,7
    aad8:	000a4c80 	call	a4c8 <ArrayToU32>
        ExpectedStatus = SD_BIT_READY_FOR_DATA | SD_CURRENT_STATE_ENCODE(SD_STATE_TRAN);
        if (CardStatus != ExpectedStatus){
    aadc:	00c24004 	movi	r3,2304
    aae0:	10c00a1e 	bne	r2,r3,ab0c <SD_CMD24+0xbc>
            SDCARD_DEBUG(("CMD%d Response: unexpected stauts\r\n", Cmd));
            bSuccess = FALSE;
        }        
        
        // check crc
        if (bSuccess){
    aae4:	80000926 	beq	r16,zero,ab0c <SD_CMD24+0xbc>
            alt_u8 crc;
            crc = crc7(0, szResponse, 5);
    aae8:	0009883a 	mov	r4,zero
    aaec:	01800144 	movi	r6,5
    aaf0:	d9400184 	addi	r5,sp,6
    aaf4:	000955c0 	call	955c <crc7>
            if (crc != (szResponse[5] >> 1)){
    aaf8:	d8c002c3 	ldbu	r3,11(sp)
    aafc:	10803fcc 	andi	r2,r2,255
    ab00:	19003fcc 	andi	r4,r3,255
    ab04:	2008d07a 	srli	r4,r4,1
    ab08:	11000226 	beq	r2,r4,ab14 <SD_CMD24+0xc4>
        }            
        
        // check end-bits
        if (bSuccess && ((szResponse[5] & 0x01) != 0x01)){
            SDCARD_DEBUG(("CMD%d Response: Invalid end-bits\r\n", Cmd));
            bSuccess = FALSE;
    ab0c:	0021883a 	mov	r16,zero
    ab10:	00000206 	br	ab1c <SD_CMD24+0xcc>
                bSuccess = FALSE;
            }
        }            
        
        // check end-bits
        if (bSuccess && ((szResponse[5] & 0x01) != 0x01)){
    ab14:	18c0004c 	andi	r3,r3,1
    ab18:	183ffc26 	beq	r3,zero,ab0c <_gp+0xffff47f0>
    }
    
     
    
    return bSuccess;
}
    ab1c:	8005883a 	mov	r2,r16
    ab20:	dfc00417 	ldw	ra,16(sp)
    ab24:	dc000317 	ldw	r16,12(sp)
    ab28:	dec00504 	addi	sp,sp,20
    ab2c:	f800283a 	ret

0000ab30 <__divsi3>:
    ab30:	20001b16 	blt	r4,zero,aba0 <__divsi3+0x70>
    ab34:	000f883a 	mov	r7,zero
    ab38:	28001616 	blt	r5,zero,ab94 <__divsi3+0x64>
    ab3c:	200d883a 	mov	r6,r4
    ab40:	29001a2e 	bgeu	r5,r4,abac <__divsi3+0x7c>
    ab44:	00800804 	movi	r2,32
    ab48:	00c00044 	movi	r3,1
    ab4c:	00000106 	br	ab54 <__divsi3+0x24>
    ab50:	10000d26 	beq	r2,zero,ab88 <__divsi3+0x58>
    ab54:	294b883a 	add	r5,r5,r5
    ab58:	10bfffc4 	addi	r2,r2,-1
    ab5c:	18c7883a 	add	r3,r3,r3
    ab60:	293ffb36 	bltu	r5,r4,ab50 <_gp+0xffff4834>
    ab64:	0005883a 	mov	r2,zero
    ab68:	18000726 	beq	r3,zero,ab88 <__divsi3+0x58>
    ab6c:	0005883a 	mov	r2,zero
    ab70:	31400236 	bltu	r6,r5,ab7c <__divsi3+0x4c>
    ab74:	314dc83a 	sub	r6,r6,r5
    ab78:	10c4b03a 	or	r2,r2,r3
    ab7c:	1806d07a 	srli	r3,r3,1
    ab80:	280ad07a 	srli	r5,r5,1
    ab84:	183ffa1e 	bne	r3,zero,ab70 <_gp+0xffff4854>
    ab88:	38000126 	beq	r7,zero,ab90 <__divsi3+0x60>
    ab8c:	0085c83a 	sub	r2,zero,r2
    ab90:	f800283a 	ret
    ab94:	014bc83a 	sub	r5,zero,r5
    ab98:	39c0005c 	xori	r7,r7,1
    ab9c:	003fe706 	br	ab3c <_gp+0xffff4820>
    aba0:	0109c83a 	sub	r4,zero,r4
    aba4:	01c00044 	movi	r7,1
    aba8:	003fe306 	br	ab38 <_gp+0xffff481c>
    abac:	00c00044 	movi	r3,1
    abb0:	003fee06 	br	ab6c <_gp+0xffff4850>

0000abb4 <__modsi3>:
    abb4:	20001716 	blt	r4,zero,ac14 <__modsi3+0x60>
    abb8:	000f883a 	mov	r7,zero
    abbc:	2005883a 	mov	r2,r4
    abc0:	28001216 	blt	r5,zero,ac0c <__modsi3+0x58>
    abc4:	2900162e 	bgeu	r5,r4,ac20 <__modsi3+0x6c>
    abc8:	01800804 	movi	r6,32
    abcc:	00c00044 	movi	r3,1
    abd0:	00000106 	br	abd8 <__modsi3+0x24>
    abd4:	30000a26 	beq	r6,zero,ac00 <__modsi3+0x4c>
    abd8:	294b883a 	add	r5,r5,r5
    abdc:	31bfffc4 	addi	r6,r6,-1
    abe0:	18c7883a 	add	r3,r3,r3
    abe4:	293ffb36 	bltu	r5,r4,abd4 <_gp+0xffff48b8>
    abe8:	18000526 	beq	r3,zero,ac00 <__modsi3+0x4c>
    abec:	1806d07a 	srli	r3,r3,1
    abf0:	11400136 	bltu	r2,r5,abf8 <__modsi3+0x44>
    abf4:	1145c83a 	sub	r2,r2,r5
    abf8:	280ad07a 	srli	r5,r5,1
    abfc:	183ffb1e 	bne	r3,zero,abec <_gp+0xffff48d0>
    ac00:	38000126 	beq	r7,zero,ac08 <__modsi3+0x54>
    ac04:	0085c83a 	sub	r2,zero,r2
    ac08:	f800283a 	ret
    ac0c:	014bc83a 	sub	r5,zero,r5
    ac10:	003fec06 	br	abc4 <_gp+0xffff48a8>
    ac14:	0109c83a 	sub	r4,zero,r4
    ac18:	01c00044 	movi	r7,1
    ac1c:	003fe706 	br	abbc <_gp+0xffff48a0>
    ac20:	00c00044 	movi	r3,1
    ac24:	003ff106 	br	abec <_gp+0xffff48d0>

0000ac28 <__udivsi3>:
    ac28:	200d883a 	mov	r6,r4
    ac2c:	2900152e 	bgeu	r5,r4,ac84 <__udivsi3+0x5c>
    ac30:	28001416 	blt	r5,zero,ac84 <__udivsi3+0x5c>
    ac34:	00800804 	movi	r2,32
    ac38:	00c00044 	movi	r3,1
    ac3c:	00000206 	br	ac48 <__udivsi3+0x20>
    ac40:	10000e26 	beq	r2,zero,ac7c <__udivsi3+0x54>
    ac44:	28000516 	blt	r5,zero,ac5c <__udivsi3+0x34>
    ac48:	294b883a 	add	r5,r5,r5
    ac4c:	10bfffc4 	addi	r2,r2,-1
    ac50:	18c7883a 	add	r3,r3,r3
    ac54:	293ffa36 	bltu	r5,r4,ac40 <_gp+0xffff4924>
    ac58:	18000826 	beq	r3,zero,ac7c <__udivsi3+0x54>
    ac5c:	0005883a 	mov	r2,zero
    ac60:	31400236 	bltu	r6,r5,ac6c <__udivsi3+0x44>
    ac64:	314dc83a 	sub	r6,r6,r5
    ac68:	10c4b03a 	or	r2,r2,r3
    ac6c:	1806d07a 	srli	r3,r3,1
    ac70:	280ad07a 	srli	r5,r5,1
    ac74:	183ffa1e 	bne	r3,zero,ac60 <_gp+0xffff4944>
    ac78:	f800283a 	ret
    ac7c:	0005883a 	mov	r2,zero
    ac80:	f800283a 	ret
    ac84:	00c00044 	movi	r3,1
    ac88:	003ff406 	br	ac5c <_gp+0xffff4940>

0000ac8c <__umodsi3>:
    ac8c:	2005883a 	mov	r2,r4
    ac90:	2900122e 	bgeu	r5,r4,acdc <__umodsi3+0x50>
    ac94:	28001116 	blt	r5,zero,acdc <__umodsi3+0x50>
    ac98:	01800804 	movi	r6,32
    ac9c:	00c00044 	movi	r3,1
    aca0:	00000206 	br	acac <__umodsi3+0x20>
    aca4:	30000c26 	beq	r6,zero,acd8 <__umodsi3+0x4c>
    aca8:	28000516 	blt	r5,zero,acc0 <__umodsi3+0x34>
    acac:	294b883a 	add	r5,r5,r5
    acb0:	31bfffc4 	addi	r6,r6,-1
    acb4:	18c7883a 	add	r3,r3,r3
    acb8:	293ffa36 	bltu	r5,r4,aca4 <_gp+0xffff4988>
    acbc:	18000626 	beq	r3,zero,acd8 <__umodsi3+0x4c>
    acc0:	1806d07a 	srli	r3,r3,1
    acc4:	11400136 	bltu	r2,r5,accc <__umodsi3+0x40>
    acc8:	1145c83a 	sub	r2,r2,r5
    accc:	280ad07a 	srli	r5,r5,1
    acd0:	183ffb1e 	bne	r3,zero,acc0 <_gp+0xffff49a4>
    acd4:	f800283a 	ret
    acd8:	f800283a 	ret
    acdc:	00c00044 	movi	r3,1
    ace0:	003ff706 	br	acc0 <_gp+0xffff49a4>

0000ace4 <__mulsi3>:
    ace4:	0005883a 	mov	r2,zero
    ace8:	20000726 	beq	r4,zero,ad08 <__mulsi3+0x24>
    acec:	20c0004c 	andi	r3,r4,1
    acf0:	2008d07a 	srli	r4,r4,1
    acf4:	18000126 	beq	r3,zero,acfc <__mulsi3+0x18>
    acf8:	1145883a 	add	r2,r2,r5
    acfc:	294b883a 	add	r5,r5,r5
    ad00:	203ffa1e 	bne	r4,zero,acec <_gp+0xffff49d0>
    ad04:	f800283a 	ret
    ad08:	f800283a 	ret

0000ad0c <__divsf3>:
    ad0c:	defff504 	addi	sp,sp,-44
    ad10:	200cd5fa 	srli	r6,r4,23
    ad14:	dcc00415 	stw	r19,16(sp)
    ad18:	2026d7fa 	srli	r19,r4,31
    ad1c:	00c02034 	movhi	r3,128
    ad20:	dd800715 	stw	r22,28(sp)
    ad24:	dd000515 	stw	r20,20(sp)
    ad28:	dc800315 	stw	r18,12(sp)
    ad2c:	18ffffc4 	addi	r3,r3,-1
    ad30:	dfc00a15 	stw	ra,40(sp)
    ad34:	df000915 	stw	fp,36(sp)
    ad38:	ddc00815 	stw	r23,32(sp)
    ad3c:	dd400615 	stw	r21,24(sp)
    ad40:	dc400215 	stw	r17,8(sp)
    ad44:	dc000115 	stw	r16,4(sp)
    ad48:	35003fcc 	andi	r20,r6,255
    ad4c:	1924703a 	and	r18,r3,r4
    ad50:	9d803fcc 	andi	r22,r19,255
    ad54:	a0005226 	beq	r20,zero,aea0 <__divsf3+0x194>
    ad58:	00803fc4 	movi	r2,255
    ad5c:	a0802e26 	beq	r20,r2,ae18 <__divsf3+0x10c>
    ad60:	91002034 	orhi	r4,r18,128
    ad64:	202490fa 	slli	r18,r4,3
    ad68:	a53fe044 	addi	r20,r20,-127
    ad6c:	0021883a 	mov	r16,zero
    ad70:	002f883a 	mov	r23,zero
    ad74:	280cd5fa 	srli	r6,r5,23
    ad78:	282ad7fa 	srli	r21,r5,31
    ad7c:	00c02034 	movhi	r3,128
    ad80:	18ffffc4 	addi	r3,r3,-1
    ad84:	31803fcc 	andi	r6,r6,255
    ad88:	1962703a 	and	r17,r3,r5
    ad8c:	af003fcc 	andi	fp,r21,255
    ad90:	30004a26 	beq	r6,zero,aebc <__divsf3+0x1b0>
    ad94:	00803fc4 	movi	r2,255
    ad98:	30804526 	beq	r6,r2,aeb0 <__divsf3+0x1a4>
    ad9c:	89402034 	orhi	r5,r17,128
    ada0:	282290fa 	slli	r17,r5,3
    ada4:	31bfe044 	addi	r6,r6,-127
    ada8:	000b883a 	mov	r5,zero
    adac:	2c20b03a 	or	r16,r5,r16
    adb0:	802090ba 	slli	r16,r16,2
    adb4:	00800074 	movhi	r2,1
    adb8:	10ab7604 	addi	r2,r2,-21032
    adbc:	80a1883a 	add	r16,r16,r2
    adc0:	81000017 	ldw	r4,0(r16)
    adc4:	9d46f03a 	xor	r3,r19,r21
    adc8:	180f883a 	mov	r7,r3
    adcc:	18803fcc 	andi	r2,r3,255
    add0:	a18dc83a 	sub	r6,r20,r6
    add4:	2000683a 	jmp	r4
    add8:	0000afbc 	xorhi	zero,zero,702
    addc:	0000ae40 	call	ae4 <__alt_mem_onchip_memory2_0-0x751c>
    ade0:	0000afb0 	cmpltui	zero,zero,702
    ade4:	0000ae2c 	andhi	zero,zero,696
    ade8:	0000afb0 	cmpltui	zero,zero,702
    adec:	0000af88 	cmpgei	zero,zero,702
    adf0:	0000afb0 	cmpltui	zero,zero,702
    adf4:	0000ae2c 	andhi	zero,zero,696
    adf8:	0000ae40 	call	ae4 <__alt_mem_onchip_memory2_0-0x751c>
    adfc:	0000ae40 	call	ae4 <__alt_mem_onchip_memory2_0-0x751c>
    ae00:	0000af88 	cmpgei	zero,zero,702
    ae04:	0000ae2c 	andhi	zero,zero,696
    ae08:	0000b09c 	xori	zero,zero,706
    ae0c:	0000b09c 	xori	zero,zero,706
    ae10:	0000b09c 	xori	zero,zero,706
    ae14:	0000b050 	cmplti	zero,zero,705
    ae18:	9000581e 	bne	r18,zero,af7c <__divsf3+0x270>
    ae1c:	04000204 	movi	r16,8
    ae20:	05c00084 	movi	r23,2
    ae24:	003fd306 	br	ad74 <_gp+0xffff4a58>
    ae28:	0023883a 	mov	r17,zero
    ae2c:	e02d883a 	mov	r22,fp
    ae30:	282f883a 	mov	r23,r5
    ae34:	00800084 	movi	r2,2
    ae38:	b8808f1e 	bne	r23,r2,b078 <__divsf3+0x36c>
    ae3c:	b005883a 	mov	r2,r22
    ae40:	11c0004c 	andi	r7,r2,1
    ae44:	013fffc4 	movi	r4,-1
    ae48:	000d883a 	mov	r6,zero
    ae4c:	21003fcc 	andi	r4,r4,255
    ae50:	200895fa 	slli	r4,r4,23
    ae54:	38803fcc 	andi	r2,r7,255
    ae58:	00c02034 	movhi	r3,128
    ae5c:	100497fa 	slli	r2,r2,31
    ae60:	18ffffc4 	addi	r3,r3,-1
    ae64:	30c6703a 	and	r3,r6,r3
    ae68:	1906b03a 	or	r3,r3,r4
    ae6c:	1884b03a 	or	r2,r3,r2
    ae70:	dfc00a17 	ldw	ra,40(sp)
    ae74:	df000917 	ldw	fp,36(sp)
    ae78:	ddc00817 	ldw	r23,32(sp)
    ae7c:	dd800717 	ldw	r22,28(sp)
    ae80:	dd400617 	ldw	r21,24(sp)
    ae84:	dd000517 	ldw	r20,20(sp)
    ae88:	dcc00417 	ldw	r19,16(sp)
    ae8c:	dc800317 	ldw	r18,12(sp)
    ae90:	dc400217 	ldw	r17,8(sp)
    ae94:	dc000117 	ldw	r16,4(sp)
    ae98:	dec00b04 	addi	sp,sp,44
    ae9c:	f800283a 	ret
    aea0:	90002b1e 	bne	r18,zero,af50 <__divsf3+0x244>
    aea4:	04000104 	movi	r16,4
    aea8:	05c00044 	movi	r23,1
    aeac:	003fb106 	br	ad74 <_gp+0xffff4a58>
    aeb0:	8800251e 	bne	r17,zero,af48 <__divsf3+0x23c>
    aeb4:	01400084 	movi	r5,2
    aeb8:	00000206 	br	aec4 <__divsf3+0x1b8>
    aebc:	88001a1e 	bne	r17,zero,af28 <__divsf3+0x21c>
    aec0:	01400044 	movi	r5,1
    aec4:	8160b03a 	or	r16,r16,r5
    aec8:	802090ba 	slli	r16,r16,2
    aecc:	00c00074 	movhi	r3,1
    aed0:	18ebba04 	addi	r3,r3,-20760
    aed4:	80e1883a 	add	r16,r16,r3
    aed8:	80c00017 	ldw	r3,0(r16)
    aedc:	9d44f03a 	xor	r2,r19,r21
    aee0:	a18dc83a 	sub	r6,r20,r6
    aee4:	1800683a 	jmp	r3
    aee8:	0000ae40 	call	ae4 <__alt_mem_onchip_memory2_0-0x751c>
    aeec:	0000ae40 	call	ae4 <__alt_mem_onchip_memory2_0-0x751c>
    aef0:	0000b08c 	andi	zero,zero,706
    aef4:	0000ae28 	cmpgeui	zero,zero,696
    aef8:	0000b08c 	andi	zero,zero,706
    aefc:	0000af88 	cmpgei	zero,zero,702
    af00:	0000b08c 	andi	zero,zero,706
    af04:	0000ae28 	cmpgeui	zero,zero,696
    af08:	0000ae40 	call	ae4 <__alt_mem_onchip_memory2_0-0x751c>
    af0c:	0000ae40 	call	ae4 <__alt_mem_onchip_memory2_0-0x751c>
    af10:	0000af88 	cmpgei	zero,zero,702
    af14:	0000ae28 	cmpgeui	zero,zero,696
    af18:	0000b09c 	xori	zero,zero,706
    af1c:	0000b09c 	xori	zero,zero,706
    af20:	0000b09c 	xori	zero,zero,706
    af24:	0000b0b4 	movhi	zero,706
    af28:	8809883a 	mov	r4,r17
    af2c:	000c1900 	call	c190 <__clzsi2>
    af30:	10fffec4 	addi	r3,r2,-5
    af34:	10801d84 	addi	r2,r2,118
    af38:	88e2983a 	sll	r17,r17,r3
    af3c:	008dc83a 	sub	r6,zero,r2
    af40:	000b883a 	mov	r5,zero
    af44:	003f9906 	br	adac <_gp+0xffff4a90>
    af48:	014000c4 	movi	r5,3
    af4c:	003f9706 	br	adac <_gp+0xffff4a90>
    af50:	9009883a 	mov	r4,r18
    af54:	d9400015 	stw	r5,0(sp)
    af58:	000c1900 	call	c190 <__clzsi2>
    af5c:	10fffec4 	addi	r3,r2,-5
    af60:	11801d84 	addi	r6,r2,118
    af64:	90e4983a 	sll	r18,r18,r3
    af68:	01a9c83a 	sub	r20,zero,r6
    af6c:	0021883a 	mov	r16,zero
    af70:	002f883a 	mov	r23,zero
    af74:	d9400017 	ldw	r5,0(sp)
    af78:	003f7e06 	br	ad74 <_gp+0xffff4a58>
    af7c:	04000304 	movi	r16,12
    af80:	05c000c4 	movi	r23,3
    af84:	003f7b06 	br	ad74 <_gp+0xffff4a58>
    af88:	01802034 	movhi	r6,128
    af8c:	000f883a 	mov	r7,zero
    af90:	31bfffc4 	addi	r6,r6,-1
    af94:	013fffc4 	movi	r4,-1
    af98:	003fac06 	br	ae4c <_gp+0xffff4b30>
    af9c:	01400044 	movi	r5,1
    afa0:	2909c83a 	sub	r4,r5,r4
    afa4:	00c006c4 	movi	r3,27
    afa8:	19004b0e 	bge	r3,r4,b0d8 <__divsf3+0x3cc>
    afac:	114e703a 	and	r7,r2,r5
    afb0:	0009883a 	mov	r4,zero
    afb4:	000d883a 	mov	r6,zero
    afb8:	003fa406 	br	ae4c <_gp+0xffff4b30>
    afbc:	9006917a 	slli	r3,r18,5
    afc0:	8822917a 	slli	r17,r17,5
    afc4:	1c40372e 	bgeu	r3,r17,b0a4 <__divsf3+0x398>
    afc8:	31bfffc4 	addi	r6,r6,-1
    afcc:	010006c4 	movi	r4,27
    afd0:	000b883a 	mov	r5,zero
    afd4:	180f883a 	mov	r7,r3
    afd8:	294b883a 	add	r5,r5,r5
    afdc:	18c7883a 	add	r3,r3,r3
    afe0:	38000116 	blt	r7,zero,afe8 <__divsf3+0x2dc>
    afe4:	1c400236 	bltu	r3,r17,aff0 <__divsf3+0x2e4>
    afe8:	1c47c83a 	sub	r3,r3,r17
    afec:	29400054 	ori	r5,r5,1
    aff0:	213fffc4 	addi	r4,r4,-1
    aff4:	203ff71e 	bne	r4,zero,afd4 <_gp+0xffff4cb8>
    aff8:	1806c03a 	cmpne	r3,r3,zero
    affc:	1962b03a 	or	r17,r3,r5
    b000:	31001fc4 	addi	r4,r6,127
    b004:	013fe50e 	bge	zero,r4,af9c <_gp+0xffff4c80>
    b008:	88c001cc 	andi	r3,r17,7
    b00c:	18000426 	beq	r3,zero,b020 <__divsf3+0x314>
    b010:	88c003cc 	andi	r3,r17,15
    b014:	01400104 	movi	r5,4
    b018:	19400126 	beq	r3,r5,b020 <__divsf3+0x314>
    b01c:	8963883a 	add	r17,r17,r5
    b020:	88c2002c 	andhi	r3,r17,2048
    b024:	18000426 	beq	r3,zero,b038 <__divsf3+0x32c>
    b028:	00fe0034 	movhi	r3,63488
    b02c:	18ffffc4 	addi	r3,r3,-1
    b030:	31002004 	addi	r4,r6,128
    b034:	88e2703a 	and	r17,r17,r3
    b038:	00c03f84 	movi	r3,254
    b03c:	193f8016 	blt	r3,r4,ae40 <_gp+0xffff4b24>
    b040:	880c91ba 	slli	r6,r17,6
    b044:	11c0004c 	andi	r7,r2,1
    b048:	300cd27a 	srli	r6,r6,9
    b04c:	003f7f06 	br	ae4c <_gp+0xffff4b30>
    b050:	9080102c 	andhi	r2,r18,64
    b054:	10000226 	beq	r2,zero,b060 <__divsf3+0x354>
    b058:	8880102c 	andhi	r2,r17,64
    b05c:	10001826 	beq	r2,zero,b0c0 <__divsf3+0x3b4>
    b060:	00802034 	movhi	r2,128
    b064:	91801034 	orhi	r6,r18,64
    b068:	10bfffc4 	addi	r2,r2,-1
    b06c:	980f883a 	mov	r7,r19
    b070:	308c703a 	and	r6,r6,r2
    b074:	003fc706 	br	af94 <_gp+0xffff4c78>
    b078:	008000c4 	movi	r2,3
    b07c:	b8802d26 	beq	r23,r2,b134 <__divsf3+0x428>
    b080:	00c00044 	movi	r3,1
    b084:	b005883a 	mov	r2,r22
    b088:	b8ffdd1e 	bne	r23,r3,b000 <_gp+0xffff4ce4>
    b08c:	11c0004c 	andi	r7,r2,1
    b090:	0009883a 	mov	r4,zero
    b094:	000d883a 	mov	r6,zero
    b098:	003f6c06 	br	ae4c <_gp+0xffff4b30>
    b09c:	9023883a 	mov	r17,r18
    b0a0:	003f6406 	br	ae34 <_gp+0xffff4b18>
    b0a4:	1c47c83a 	sub	r3,r3,r17
    b0a8:	01000684 	movi	r4,26
    b0ac:	01400044 	movi	r5,1
    b0b0:	003fc806 	br	afd4 <_gp+0xffff4cb8>
    b0b4:	9080102c 	andhi	r2,r18,64
    b0b8:	103fe926 	beq	r2,zero,b060 <_gp+0xffff4d44>
    b0bc:	0023883a 	mov	r17,zero
    b0c0:	00802034 	movhi	r2,128
    b0c4:	89801034 	orhi	r6,r17,64
    b0c8:	10bfffc4 	addi	r2,r2,-1
    b0cc:	a80f883a 	mov	r7,r21
    b0d0:	308c703a 	and	r6,r6,r2
    b0d4:	003faf06 	br	af94 <_gp+0xffff4c78>
    b0d8:	01c00804 	movi	r7,32
    b0dc:	390fc83a 	sub	r7,r7,r4
    b0e0:	89ce983a 	sll	r7,r17,r7
    b0e4:	890ad83a 	srl	r5,r17,r4
    b0e8:	380ec03a 	cmpne	r7,r7,zero
    b0ec:	29cab03a 	or	r5,r5,r7
    b0f0:	28c001cc 	andi	r3,r5,7
    b0f4:	18000426 	beq	r3,zero,b108 <__divsf3+0x3fc>
    b0f8:	28c003cc 	andi	r3,r5,15
    b0fc:	01000104 	movi	r4,4
    b100:	19000126 	beq	r3,r4,b108 <__divsf3+0x3fc>
    b104:	290b883a 	add	r5,r5,r4
    b108:	28c1002c 	andhi	r3,r5,1024
    b10c:	18000426 	beq	r3,zero,b120 <__divsf3+0x414>
    b110:	11c0004c 	andi	r7,r2,1
    b114:	01000044 	movi	r4,1
    b118:	000d883a 	mov	r6,zero
    b11c:	003f4b06 	br	ae4c <_gp+0xffff4b30>
    b120:	280a91ba 	slli	r5,r5,6
    b124:	11c0004c 	andi	r7,r2,1
    b128:	0009883a 	mov	r4,zero
    b12c:	280cd27a 	srli	r6,r5,9
    b130:	003f4606 	br	ae4c <_gp+0xffff4b30>
    b134:	00802034 	movhi	r2,128
    b138:	89801034 	orhi	r6,r17,64
    b13c:	10bfffc4 	addi	r2,r2,-1
    b140:	b00f883a 	mov	r7,r22
    b144:	308c703a 	and	r6,r6,r2
    b148:	003f9206 	br	af94 <_gp+0xffff4c78>

0000b14c <__mulsf3>:
    b14c:	defff504 	addi	sp,sp,-44
    b150:	dc000115 	stw	r16,4(sp)
    b154:	2020d5fa 	srli	r16,r4,23
    b158:	dd400615 	stw	r21,24(sp)
    b15c:	202ad7fa 	srli	r21,r4,31
    b160:	dc800315 	stw	r18,12(sp)
    b164:	04802034 	movhi	r18,128
    b168:	df000915 	stw	fp,36(sp)
    b16c:	dd000515 	stw	r20,20(sp)
    b170:	94bfffc4 	addi	r18,r18,-1
    b174:	dfc00a15 	stw	ra,40(sp)
    b178:	ddc00815 	stw	r23,32(sp)
    b17c:	dd800715 	stw	r22,28(sp)
    b180:	dcc00415 	stw	r19,16(sp)
    b184:	dc400215 	stw	r17,8(sp)
    b188:	84003fcc 	andi	r16,r16,255
    b18c:	9124703a 	and	r18,r18,r4
    b190:	a829883a 	mov	r20,r21
    b194:	af003fcc 	andi	fp,r21,255
    b198:	80005426 	beq	r16,zero,b2ec <__mulsf3+0x1a0>
    b19c:	00803fc4 	movi	r2,255
    b1a0:	80802f26 	beq	r16,r2,b260 <__mulsf3+0x114>
    b1a4:	91002034 	orhi	r4,r18,128
    b1a8:	202490fa 	slli	r18,r4,3
    b1ac:	843fe044 	addi	r16,r16,-127
    b1b0:	0023883a 	mov	r17,zero
    b1b4:	002f883a 	mov	r23,zero
    b1b8:	2804d5fa 	srli	r2,r5,23
    b1bc:	282cd7fa 	srli	r22,r5,31
    b1c0:	01002034 	movhi	r4,128
    b1c4:	213fffc4 	addi	r4,r4,-1
    b1c8:	10803fcc 	andi	r2,r2,255
    b1cc:	2166703a 	and	r19,r4,r5
    b1d0:	b1803fcc 	andi	r6,r22,255
    b1d4:	10004c26 	beq	r2,zero,b308 <__mulsf3+0x1bc>
    b1d8:	00c03fc4 	movi	r3,255
    b1dc:	10c04726 	beq	r2,r3,b2fc <__mulsf3+0x1b0>
    b1e0:	99002034 	orhi	r4,r19,128
    b1e4:	202690fa 	slli	r19,r4,3
    b1e8:	10bfe044 	addi	r2,r2,-127
    b1ec:	0007883a 	mov	r3,zero
    b1f0:	80a1883a 	add	r16,r16,r2
    b1f4:	010003c4 	movi	r4,15
    b1f8:	1c44b03a 	or	r2,r3,r17
    b1fc:	b56af03a 	xor	r21,r22,r21
    b200:	81c00044 	addi	r7,r16,1
    b204:	20806b36 	bltu	r4,r2,b3b4 <__mulsf3+0x268>
    b208:	100490ba 	slli	r2,r2,2
    b20c:	01000074 	movhi	r4,1
    b210:	212c8804 	addi	r4,r4,-19936
    b214:	1105883a 	add	r2,r2,r4
    b218:	10800017 	ldw	r2,0(r2)
    b21c:	1000683a 	jmp	r2
    b220:	0000b3b4 	movhi	zero,718
    b224:	0000b274 	movhi	zero,713
    b228:	0000b274 	movhi	zero,713
    b22c:	0000b270 	cmpltui	zero,zero,713
    b230:	0000b398 	cmpnei	zero,zero,718
    b234:	0000b398 	cmpnei	zero,zero,718
    b238:	0000b384 	movi	zero,718
    b23c:	0000b270 	cmpltui	zero,zero,713
    b240:	0000b398 	cmpnei	zero,zero,718
    b244:	0000b384 	movi	zero,718
    b248:	0000b398 	cmpnei	zero,zero,718
    b24c:	0000b270 	cmpltui	zero,zero,713
    b250:	0000b3a4 	muli	zero,zero,718
    b254:	0000b3a4 	muli	zero,zero,718
    b258:	0000b3a4 	muli	zero,zero,718
    b25c:	0000b4b4 	movhi	zero,722
    b260:	90003b1e 	bne	r18,zero,b350 <__mulsf3+0x204>
    b264:	04400204 	movi	r17,8
    b268:	05c00084 	movi	r23,2
    b26c:	003fd206 	br	b1b8 <_gp+0xffff4e9c>
    b270:	302b883a 	mov	r21,r6
    b274:	00800084 	movi	r2,2
    b278:	18802626 	beq	r3,r2,b314 <__mulsf3+0x1c8>
    b27c:	008000c4 	movi	r2,3
    b280:	1880b826 	beq	r3,r2,b564 <__mulsf3+0x418>
    b284:	00800044 	movi	r2,1
    b288:	1880af1e 	bne	r3,r2,b548 <__mulsf3+0x3fc>
    b28c:	a829883a 	mov	r20,r21
    b290:	0007883a 	mov	r3,zero
    b294:	0009883a 	mov	r4,zero
    b298:	18803fcc 	andi	r2,r3,255
    b29c:	100695fa 	slli	r3,r2,23
    b2a0:	a0803fcc 	andi	r2,r20,255
    b2a4:	100a97fa 	slli	r5,r2,31
    b2a8:	00802034 	movhi	r2,128
    b2ac:	10bfffc4 	addi	r2,r2,-1
    b2b0:	2084703a 	and	r2,r4,r2
    b2b4:	10c4b03a 	or	r2,r2,r3
    b2b8:	1144b03a 	or	r2,r2,r5
    b2bc:	dfc00a17 	ldw	ra,40(sp)
    b2c0:	df000917 	ldw	fp,36(sp)
    b2c4:	ddc00817 	ldw	r23,32(sp)
    b2c8:	dd800717 	ldw	r22,28(sp)
    b2cc:	dd400617 	ldw	r21,24(sp)
    b2d0:	dd000517 	ldw	r20,20(sp)
    b2d4:	dcc00417 	ldw	r19,16(sp)
    b2d8:	dc800317 	ldw	r18,12(sp)
    b2dc:	dc400217 	ldw	r17,8(sp)
    b2e0:	dc000117 	ldw	r16,4(sp)
    b2e4:	dec00b04 	addi	sp,sp,44
    b2e8:	f800283a 	ret
    b2ec:	90000d1e 	bne	r18,zero,b324 <__mulsf3+0x1d8>
    b2f0:	04400104 	movi	r17,4
    b2f4:	05c00044 	movi	r23,1
    b2f8:	003faf06 	br	b1b8 <_gp+0xffff4e9c>
    b2fc:	9806c03a 	cmpne	r3,r19,zero
    b300:	18c00084 	addi	r3,r3,2
    b304:	003fba06 	br	b1f0 <_gp+0xffff4ed4>
    b308:	9800141e 	bne	r19,zero,b35c <__mulsf3+0x210>
    b30c:	00c00044 	movi	r3,1
    b310:	003fb706 	br	b1f0 <_gp+0xffff4ed4>
    b314:	a829883a 	mov	r20,r21
    b318:	00ffffc4 	movi	r3,-1
    b31c:	0009883a 	mov	r4,zero
    b320:	003fdd06 	br	b298 <_gp+0xffff4f7c>
    b324:	9009883a 	mov	r4,r18
    b328:	d9400015 	stw	r5,0(sp)
    b32c:	000c1900 	call	c190 <__clzsi2>
    b330:	10fffec4 	addi	r3,r2,-5
    b334:	10801d84 	addi	r2,r2,118
    b338:	90e4983a 	sll	r18,r18,r3
    b33c:	00a1c83a 	sub	r16,zero,r2
    b340:	0023883a 	mov	r17,zero
    b344:	002f883a 	mov	r23,zero
    b348:	d9400017 	ldw	r5,0(sp)
    b34c:	003f9a06 	br	b1b8 <_gp+0xffff4e9c>
    b350:	04400304 	movi	r17,12
    b354:	05c000c4 	movi	r23,3
    b358:	003f9706 	br	b1b8 <_gp+0xffff4e9c>
    b35c:	9809883a 	mov	r4,r19
    b360:	d9800015 	stw	r6,0(sp)
    b364:	000c1900 	call	c190 <__clzsi2>
    b368:	10fffec4 	addi	r3,r2,-5
    b36c:	10801d84 	addi	r2,r2,118
    b370:	98e6983a 	sll	r19,r19,r3
    b374:	0085c83a 	sub	r2,zero,r2
    b378:	0007883a 	mov	r3,zero
    b37c:	d9800017 	ldw	r6,0(sp)
    b380:	003f9b06 	br	b1f0 <_gp+0xffff4ed4>
    b384:	01002034 	movhi	r4,128
    b388:	0029883a 	mov	r20,zero
    b38c:	213fffc4 	addi	r4,r4,-1
    b390:	00ffffc4 	movi	r3,-1
    b394:	003fc006 	br	b298 <_gp+0xffff4f7c>
    b398:	9027883a 	mov	r19,r18
    b39c:	b807883a 	mov	r3,r23
    b3a0:	003fb406 	br	b274 <_gp+0xffff4f58>
    b3a4:	9027883a 	mov	r19,r18
    b3a8:	e02b883a 	mov	r21,fp
    b3ac:	b807883a 	mov	r3,r23
    b3b0:	003fb006 	br	b274 <_gp+0xffff4f58>
    b3b4:	9028d43a 	srli	r20,r18,16
    b3b8:	982cd43a 	srli	r22,r19,16
    b3bc:	94bfffcc 	andi	r18,r18,65535
    b3c0:	9cffffcc 	andi	r19,r19,65535
    b3c4:	980b883a 	mov	r5,r19
    b3c8:	9009883a 	mov	r4,r18
    b3cc:	d9c00015 	stw	r7,0(sp)
    b3d0:	000ace40 	call	ace4 <__mulsi3>
    b3d4:	a00b883a 	mov	r5,r20
    b3d8:	9809883a 	mov	r4,r19
    b3dc:	1023883a 	mov	r17,r2
    b3e0:	000ace40 	call	ace4 <__mulsi3>
    b3e4:	a009883a 	mov	r4,r20
    b3e8:	b00b883a 	mov	r5,r22
    b3ec:	1027883a 	mov	r19,r2
    b3f0:	000ace40 	call	ace4 <__mulsi3>
    b3f4:	b00b883a 	mov	r5,r22
    b3f8:	9009883a 	mov	r4,r18
    b3fc:	1029883a 	mov	r20,r2
    b400:	000ace40 	call	ace4 <__mulsi3>
    b404:	8806d43a 	srli	r3,r17,16
    b408:	14c5883a 	add	r2,r2,r19
    b40c:	d9c00017 	ldw	r7,0(sp)
    b410:	1885883a 	add	r2,r3,r2
    b414:	14c0022e 	bgeu	r2,r19,b420 <__mulsf3+0x2d4>
    b418:	00c00074 	movhi	r3,1
    b41c:	a0e9883a 	add	r20,r20,r3
    b420:	1026943a 	slli	r19,r2,16
    b424:	8c7fffcc 	andi	r17,r17,65535
    b428:	1004d43a 	srli	r2,r2,16
    b42c:	9c63883a 	add	r17,r19,r17
    b430:	882691ba 	slli	r19,r17,6
    b434:	1505883a 	add	r2,r2,r20
    b438:	8822d6ba 	srli	r17,r17,26
    b43c:	100891ba 	slli	r4,r2,6
    b440:	9826c03a 	cmpne	r19,r19,zero
    b444:	9c62b03a 	or	r17,r19,r17
    b448:	8926b03a 	or	r19,r17,r4
    b44c:	9882002c 	andhi	r2,r19,2048
    b450:	10000426 	beq	r2,zero,b464 <__mulsf3+0x318>
    b454:	9804d07a 	srli	r2,r19,1
    b458:	9900004c 	andi	r4,r19,1
    b45c:	3821883a 	mov	r16,r7
    b460:	1126b03a 	or	r19,r2,r4
    b464:	80c01fc4 	addi	r3,r16,127
    b468:	00c0210e 	bge	zero,r3,b4f0 <__mulsf3+0x3a4>
    b46c:	988001cc 	andi	r2,r19,7
    b470:	10000426 	beq	r2,zero,b484 <__mulsf3+0x338>
    b474:	988003cc 	andi	r2,r19,15
    b478:	01000104 	movi	r4,4
    b47c:	11000126 	beq	r2,r4,b484 <__mulsf3+0x338>
    b480:	9927883a 	add	r19,r19,r4
    b484:	9882002c 	andhi	r2,r19,2048
    b488:	10000426 	beq	r2,zero,b49c <__mulsf3+0x350>
    b48c:	00be0034 	movhi	r2,63488
    b490:	10bfffc4 	addi	r2,r2,-1
    b494:	80c02004 	addi	r3,r16,128
    b498:	98a6703a 	and	r19,r19,r2
    b49c:	00803f84 	movi	r2,254
    b4a0:	10ff9c16 	blt	r2,r3,b314 <_gp+0xffff4ff8>
    b4a4:	980891ba 	slli	r4,r19,6
    b4a8:	a829883a 	mov	r20,r21
    b4ac:	2008d27a 	srli	r4,r4,9
    b4b0:	003f7906 	br	b298 <_gp+0xffff4f7c>
    b4b4:	9080102c 	andhi	r2,r18,64
    b4b8:	10000826 	beq	r2,zero,b4dc <__mulsf3+0x390>
    b4bc:	9880102c 	andhi	r2,r19,64
    b4c0:	1000061e 	bne	r2,zero,b4dc <__mulsf3+0x390>
    b4c4:	00802034 	movhi	r2,128
    b4c8:	99001034 	orhi	r4,r19,64
    b4cc:	10bfffc4 	addi	r2,r2,-1
    b4d0:	b029883a 	mov	r20,r22
    b4d4:	2088703a 	and	r4,r4,r2
    b4d8:	003fad06 	br	b390 <_gp+0xffff5074>
    b4dc:	00802034 	movhi	r2,128
    b4e0:	91001034 	orhi	r4,r18,64
    b4e4:	10bfffc4 	addi	r2,r2,-1
    b4e8:	2088703a 	and	r4,r4,r2
    b4ec:	003fa806 	br	b390 <_gp+0xffff5074>
    b4f0:	00800044 	movi	r2,1
    b4f4:	10c7c83a 	sub	r3,r2,r3
    b4f8:	008006c4 	movi	r2,27
    b4fc:	10ff6316 	blt	r2,r3,b28c <_gp+0xffff4f70>
    b500:	00800804 	movi	r2,32
    b504:	10c5c83a 	sub	r2,r2,r3
    b508:	9884983a 	sll	r2,r19,r2
    b50c:	98c6d83a 	srl	r3,r19,r3
    b510:	1004c03a 	cmpne	r2,r2,zero
    b514:	1884b03a 	or	r2,r3,r2
    b518:	10c001cc 	andi	r3,r2,7
    b51c:	18000426 	beq	r3,zero,b530 <__mulsf3+0x3e4>
    b520:	10c003cc 	andi	r3,r2,15
    b524:	01000104 	movi	r4,4
    b528:	19000126 	beq	r3,r4,b530 <__mulsf3+0x3e4>
    b52c:	1105883a 	add	r2,r2,r4
    b530:	10c1002c 	andhi	r3,r2,1024
    b534:	18000626 	beq	r3,zero,b550 <__mulsf3+0x404>
    b538:	a829883a 	mov	r20,r21
    b53c:	00c00044 	movi	r3,1
    b540:	0009883a 	mov	r4,zero
    b544:	003f5406 	br	b298 <_gp+0xffff4f7c>
    b548:	3821883a 	mov	r16,r7
    b54c:	003fc506 	br	b464 <_gp+0xffff5148>
    b550:	100491ba 	slli	r2,r2,6
    b554:	a829883a 	mov	r20,r21
    b558:	0007883a 	mov	r3,zero
    b55c:	1008d27a 	srli	r4,r2,9
    b560:	003f4d06 	br	b298 <_gp+0xffff4f7c>
    b564:	00802034 	movhi	r2,128
    b568:	99001034 	orhi	r4,r19,64
    b56c:	10bfffc4 	addi	r2,r2,-1
    b570:	a829883a 	mov	r20,r21
    b574:	2088703a 	and	r4,r4,r2
    b578:	003f8506 	br	b390 <_gp+0xffff5074>

0000b57c <__floatunsisf>:
    b57c:	defffe04 	addi	sp,sp,-8
    b580:	dfc00115 	stw	ra,4(sp)
    b584:	dc000015 	stw	r16,0(sp)
    b588:	20002c26 	beq	r4,zero,b63c <__floatunsisf+0xc0>
    b58c:	2021883a 	mov	r16,r4
    b590:	000c1900 	call	c190 <__clzsi2>
    b594:	00c02784 	movi	r3,158
    b598:	1887c83a 	sub	r3,r3,r2
    b59c:	01002584 	movi	r4,150
    b5a0:	20c00f16 	blt	r4,r3,b5e0 <__floatunsisf+0x64>
    b5a4:	20c9c83a 	sub	r4,r4,r3
    b5a8:	8108983a 	sll	r4,r16,r4
    b5ac:	00802034 	movhi	r2,128
    b5b0:	10bfffc4 	addi	r2,r2,-1
    b5b4:	2088703a 	and	r4,r4,r2
    b5b8:	18803fcc 	andi	r2,r3,255
    b5bc:	100695fa 	slli	r3,r2,23
    b5c0:	00802034 	movhi	r2,128
    b5c4:	10bfffc4 	addi	r2,r2,-1
    b5c8:	2084703a 	and	r2,r4,r2
    b5cc:	10c4b03a 	or	r2,r2,r3
    b5d0:	dfc00117 	ldw	ra,4(sp)
    b5d4:	dc000017 	ldw	r16,0(sp)
    b5d8:	dec00204 	addi	sp,sp,8
    b5dc:	f800283a 	ret
    b5e0:	01002644 	movi	r4,153
    b5e4:	20c01816 	blt	r4,r3,b648 <__floatunsisf+0xcc>
    b5e8:	20c9c83a 	sub	r4,r4,r3
    b5ec:	8108983a 	sll	r4,r16,r4
    b5f0:	017f0034 	movhi	r5,64512
    b5f4:	297fffc4 	addi	r5,r5,-1
    b5f8:	218001cc 	andi	r6,r4,7
    b5fc:	214a703a 	and	r5,r4,r5
    b600:	30000426 	beq	r6,zero,b614 <__floatunsisf+0x98>
    b604:	210003cc 	andi	r4,r4,15
    b608:	01800104 	movi	r6,4
    b60c:	21800126 	beq	r4,r6,b614 <__floatunsisf+0x98>
    b610:	298b883a 	add	r5,r5,r6
    b614:	2901002c 	andhi	r4,r5,1024
    b618:	20000526 	beq	r4,zero,b630 <__floatunsisf+0xb4>
    b61c:	00c027c4 	movi	r3,159
    b620:	1887c83a 	sub	r3,r3,r2
    b624:	00bf0034 	movhi	r2,64512
    b628:	10bfffc4 	addi	r2,r2,-1
    b62c:	288a703a 	and	r5,r5,r2
    b630:	280891ba 	slli	r4,r5,6
    b634:	2008d27a 	srli	r4,r4,9
    b638:	003fdf06 	br	b5b8 <_gp+0xffff529c>
    b63c:	0007883a 	mov	r3,zero
    b640:	0009883a 	mov	r4,zero
    b644:	003fdc06 	br	b5b8 <_gp+0xffff529c>
    b648:	01402e44 	movi	r5,185
    b64c:	28cbc83a 	sub	r5,r5,r3
    b650:	01000144 	movi	r4,5
    b654:	2089c83a 	sub	r4,r4,r2
    b658:	814a983a 	sll	r5,r16,r5
    b65c:	8108d83a 	srl	r4,r16,r4
    b660:	2820c03a 	cmpne	r16,r5,zero
    b664:	2408b03a 	or	r4,r4,r16
    b668:	003fe106 	br	b5f0 <_gp+0xffff52d4>

0000b66c <__muldf3>:
    b66c:	deffee04 	addi	sp,sp,-72
    b670:	dd000c15 	stw	r20,48(sp)
    b674:	2828d53a 	srli	r20,r5,20
    b678:	ddc00f15 	stw	r23,60(sp)
    b67c:	282ed7fa 	srli	r23,r5,31
    b680:	dc000815 	stw	r16,32(sp)
    b684:	04000434 	movhi	r16,16
    b688:	dcc00b15 	stw	r19,44(sp)
    b68c:	843fffc4 	addi	r16,r16,-1
    b690:	dfc01115 	stw	ra,68(sp)
    b694:	df001015 	stw	fp,64(sp)
    b698:	dd800e15 	stw	r22,56(sp)
    b69c:	dd400d15 	stw	r21,52(sp)
    b6a0:	dc800a15 	stw	r18,40(sp)
    b6a4:	dc400915 	stw	r17,36(sp)
    b6a8:	a501ffcc 	andi	r20,r20,2047
    b6ac:	2c20703a 	and	r16,r5,r16
    b6b0:	b827883a 	mov	r19,r23
    b6b4:	ba403fcc 	andi	r9,r23,255
    b6b8:	a0006026 	beq	r20,zero,b83c <__muldf3+0x1d0>
    b6bc:	0081ffc4 	movi	r2,2047
    b6c0:	202d883a 	mov	r22,r4
    b6c4:	a0803626 	beq	r20,r2,b7a0 <__muldf3+0x134>
    b6c8:	84000434 	orhi	r16,r16,16
    b6cc:	200ad77a 	srli	r5,r4,29
    b6d0:	800490fa 	slli	r2,r16,3
    b6d4:	202c90fa 	slli	r22,r4,3
    b6d8:	a53f0044 	addi	r20,r20,-1023
    b6dc:	28a0b03a 	or	r16,r5,r2
    b6e0:	002b883a 	mov	r21,zero
    b6e4:	000b883a 	mov	r5,zero
    b6e8:	3804d53a 	srli	r2,r7,20
    b6ec:	3838d7fa 	srli	fp,r7,31
    b6f0:	04400434 	movhi	r17,16
    b6f4:	8c7fffc4 	addi	r17,r17,-1
    b6f8:	1081ffcc 	andi	r2,r2,2047
    b6fc:	3025883a 	mov	r18,r6
    b700:	3c62703a 	and	r17,r7,r17
    b704:	e2803fcc 	andi	r10,fp,255
    b708:	10006d26 	beq	r2,zero,b8c0 <__muldf3+0x254>
    b70c:	00c1ffc4 	movi	r3,2047
    b710:	10c06526 	beq	r2,r3,b8a8 <__muldf3+0x23c>
    b714:	8c400434 	orhi	r17,r17,16
    b718:	300ed77a 	srli	r7,r6,29
    b71c:	880690fa 	slli	r3,r17,3
    b720:	302490fa 	slli	r18,r6,3
    b724:	10bf0044 	addi	r2,r2,-1023
    b728:	38e2b03a 	or	r17,r7,r3
    b72c:	000f883a 	mov	r7,zero
    b730:	a087883a 	add	r3,r20,r2
    b734:	010003c4 	movi	r4,15
    b738:	3d44b03a 	or	r2,r7,r21
    b73c:	e5ccf03a 	xor	r6,fp,r23
    b740:	1a000044 	addi	r8,r3,1
    b744:	20809b36 	bltu	r4,r2,b9b4 <__muldf3+0x348>
    b748:	100490ba 	slli	r2,r2,2
    b74c:	01000074 	movhi	r4,1
    b750:	212dd804 	addi	r4,r4,-18592
    b754:	1105883a 	add	r2,r2,r4
    b758:	10800017 	ldw	r2,0(r2)
    b75c:	1000683a 	jmp	r2
    b760:	0000b9b4 	movhi	zero,742
    b764:	0000b7c0 	call	b7c <__alt_mem_onchip_memory2_0-0x7484>
    b768:	0000b7c0 	call	b7c <__alt_mem_onchip_memory2_0-0x7484>
    b76c:	0000b7bc 	xorhi	zero,zero,734
    b770:	0000b990 	cmplti	zero,zero,742
    b774:	0000b990 	cmplti	zero,zero,742
    b778:	0000b978 	rdprs	zero,zero,741
    b77c:	0000b7bc 	xorhi	zero,zero,734
    b780:	0000b990 	cmplti	zero,zero,742
    b784:	0000b978 	rdprs	zero,zero,741
    b788:	0000b990 	cmplti	zero,zero,742
    b78c:	0000b7bc 	xorhi	zero,zero,734
    b790:	0000b9a0 	cmpeqi	zero,zero,742
    b794:	0000b9a0 	cmpeqi	zero,zero,742
    b798:	0000b9a0 	cmpeqi	zero,zero,742
    b79c:	0000bd00 	call	bd0 <__alt_mem_onchip_memory2_0-0x7430>
    b7a0:	2404b03a 	or	r2,r4,r16
    b7a4:	1000711e 	bne	r2,zero,b96c <__muldf3+0x300>
    b7a8:	05400204 	movi	r21,8
    b7ac:	0021883a 	mov	r16,zero
    b7b0:	002d883a 	mov	r22,zero
    b7b4:	01400084 	movi	r5,2
    b7b8:	003fcb06 	br	b6e8 <_gp+0xffff53cc>
    b7bc:	500d883a 	mov	r6,r10
    b7c0:	00800084 	movi	r2,2
    b7c4:	38805926 	beq	r7,r2,b92c <__muldf3+0x2c0>
    b7c8:	008000c4 	movi	r2,3
    b7cc:	3881bb26 	beq	r7,r2,bebc <__muldf3+0x850>
    b7d0:	00800044 	movi	r2,1
    b7d4:	3881961e 	bne	r7,r2,be30 <__muldf3+0x7c4>
    b7d8:	3027883a 	mov	r19,r6
    b7dc:	0005883a 	mov	r2,zero
    b7e0:	0021883a 	mov	r16,zero
    b7e4:	002d883a 	mov	r22,zero
    b7e8:	1004953a 	slli	r2,r2,20
    b7ec:	98c03fcc 	andi	r3,r19,255
    b7f0:	04400434 	movhi	r17,16
    b7f4:	8c7fffc4 	addi	r17,r17,-1
    b7f8:	180697fa 	slli	r3,r3,31
    b7fc:	8460703a 	and	r16,r16,r17
    b800:	80a0b03a 	or	r16,r16,r2
    b804:	80c6b03a 	or	r3,r16,r3
    b808:	b005883a 	mov	r2,r22
    b80c:	dfc01117 	ldw	ra,68(sp)
    b810:	df001017 	ldw	fp,64(sp)
    b814:	ddc00f17 	ldw	r23,60(sp)
    b818:	dd800e17 	ldw	r22,56(sp)
    b81c:	dd400d17 	ldw	r21,52(sp)
    b820:	dd000c17 	ldw	r20,48(sp)
    b824:	dcc00b17 	ldw	r19,44(sp)
    b828:	dc800a17 	ldw	r18,40(sp)
    b82c:	dc400917 	ldw	r17,36(sp)
    b830:	dc000817 	ldw	r16,32(sp)
    b834:	dec01204 	addi	sp,sp,72
    b838:	f800283a 	ret
    b83c:	2404b03a 	or	r2,r4,r16
    b840:	202b883a 	mov	r21,r4
    b844:	10004426 	beq	r2,zero,b958 <__muldf3+0x2ec>
    b848:	80015126 	beq	r16,zero,bd90 <__muldf3+0x724>
    b84c:	8009883a 	mov	r4,r16
    b850:	d9800715 	stw	r6,28(sp)
    b854:	d9c00215 	stw	r7,8(sp)
    b858:	da400415 	stw	r9,16(sp)
    b85c:	000c1900 	call	c190 <__clzsi2>
    b860:	d9800717 	ldw	r6,28(sp)
    b864:	d9c00217 	ldw	r7,8(sp)
    b868:	da400417 	ldw	r9,16(sp)
    b86c:	113ffd44 	addi	r4,r2,-11
    b870:	00c00704 	movi	r3,28
    b874:	19014216 	blt	r3,r4,bd80 <__muldf3+0x714>
    b878:	00c00744 	movi	r3,29
    b87c:	15bffe04 	addi	r22,r2,-8
    b880:	1907c83a 	sub	r3,r3,r4
    b884:	85a0983a 	sll	r16,r16,r22
    b888:	a8c6d83a 	srl	r3,r21,r3
    b88c:	adac983a 	sll	r22,r21,r22
    b890:	1c20b03a 	or	r16,r3,r16
    b894:	1080fcc4 	addi	r2,r2,1011
    b898:	00a9c83a 	sub	r20,zero,r2
    b89c:	002b883a 	mov	r21,zero
    b8a0:	000b883a 	mov	r5,zero
    b8a4:	003f9006 	br	b6e8 <_gp+0xffff53cc>
    b8a8:	3446b03a 	or	r3,r6,r17
    b8ac:	1800281e 	bne	r3,zero,b950 <__muldf3+0x2e4>
    b8b0:	0023883a 	mov	r17,zero
    b8b4:	0025883a 	mov	r18,zero
    b8b8:	01c00084 	movi	r7,2
    b8bc:	003f9c06 	br	b730 <_gp+0xffff5414>
    b8c0:	3446b03a 	or	r3,r6,r17
    b8c4:	18001e26 	beq	r3,zero,b940 <__muldf3+0x2d4>
    b8c8:	88012126 	beq	r17,zero,bd50 <__muldf3+0x6e4>
    b8cc:	8809883a 	mov	r4,r17
    b8d0:	d9400215 	stw	r5,8(sp)
    b8d4:	d9800715 	stw	r6,28(sp)
    b8d8:	da400415 	stw	r9,16(sp)
    b8dc:	da800315 	stw	r10,12(sp)
    b8e0:	000c1900 	call	c190 <__clzsi2>
    b8e4:	d9400217 	ldw	r5,8(sp)
    b8e8:	d9800717 	ldw	r6,28(sp)
    b8ec:	da400417 	ldw	r9,16(sp)
    b8f0:	da800317 	ldw	r10,12(sp)
    b8f4:	113ffd44 	addi	r4,r2,-11
    b8f8:	00c00704 	movi	r3,28
    b8fc:	19011016 	blt	r3,r4,bd40 <__muldf3+0x6d4>
    b900:	00c00744 	movi	r3,29
    b904:	14bffe04 	addi	r18,r2,-8
    b908:	1907c83a 	sub	r3,r3,r4
    b90c:	8ca2983a 	sll	r17,r17,r18
    b910:	30c6d83a 	srl	r3,r6,r3
    b914:	34a4983a 	sll	r18,r6,r18
    b918:	1c62b03a 	or	r17,r3,r17
    b91c:	1080fcc4 	addi	r2,r2,1011
    b920:	0085c83a 	sub	r2,zero,r2
    b924:	000f883a 	mov	r7,zero
    b928:	003f8106 	br	b730 <_gp+0xffff5414>
    b92c:	3027883a 	mov	r19,r6
    b930:	0081ffc4 	movi	r2,2047
    b934:	0021883a 	mov	r16,zero
    b938:	002d883a 	mov	r22,zero
    b93c:	003faa06 	br	b7e8 <_gp+0xffff54cc>
    b940:	0023883a 	mov	r17,zero
    b944:	0025883a 	mov	r18,zero
    b948:	01c00044 	movi	r7,1
    b94c:	003f7806 	br	b730 <_gp+0xffff5414>
    b950:	01c000c4 	movi	r7,3
    b954:	003f7606 	br	b730 <_gp+0xffff5414>
    b958:	05400104 	movi	r21,4
    b95c:	0021883a 	mov	r16,zero
    b960:	002d883a 	mov	r22,zero
    b964:	01400044 	movi	r5,1
    b968:	003f5f06 	br	b6e8 <_gp+0xffff53cc>
    b96c:	05400304 	movi	r21,12
    b970:	014000c4 	movi	r5,3
    b974:	003f5c06 	br	b6e8 <_gp+0xffff53cc>
    b978:	04000434 	movhi	r16,16
    b97c:	0027883a 	mov	r19,zero
    b980:	843fffc4 	addi	r16,r16,-1
    b984:	05bfffc4 	movi	r22,-1
    b988:	0081ffc4 	movi	r2,2047
    b98c:	003f9606 	br	b7e8 <_gp+0xffff54cc>
    b990:	8023883a 	mov	r17,r16
    b994:	b025883a 	mov	r18,r22
    b998:	280f883a 	mov	r7,r5
    b99c:	003f8806 	br	b7c0 <_gp+0xffff54a4>
    b9a0:	8023883a 	mov	r17,r16
    b9a4:	b025883a 	mov	r18,r22
    b9a8:	480d883a 	mov	r6,r9
    b9ac:	280f883a 	mov	r7,r5
    b9b0:	003f8306 	br	b7c0 <_gp+0xffff54a4>
    b9b4:	b026d43a 	srli	r19,r22,16
    b9b8:	902ed43a 	srli	r23,r18,16
    b9bc:	b5bfffcc 	andi	r22,r22,65535
    b9c0:	94bfffcc 	andi	r18,r18,65535
    b9c4:	b00b883a 	mov	r5,r22
    b9c8:	9009883a 	mov	r4,r18
    b9cc:	d8c00515 	stw	r3,20(sp)
    b9d0:	d9800715 	stw	r6,28(sp)
    b9d4:	da000615 	stw	r8,24(sp)
    b9d8:	000ace40 	call	ace4 <__mulsi3>
    b9dc:	980b883a 	mov	r5,r19
    b9e0:	9009883a 	mov	r4,r18
    b9e4:	1029883a 	mov	r20,r2
    b9e8:	000ace40 	call	ace4 <__mulsi3>
    b9ec:	b80b883a 	mov	r5,r23
    b9f0:	9809883a 	mov	r4,r19
    b9f4:	102b883a 	mov	r21,r2
    b9f8:	000ace40 	call	ace4 <__mulsi3>
    b9fc:	b809883a 	mov	r4,r23
    ba00:	b00b883a 	mov	r5,r22
    ba04:	1039883a 	mov	fp,r2
    ba08:	000ace40 	call	ace4 <__mulsi3>
    ba0c:	a008d43a 	srli	r4,r20,16
    ba10:	1545883a 	add	r2,r2,r21
    ba14:	d8c00517 	ldw	r3,20(sp)
    ba18:	2085883a 	add	r2,r4,r2
    ba1c:	d9800717 	ldw	r6,28(sp)
    ba20:	da000617 	ldw	r8,24(sp)
    ba24:	1540022e 	bgeu	r2,r21,ba30 <__muldf3+0x3c4>
    ba28:	01000074 	movhi	r4,1
    ba2c:	e139883a 	add	fp,fp,r4
    ba30:	100e943a 	slli	r7,r2,16
    ba34:	1004d43a 	srli	r2,r2,16
    ba38:	882ad43a 	srli	r21,r17,16
    ba3c:	a53fffcc 	andi	r20,r20,65535
    ba40:	8c7fffcc 	andi	r17,r17,65535
    ba44:	3d29883a 	add	r20,r7,r20
    ba48:	b00b883a 	mov	r5,r22
    ba4c:	8809883a 	mov	r4,r17
    ba50:	d8c00515 	stw	r3,20(sp)
    ba54:	d9800715 	stw	r6,28(sp)
    ba58:	da000615 	stw	r8,24(sp)
    ba5c:	dd000115 	stw	r20,4(sp)
    ba60:	d8800015 	stw	r2,0(sp)
    ba64:	000ace40 	call	ace4 <__mulsi3>
    ba68:	980b883a 	mov	r5,r19
    ba6c:	8809883a 	mov	r4,r17
    ba70:	d8800215 	stw	r2,8(sp)
    ba74:	000ace40 	call	ace4 <__mulsi3>
    ba78:	9809883a 	mov	r4,r19
    ba7c:	a80b883a 	mov	r5,r21
    ba80:	1029883a 	mov	r20,r2
    ba84:	000ace40 	call	ace4 <__mulsi3>
    ba88:	b00b883a 	mov	r5,r22
    ba8c:	a809883a 	mov	r4,r21
    ba90:	d8800415 	stw	r2,16(sp)
    ba94:	000ace40 	call	ace4 <__mulsi3>
    ba98:	d9c00217 	ldw	r7,8(sp)
    ba9c:	1505883a 	add	r2,r2,r20
    baa0:	d8c00517 	ldw	r3,20(sp)
    baa4:	3826d43a 	srli	r19,r7,16
    baa8:	d9800717 	ldw	r6,28(sp)
    baac:	da000617 	ldw	r8,24(sp)
    bab0:	9885883a 	add	r2,r19,r2
    bab4:	da400417 	ldw	r9,16(sp)
    bab8:	1500022e 	bgeu	r2,r20,bac4 <__muldf3+0x458>
    babc:	01000074 	movhi	r4,1
    bac0:	4913883a 	add	r9,r9,r4
    bac4:	1028d43a 	srli	r20,r2,16
    bac8:	1004943a 	slli	r2,r2,16
    bacc:	802cd43a 	srli	r22,r16,16
    bad0:	843fffcc 	andi	r16,r16,65535
    bad4:	3cffffcc 	andi	r19,r7,65535
    bad8:	9009883a 	mov	r4,r18
    badc:	800b883a 	mov	r5,r16
    bae0:	a269883a 	add	r20,r20,r9
    bae4:	d8c00515 	stw	r3,20(sp)
    bae8:	d9800715 	stw	r6,28(sp)
    baec:	da000615 	stw	r8,24(sp)
    baf0:	14e7883a 	add	r19,r2,r19
    baf4:	000ace40 	call	ace4 <__mulsi3>
    baf8:	9009883a 	mov	r4,r18
    bafc:	b00b883a 	mov	r5,r22
    bb00:	d8800315 	stw	r2,12(sp)
    bb04:	000ace40 	call	ace4 <__mulsi3>
    bb08:	b809883a 	mov	r4,r23
    bb0c:	b00b883a 	mov	r5,r22
    bb10:	d8800215 	stw	r2,8(sp)
    bb14:	000ace40 	call	ace4 <__mulsi3>
    bb18:	b80b883a 	mov	r5,r23
    bb1c:	8009883a 	mov	r4,r16
    bb20:	d8800415 	stw	r2,16(sp)
    bb24:	000ace40 	call	ace4 <__mulsi3>
    bb28:	da800317 	ldw	r10,12(sp)
    bb2c:	d9c00217 	ldw	r7,8(sp)
    bb30:	d9000017 	ldw	r4,0(sp)
    bb34:	502ed43a 	srli	r23,r10,16
    bb38:	11c5883a 	add	r2,r2,r7
    bb3c:	24e5883a 	add	r18,r4,r19
    bb40:	b885883a 	add	r2,r23,r2
    bb44:	d8c00517 	ldw	r3,20(sp)
    bb48:	d9800717 	ldw	r6,28(sp)
    bb4c:	da000617 	ldw	r8,24(sp)
    bb50:	da400417 	ldw	r9,16(sp)
    bb54:	11c0022e 	bgeu	r2,r7,bb60 <__muldf3+0x4f4>
    bb58:	01000074 	movhi	r4,1
    bb5c:	4913883a 	add	r9,r9,r4
    bb60:	100ed43a 	srli	r7,r2,16
    bb64:	1004943a 	slli	r2,r2,16
    bb68:	55ffffcc 	andi	r23,r10,65535
    bb6c:	3a53883a 	add	r9,r7,r9
    bb70:	8809883a 	mov	r4,r17
    bb74:	800b883a 	mov	r5,r16
    bb78:	d8c00515 	stw	r3,20(sp)
    bb7c:	d9800715 	stw	r6,28(sp)
    bb80:	da000615 	stw	r8,24(sp)
    bb84:	da400415 	stw	r9,16(sp)
    bb88:	15ef883a 	add	r23,r2,r23
    bb8c:	000ace40 	call	ace4 <__mulsi3>
    bb90:	8809883a 	mov	r4,r17
    bb94:	b00b883a 	mov	r5,r22
    bb98:	d8800215 	stw	r2,8(sp)
    bb9c:	000ace40 	call	ace4 <__mulsi3>
    bba0:	b00b883a 	mov	r5,r22
    bba4:	a809883a 	mov	r4,r21
    bba8:	d8800315 	stw	r2,12(sp)
    bbac:	000ace40 	call	ace4 <__mulsi3>
    bbb0:	8009883a 	mov	r4,r16
    bbb4:	a80b883a 	mov	r5,r21
    bbb8:	1023883a 	mov	r17,r2
    bbbc:	000ace40 	call	ace4 <__mulsi3>
    bbc0:	d9c00217 	ldw	r7,8(sp)
    bbc4:	da800317 	ldw	r10,12(sp)
    bbc8:	d8c00517 	ldw	r3,20(sp)
    bbcc:	3808d43a 	srli	r4,r7,16
    bbd0:	1285883a 	add	r2,r2,r10
    bbd4:	d9800717 	ldw	r6,28(sp)
    bbd8:	2085883a 	add	r2,r4,r2
    bbdc:	da000617 	ldw	r8,24(sp)
    bbe0:	da400417 	ldw	r9,16(sp)
    bbe4:	1280022e 	bgeu	r2,r10,bbf0 <__muldf3+0x584>
    bbe8:	01000074 	movhi	r4,1
    bbec:	8923883a 	add	r17,r17,r4
    bbf0:	1008943a 	slli	r4,r2,16
    bbf4:	39ffffcc 	andi	r7,r7,65535
    bbf8:	e4b9883a 	add	fp,fp,r18
    bbfc:	21cf883a 	add	r7,r4,r7
    bc00:	e4e7803a 	cmpltu	r19,fp,r19
    bc04:	3d0f883a 	add	r7,r7,r20
    bc08:	bf39883a 	add	fp,r23,fp
    bc0c:	99c9883a 	add	r4,r19,r7
    bc10:	e5ef803a 	cmpltu	r23,fp,r23
    bc14:	490b883a 	add	r5,r9,r4
    bc18:	1004d43a 	srli	r2,r2,16
    bc1c:	b965883a 	add	r18,r23,r5
    bc20:	24c9803a 	cmpltu	r4,r4,r19
    bc24:	3d29803a 	cmpltu	r20,r7,r20
    bc28:	a128b03a 	or	r20,r20,r4
    bc2c:	95ef803a 	cmpltu	r23,r18,r23
    bc30:	2a53803a 	cmpltu	r9,r5,r9
    bc34:	a0a9883a 	add	r20,r20,r2
    bc38:	4deeb03a 	or	r23,r9,r23
    bc3c:	a5ef883a 	add	r23,r20,r23
    bc40:	bc63883a 	add	r17,r23,r17
    bc44:	e004927a 	slli	r2,fp,9
    bc48:	d9000117 	ldw	r4,4(sp)
    bc4c:	882e927a 	slli	r23,r17,9
    bc50:	9022d5fa 	srli	r17,r18,23
    bc54:	e038d5fa 	srli	fp,fp,23
    bc58:	1104b03a 	or	r2,r2,r4
    bc5c:	9024927a 	slli	r18,r18,9
    bc60:	1004c03a 	cmpne	r2,r2,zero
    bc64:	bc62b03a 	or	r17,r23,r17
    bc68:	1738b03a 	or	fp,r2,fp
    bc6c:	8880402c 	andhi	r2,r17,256
    bc70:	e4a4b03a 	or	r18,fp,r18
    bc74:	10000726 	beq	r2,zero,bc94 <__muldf3+0x628>
    bc78:	9006d07a 	srli	r3,r18,1
    bc7c:	880497fa 	slli	r2,r17,31
    bc80:	9480004c 	andi	r18,r18,1
    bc84:	8822d07a 	srli	r17,r17,1
    bc88:	1ca4b03a 	or	r18,r3,r18
    bc8c:	14a4b03a 	or	r18,r2,r18
    bc90:	4007883a 	mov	r3,r8
    bc94:	1880ffc4 	addi	r2,r3,1023
    bc98:	0080460e 	bge	zero,r2,bdb4 <__muldf3+0x748>
    bc9c:	910001cc 	andi	r4,r18,7
    bca0:	20000726 	beq	r4,zero,bcc0 <__muldf3+0x654>
    bca4:	910003cc 	andi	r4,r18,15
    bca8:	01400104 	movi	r5,4
    bcac:	21400426 	beq	r4,r5,bcc0 <__muldf3+0x654>
    bcb0:	9149883a 	add	r4,r18,r5
    bcb4:	24a5803a 	cmpltu	r18,r4,r18
    bcb8:	8ca3883a 	add	r17,r17,r18
    bcbc:	2025883a 	mov	r18,r4
    bcc0:	8900402c 	andhi	r4,r17,256
    bcc4:	20000426 	beq	r4,zero,bcd8 <__muldf3+0x66c>
    bcc8:	18810004 	addi	r2,r3,1024
    bccc:	00ffc034 	movhi	r3,65280
    bcd0:	18ffffc4 	addi	r3,r3,-1
    bcd4:	88e2703a 	and	r17,r17,r3
    bcd8:	00c1ff84 	movi	r3,2046
    bcdc:	18bf1316 	blt	r3,r2,b92c <_gp+0xffff5610>
    bce0:	882c977a 	slli	r22,r17,29
    bce4:	9024d0fa 	srli	r18,r18,3
    bce8:	8822927a 	slli	r17,r17,9
    bcec:	1081ffcc 	andi	r2,r2,2047
    bcf0:	b4acb03a 	or	r22,r22,r18
    bcf4:	8820d33a 	srli	r16,r17,12
    bcf8:	3027883a 	mov	r19,r6
    bcfc:	003eba06 	br	b7e8 <_gp+0xffff54cc>
    bd00:	8080022c 	andhi	r2,r16,8
    bd04:	10000926 	beq	r2,zero,bd2c <__muldf3+0x6c0>
    bd08:	8880022c 	andhi	r2,r17,8
    bd0c:	1000071e 	bne	r2,zero,bd2c <__muldf3+0x6c0>
    bd10:	00800434 	movhi	r2,16
    bd14:	8c000234 	orhi	r16,r17,8
    bd18:	10bfffc4 	addi	r2,r2,-1
    bd1c:	e027883a 	mov	r19,fp
    bd20:	80a0703a 	and	r16,r16,r2
    bd24:	902d883a 	mov	r22,r18
    bd28:	003f1706 	br	b988 <_gp+0xffff566c>
    bd2c:	00800434 	movhi	r2,16
    bd30:	84000234 	orhi	r16,r16,8
    bd34:	10bfffc4 	addi	r2,r2,-1
    bd38:	80a0703a 	and	r16,r16,r2
    bd3c:	003f1206 	br	b988 <_gp+0xffff566c>
    bd40:	147ff604 	addi	r17,r2,-40
    bd44:	3462983a 	sll	r17,r6,r17
    bd48:	0025883a 	mov	r18,zero
    bd4c:	003ef306 	br	b91c <_gp+0xffff5600>
    bd50:	3009883a 	mov	r4,r6
    bd54:	d9400215 	stw	r5,8(sp)
    bd58:	d9800715 	stw	r6,28(sp)
    bd5c:	da400415 	stw	r9,16(sp)
    bd60:	da800315 	stw	r10,12(sp)
    bd64:	000c1900 	call	c190 <__clzsi2>
    bd68:	10800804 	addi	r2,r2,32
    bd6c:	da800317 	ldw	r10,12(sp)
    bd70:	da400417 	ldw	r9,16(sp)
    bd74:	d9800717 	ldw	r6,28(sp)
    bd78:	d9400217 	ldw	r5,8(sp)
    bd7c:	003edd06 	br	b8f4 <_gp+0xffff55d8>
    bd80:	143ff604 	addi	r16,r2,-40
    bd84:	ac20983a 	sll	r16,r21,r16
    bd88:	002d883a 	mov	r22,zero
    bd8c:	003ec106 	br	b894 <_gp+0xffff5578>
    bd90:	d9800715 	stw	r6,28(sp)
    bd94:	d9c00215 	stw	r7,8(sp)
    bd98:	da400415 	stw	r9,16(sp)
    bd9c:	000c1900 	call	c190 <__clzsi2>
    bda0:	10800804 	addi	r2,r2,32
    bda4:	da400417 	ldw	r9,16(sp)
    bda8:	d9c00217 	ldw	r7,8(sp)
    bdac:	d9800717 	ldw	r6,28(sp)
    bdb0:	003eae06 	br	b86c <_gp+0xffff5550>
    bdb4:	00c00044 	movi	r3,1
    bdb8:	1887c83a 	sub	r3,r3,r2
    bdbc:	01000e04 	movi	r4,56
    bdc0:	20fe8516 	blt	r4,r3,b7d8 <_gp+0xffff54bc>
    bdc4:	010007c4 	movi	r4,31
    bdc8:	20c01b16 	blt	r4,r3,be38 <__muldf3+0x7cc>
    bdcc:	00800804 	movi	r2,32
    bdd0:	10c5c83a 	sub	r2,r2,r3
    bdd4:	888a983a 	sll	r5,r17,r2
    bdd8:	90c8d83a 	srl	r4,r18,r3
    bddc:	9084983a 	sll	r2,r18,r2
    bde0:	88e2d83a 	srl	r17,r17,r3
    bde4:	2906b03a 	or	r3,r5,r4
    bde8:	1004c03a 	cmpne	r2,r2,zero
    bdec:	1886b03a 	or	r3,r3,r2
    bdf0:	188001cc 	andi	r2,r3,7
    bdf4:	10000726 	beq	r2,zero,be14 <__muldf3+0x7a8>
    bdf8:	188003cc 	andi	r2,r3,15
    bdfc:	01000104 	movi	r4,4
    be00:	11000426 	beq	r2,r4,be14 <__muldf3+0x7a8>
    be04:	1805883a 	mov	r2,r3
    be08:	10c00104 	addi	r3,r2,4
    be0c:	1885803a 	cmpltu	r2,r3,r2
    be10:	88a3883a 	add	r17,r17,r2
    be14:	8880202c 	andhi	r2,r17,128
    be18:	10001c26 	beq	r2,zero,be8c <__muldf3+0x820>
    be1c:	3027883a 	mov	r19,r6
    be20:	00800044 	movi	r2,1
    be24:	0021883a 	mov	r16,zero
    be28:	002d883a 	mov	r22,zero
    be2c:	003e6e06 	br	b7e8 <_gp+0xffff54cc>
    be30:	4007883a 	mov	r3,r8
    be34:	003f9706 	br	bc94 <_gp+0xffff5978>
    be38:	017ff844 	movi	r5,-31
    be3c:	2885c83a 	sub	r2,r5,r2
    be40:	888ad83a 	srl	r5,r17,r2
    be44:	00800804 	movi	r2,32
    be48:	18801a26 	beq	r3,r2,beb4 <__muldf3+0x848>
    be4c:	01001004 	movi	r4,64
    be50:	20c7c83a 	sub	r3,r4,r3
    be54:	88e2983a 	sll	r17,r17,r3
    be58:	8ca4b03a 	or	r18,r17,r18
    be5c:	9004c03a 	cmpne	r2,r18,zero
    be60:	2884b03a 	or	r2,r5,r2
    be64:	144001cc 	andi	r17,r2,7
    be68:	88000d1e 	bne	r17,zero,bea0 <__muldf3+0x834>
    be6c:	0021883a 	mov	r16,zero
    be70:	102cd0fa 	srli	r22,r2,3
    be74:	3027883a 	mov	r19,r6
    be78:	0005883a 	mov	r2,zero
    be7c:	b46cb03a 	or	r22,r22,r17
    be80:	003e5906 	br	b7e8 <_gp+0xffff54cc>
    be84:	1007883a 	mov	r3,r2
    be88:	0023883a 	mov	r17,zero
    be8c:	8820927a 	slli	r16,r17,9
    be90:	1805883a 	mov	r2,r3
    be94:	8822977a 	slli	r17,r17,29
    be98:	8020d33a 	srli	r16,r16,12
    be9c:	003ff406 	br	be70 <_gp+0xffff5b54>
    bea0:	10c003cc 	andi	r3,r2,15
    bea4:	01000104 	movi	r4,4
    bea8:	193ff626 	beq	r3,r4,be84 <_gp+0xffff5b68>
    beac:	0023883a 	mov	r17,zero
    beb0:	003fd506 	br	be08 <_gp+0xffff5aec>
    beb4:	0023883a 	mov	r17,zero
    beb8:	003fe706 	br	be58 <_gp+0xffff5b3c>
    bebc:	00800434 	movhi	r2,16
    bec0:	8c000234 	orhi	r16,r17,8
    bec4:	10bfffc4 	addi	r2,r2,-1
    bec8:	3027883a 	mov	r19,r6
    becc:	80a0703a 	and	r16,r16,r2
    bed0:	902d883a 	mov	r22,r18
    bed4:	003eac06 	br	b988 <_gp+0xffff566c>

0000bed8 <__extendsfdf2>:
    bed8:	200ad5fa 	srli	r5,r4,23
    bedc:	defffd04 	addi	sp,sp,-12
    bee0:	dc400115 	stw	r17,4(sp)
    bee4:	29403fcc 	andi	r5,r5,255
    bee8:	29800044 	addi	r6,r5,1
    beec:	04402034 	movhi	r17,128
    bef0:	dc000015 	stw	r16,0(sp)
    bef4:	8c7fffc4 	addi	r17,r17,-1
    bef8:	dfc00215 	stw	ra,8(sp)
    befc:	31803fcc 	andi	r6,r6,255
    bf00:	00800044 	movi	r2,1
    bf04:	8922703a 	and	r17,r17,r4
    bf08:	2020d7fa 	srli	r16,r4,31
    bf0c:	1180110e 	bge	r2,r6,bf54 <__extendsfdf2+0x7c>
    bf10:	880cd0fa 	srli	r6,r17,3
    bf14:	8822977a 	slli	r17,r17,29
    bf18:	2940e004 	addi	r5,r5,896
    bf1c:	2941ffcc 	andi	r5,r5,2047
    bf20:	2804953a 	slli	r2,r5,20
    bf24:	01400434 	movhi	r5,16
    bf28:	800697fa 	slli	r3,r16,31
    bf2c:	297fffc4 	addi	r5,r5,-1
    bf30:	314a703a 	and	r5,r6,r5
    bf34:	288ab03a 	or	r5,r5,r2
    bf38:	28c6b03a 	or	r3,r5,r3
    bf3c:	8805883a 	mov	r2,r17
    bf40:	dfc00217 	ldw	ra,8(sp)
    bf44:	dc400117 	ldw	r17,4(sp)
    bf48:	dc000017 	ldw	r16,0(sp)
    bf4c:	dec00304 	addi	sp,sp,12
    bf50:	f800283a 	ret
    bf54:	2800111e 	bne	r5,zero,bf9c <__extendsfdf2+0xc4>
    bf58:	88001c26 	beq	r17,zero,bfcc <__extendsfdf2+0xf4>
    bf5c:	8809883a 	mov	r4,r17
    bf60:	000c1900 	call	c190 <__clzsi2>
    bf64:	00c00284 	movi	r3,10
    bf68:	18801b16 	blt	r3,r2,bfd8 <__extendsfdf2+0x100>
    bf6c:	018002c4 	movi	r6,11
    bf70:	308dc83a 	sub	r6,r6,r2
    bf74:	11000544 	addi	r4,r2,21
    bf78:	8986d83a 	srl	r3,r17,r6
    bf7c:	8922983a 	sll	r17,r17,r4
    bf80:	0180e244 	movi	r6,905
    bf84:	01400434 	movhi	r5,16
    bf88:	3085c83a 	sub	r2,r6,r2
    bf8c:	297fffc4 	addi	r5,r5,-1
    bf90:	194c703a 	and	r6,r3,r5
    bf94:	1141ffcc 	andi	r5,r2,2047
    bf98:	003fe006 	br	bf1c <_gp+0xffff5c00>
    bf9c:	88000826 	beq	r17,zero,bfc0 <__extendsfdf2+0xe8>
    bfa0:	880cd0fa 	srli	r6,r17,3
    bfa4:	00800434 	movhi	r2,16
    bfa8:	10bfffc4 	addi	r2,r2,-1
    bfac:	31800234 	orhi	r6,r6,8
    bfb0:	8822977a 	slli	r17,r17,29
    bfb4:	308c703a 	and	r6,r6,r2
    bfb8:	0141ffc4 	movi	r5,2047
    bfbc:	003fd706 	br	bf1c <_gp+0xffff5c00>
    bfc0:	0141ffc4 	movi	r5,2047
    bfc4:	000d883a 	mov	r6,zero
    bfc8:	003fd406 	br	bf1c <_gp+0xffff5c00>
    bfcc:	000b883a 	mov	r5,zero
    bfd0:	000d883a 	mov	r6,zero
    bfd4:	003fd106 	br	bf1c <_gp+0xffff5c00>
    bfd8:	11bffd44 	addi	r6,r2,-11
    bfdc:	8986983a 	sll	r3,r17,r6
    bfe0:	0023883a 	mov	r17,zero
    bfe4:	003fe606 	br	bf80 <_gp+0xffff5c64>

0000bfe8 <__truncdfsf2>:
    bfe8:	2810d53a 	srli	r8,r5,20
    bfec:	01c00434 	movhi	r7,16
    bff0:	39ffffc4 	addi	r7,r7,-1
    bff4:	29ce703a 	and	r7,r5,r7
    bff8:	4201ffcc 	andi	r8,r8,2047
    bffc:	380e90fa 	slli	r7,r7,3
    c000:	200cd77a 	srli	r6,r4,29
    c004:	42400044 	addi	r9,r8,1
    c008:	4a41ffcc 	andi	r9,r9,2047
    c00c:	00c00044 	movi	r3,1
    c010:	280ad7fa 	srli	r5,r5,31
    c014:	31ceb03a 	or	r7,r6,r7
    c018:	200490fa 	slli	r2,r4,3
    c01c:	1a40230e 	bge	r3,r9,c0ac <__truncdfsf2+0xc4>
    c020:	40ff2004 	addi	r3,r8,-896
    c024:	01803f84 	movi	r6,254
    c028:	30c01516 	blt	r6,r3,c080 <__truncdfsf2+0x98>
    c02c:	00c0380e 	bge	zero,r3,c110 <__truncdfsf2+0x128>
    c030:	200c91ba 	slli	r6,r4,6
    c034:	380e90fa 	slli	r7,r7,3
    c038:	1004d77a 	srli	r2,r2,29
    c03c:	300cc03a 	cmpne	r6,r6,zero
    c040:	31ccb03a 	or	r6,r6,r7
    c044:	308cb03a 	or	r6,r6,r2
    c048:	308001cc 	andi	r2,r6,7
    c04c:	10000426 	beq	r2,zero,c060 <__truncdfsf2+0x78>
    c050:	308003cc 	andi	r2,r6,15
    c054:	01000104 	movi	r4,4
    c058:	11000126 	beq	r2,r4,c060 <__truncdfsf2+0x78>
    c05c:	31800104 	addi	r6,r6,4
    c060:	3081002c 	andhi	r2,r6,1024
    c064:	10001626 	beq	r2,zero,c0c0 <__truncdfsf2+0xd8>
    c068:	18c00044 	addi	r3,r3,1
    c06c:	00803fc4 	movi	r2,255
    c070:	18800326 	beq	r3,r2,c080 <__truncdfsf2+0x98>
    c074:	300c91ba 	slli	r6,r6,6
    c078:	300cd27a 	srli	r6,r6,9
    c07c:	00000206 	br	c088 <__truncdfsf2+0xa0>
    c080:	00ffffc4 	movi	r3,-1
    c084:	000d883a 	mov	r6,zero
    c088:	18c03fcc 	andi	r3,r3,255
    c08c:	180895fa 	slli	r4,r3,23
    c090:	00c02034 	movhi	r3,128
    c094:	280a97fa 	slli	r5,r5,31
    c098:	18ffffc4 	addi	r3,r3,-1
    c09c:	30c6703a 	and	r3,r6,r3
    c0a0:	1906b03a 	or	r3,r3,r4
    c0a4:	1944b03a 	or	r2,r3,r5
    c0a8:	f800283a 	ret
    c0ac:	40000b1e 	bne	r8,zero,c0dc <__truncdfsf2+0xf4>
    c0b0:	388cb03a 	or	r6,r7,r2
    c0b4:	0007883a 	mov	r3,zero
    c0b8:	30000426 	beq	r6,zero,c0cc <__truncdfsf2+0xe4>
    c0bc:	01800144 	movi	r6,5
    c0c0:	00803fc4 	movi	r2,255
    c0c4:	300cd0fa 	srli	r6,r6,3
    c0c8:	18800a26 	beq	r3,r2,c0f4 <__truncdfsf2+0x10c>
    c0cc:	00802034 	movhi	r2,128
    c0d0:	10bfffc4 	addi	r2,r2,-1
    c0d4:	308c703a 	and	r6,r6,r2
    c0d8:	003feb06 	br	c088 <_gp+0xffff5d6c>
    c0dc:	3888b03a 	or	r4,r7,r2
    c0e0:	203fe726 	beq	r4,zero,c080 <_gp+0xffff5d64>
    c0e4:	380c90fa 	slli	r6,r7,3
    c0e8:	00c03fc4 	movi	r3,255
    c0ec:	31808034 	orhi	r6,r6,512
    c0f0:	003fd506 	br	c048 <_gp+0xffff5d2c>
    c0f4:	303fe226 	beq	r6,zero,c080 <_gp+0xffff5d64>
    c0f8:	00802034 	movhi	r2,128
    c0fc:	31801034 	orhi	r6,r6,64
    c100:	10bfffc4 	addi	r2,r2,-1
    c104:	00ffffc4 	movi	r3,-1
    c108:	308c703a 	and	r6,r6,r2
    c10c:	003fde06 	br	c088 <_gp+0xffff5d6c>
    c110:	013ffa44 	movi	r4,-23
    c114:	19000e16 	blt	r3,r4,c150 <__truncdfsf2+0x168>
    c118:	01000784 	movi	r4,30
    c11c:	20c9c83a 	sub	r4,r4,r3
    c120:	018007c4 	movi	r6,31
    c124:	39c02034 	orhi	r7,r7,128
    c128:	31000b16 	blt	r6,r4,c158 <__truncdfsf2+0x170>
    c12c:	423f2084 	addi	r8,r8,-894
    c130:	120c983a 	sll	r6,r2,r8
    c134:	3a0e983a 	sll	r7,r7,r8
    c138:	1104d83a 	srl	r2,r2,r4
    c13c:	300cc03a 	cmpne	r6,r6,zero
    c140:	31ceb03a 	or	r7,r6,r7
    c144:	388cb03a 	or	r6,r7,r2
    c148:	0007883a 	mov	r3,zero
    c14c:	003fbe06 	br	c048 <_gp+0xffff5d2c>
    c150:	0007883a 	mov	r3,zero
    c154:	003fd906 	br	c0bc <_gp+0xffff5da0>
    c158:	01bfff84 	movi	r6,-2
    c15c:	30cdc83a 	sub	r6,r6,r3
    c160:	00c00804 	movi	r3,32
    c164:	398cd83a 	srl	r6,r7,r6
    c168:	20c00726 	beq	r4,r3,c188 <__truncdfsf2+0x1a0>
    c16c:	423f2884 	addi	r8,r8,-862
    c170:	3a0e983a 	sll	r7,r7,r8
    c174:	3884b03a 	or	r2,r7,r2
    c178:	1004c03a 	cmpne	r2,r2,zero
    c17c:	118cb03a 	or	r6,r2,r6
    c180:	0007883a 	mov	r3,zero
    c184:	003fb006 	br	c048 <_gp+0xffff5d2c>
    c188:	000f883a 	mov	r7,zero
    c18c:	003ff906 	br	c174 <_gp+0xffff5e58>

0000c190 <__clzsi2>:
    c190:	00bfffd4 	movui	r2,65535
    c194:	11000536 	bltu	r2,r4,c1ac <__clzsi2+0x1c>
    c198:	00803fc4 	movi	r2,255
    c19c:	11000f36 	bltu	r2,r4,c1dc <__clzsi2+0x4c>
    c1a0:	00800804 	movi	r2,32
    c1a4:	0007883a 	mov	r3,zero
    c1a8:	00000506 	br	c1c0 <__clzsi2+0x30>
    c1ac:	00804034 	movhi	r2,256
    c1b0:	10bfffc4 	addi	r2,r2,-1
    c1b4:	11000c2e 	bgeu	r2,r4,c1e8 <__clzsi2+0x58>
    c1b8:	00800204 	movi	r2,8
    c1bc:	00c00604 	movi	r3,24
    c1c0:	20c8d83a 	srl	r4,r4,r3
    c1c4:	00c00074 	movhi	r3,1
    c1c8:	18f7aec4 	addi	r3,r3,-8517
    c1cc:	1909883a 	add	r4,r3,r4
    c1d0:	20c00003 	ldbu	r3,0(r4)
    c1d4:	10c5c83a 	sub	r2,r2,r3
    c1d8:	f800283a 	ret
    c1dc:	00800604 	movi	r2,24
    c1e0:	00c00204 	movi	r3,8
    c1e4:	003ff606 	br	c1c0 <_gp+0xffff5ea4>
    c1e8:	00800404 	movi	r2,16
    c1ec:	1007883a 	mov	r3,r2
    c1f0:	003ff306 	br	c1c0 <_gp+0xffff5ea4>

0000c1f4 <malloc>:
    c1f4:	00800074 	movhi	r2,1
    c1f8:	10b8c904 	addi	r2,r2,-7388
    c1fc:	200b883a 	mov	r5,r4
    c200:	11000017 	ldw	r4,0(r2)
    c204:	000c3481 	jmpi	c348 <_malloc_r>

0000c208 <free>:
    c208:	00800074 	movhi	r2,1
    c20c:	10b8c904 	addi	r2,r2,-7388
    c210:	200b883a 	mov	r5,r4
    c214:	11000017 	ldw	r4,0(r2)
    c218:	000c2641 	jmpi	c264 <_free_r>

0000c21c <memcpy>:
    c21c:	2005883a 	mov	r2,r4
    c220:	2007883a 	mov	r3,r4
    c224:	218d883a 	add	r6,r4,r6
    c228:	19800526 	beq	r3,r6,c240 <memcpy+0x24>
    c22c:	29000003 	ldbu	r4,0(r5)
    c230:	18c00044 	addi	r3,r3,1
    c234:	29400044 	addi	r5,r5,1
    c238:	193fffc5 	stb	r4,-1(r3)
    c23c:	003ffa06 	br	c228 <_gp+0xffff5f0c>
    c240:	f800283a 	ret

0000c244 <memset>:
    c244:	2005883a 	mov	r2,r4
    c248:	2007883a 	mov	r3,r4
    c24c:	218d883a 	add	r6,r4,r6
    c250:	19800326 	beq	r3,r6,c260 <memset+0x1c>
    c254:	19400005 	stb	r5,0(r3)
    c258:	18c00044 	addi	r3,r3,1
    c25c:	003ffc06 	br	c250 <_gp+0xffff5f34>
    c260:	f800283a 	ret

0000c264 <_free_r>:
    c264:	28003726 	beq	r5,zero,c344 <_free_r+0xe0>
    c268:	28ffff17 	ldw	r3,-4(r5)
    c26c:	28bfff04 	addi	r2,r5,-4
    c270:	1800010e 	bge	r3,zero,c278 <_free_r+0x14>
    c274:	10c5883a 	add	r2,r2,r3
    c278:	01400074 	movhi	r5,1
    c27c:	29791004 	addi	r5,r5,-7104
    c280:	28c00017 	ldw	r3,0(r5)
    c284:	280d883a 	mov	r6,r5
    c288:	1800031e 	bne	r3,zero,c298 <_free_r+0x34>
    c28c:	10000115 	stw	zero,4(r2)
    c290:	28800015 	stw	r2,0(r5)
    c294:	f800283a 	ret
    c298:	10c00c2e 	bgeu	r2,r3,c2cc <_free_r+0x68>
    c29c:	11000017 	ldw	r4,0(r2)
    c2a0:	110b883a 	add	r5,r2,r4
    c2a4:	1940041e 	bne	r3,r5,c2b8 <_free_r+0x54>
    c2a8:	19400017 	ldw	r5,0(r3)
    c2ac:	18c00117 	ldw	r3,4(r3)
    c2b0:	2909883a 	add	r4,r5,r4
    c2b4:	11000015 	stw	r4,0(r2)
    c2b8:	10c00115 	stw	r3,4(r2)
    c2bc:	30800015 	stw	r2,0(r6)
    c2c0:	f800283a 	ret
    c2c4:	11400336 	bltu	r2,r5,c2d4 <_free_r+0x70>
    c2c8:	2807883a 	mov	r3,r5
    c2cc:	19400117 	ldw	r5,4(r3)
    c2d0:	283ffc1e 	bne	r5,zero,c2c4 <_gp+0xffff5fa8>
    c2d4:	19c00017 	ldw	r7,0(r3)
    c2d8:	19cd883a 	add	r6,r3,r7
    c2dc:	30800a1e 	bne	r6,r2,c308 <_free_r+0xa4>
    c2e0:	10800017 	ldw	r2,0(r2)
    c2e4:	3885883a 	add	r2,r7,r2
    c2e8:	18800015 	stw	r2,0(r3)
    c2ec:	1889883a 	add	r4,r3,r2
    c2f0:	2900141e 	bne	r5,r4,c344 <_free_r+0xe0>
    c2f4:	29000017 	ldw	r4,0(r5)
    c2f8:	2085883a 	add	r2,r4,r2
    c2fc:	18800015 	stw	r2,0(r3)
    c300:	28800117 	ldw	r2,4(r5)
    c304:	00000e06 	br	c340 <_free_r+0xdc>
    c308:	1180032e 	bgeu	r2,r6,c318 <_free_r+0xb4>
    c30c:	00800304 	movi	r2,12
    c310:	20800015 	stw	r2,0(r4)
    c314:	f800283a 	ret
    c318:	11000017 	ldw	r4,0(r2)
    c31c:	110d883a 	add	r6,r2,r4
    c320:	2980061e 	bne	r5,r6,c33c <_free_r+0xd8>
    c324:	29800017 	ldw	r6,0(r5)
    c328:	3109883a 	add	r4,r6,r4
    c32c:	11000015 	stw	r4,0(r2)
    c330:	29000117 	ldw	r4,4(r5)
    c334:	11000115 	stw	r4,4(r2)
    c338:	00000106 	br	c340 <_free_r+0xdc>
    c33c:	11400115 	stw	r5,4(r2)
    c340:	18800115 	stw	r2,4(r3)
    c344:	f800283a 	ret

0000c348 <_malloc_r>:
    c348:	defffb04 	addi	sp,sp,-20
    c34c:	00bfff04 	movi	r2,-4
    c350:	dc400115 	stw	r17,4(sp)
    c354:	2c4000c4 	addi	r17,r5,3
    c358:	88a2703a 	and	r17,r17,r2
    c35c:	dc800215 	stw	r18,8(sp)
    c360:	dfc00415 	stw	ra,16(sp)
    c364:	dcc00315 	stw	r19,12(sp)
    c368:	dc000015 	stw	r16,0(sp)
    c36c:	8c400204 	addi	r17,r17,8
    c370:	00800304 	movi	r2,12
    c374:	2025883a 	mov	r18,r4
    c378:	8880022e 	bgeu	r17,r2,c384 <_malloc_r+0x3c>
    c37c:	1023883a 	mov	r17,r2
    c380:	00000506 	br	c398 <_malloc_r+0x50>
    c384:	8800040e 	bge	r17,zero,c398 <_malloc_r+0x50>
    c388:	00800304 	movi	r2,12
    c38c:	90800015 	stw	r2,0(r18)
    c390:	0005883a 	mov	r2,zero
    c394:	00003b06 	br	c484 <_malloc_r+0x13c>
    c398:	897ffb36 	bltu	r17,r5,c388 <_gp+0xffff606c>
    c39c:	00800074 	movhi	r2,1
    c3a0:	10b91004 	addi	r2,r2,-7104
    c3a4:	10c00017 	ldw	r3,0(r2)
    c3a8:	1009883a 	mov	r4,r2
    c3ac:	1821883a 	mov	r16,r3
    c3b0:	80000926 	beq	r16,zero,c3d8 <_malloc_r+0x90>
    c3b4:	80800017 	ldw	r2,0(r16)
    c3b8:	1445c83a 	sub	r2,r2,r17
    c3bc:	10001516 	blt	r2,zero,c414 <_malloc_r+0xcc>
    c3c0:	014002c4 	movi	r5,11
    c3c4:	28800d2e 	bgeu	r5,r2,c3fc <_malloc_r+0xb4>
    c3c8:	80800015 	stw	r2,0(r16)
    c3cc:	80a1883a 	add	r16,r16,r2
    c3d0:	84400015 	stw	r17,0(r16)
    c3d4:	8000221e 	bne	r16,zero,c460 <_malloc_r+0x118>
    c3d8:	04000074 	movhi	r16,1
    c3dc:	84390f04 	addi	r16,r16,-7108
    c3e0:	80800017 	ldw	r2,0(r16)
    c3e4:	10000e1e 	bne	r2,zero,c420 <_malloc_r+0xd8>
    c3e8:	000b883a 	mov	r5,zero
    c3ec:	9009883a 	mov	r4,r18
    c3f0:	000c5e00 	call	c5e0 <_sbrk_r>
    c3f4:	80800015 	stw	r2,0(r16)
    c3f8:	00000906 	br	c420 <_malloc_r+0xd8>
    c3fc:	80800117 	ldw	r2,4(r16)
    c400:	1c00021e 	bne	r3,r16,c40c <_malloc_r+0xc4>
    c404:	20800015 	stw	r2,0(r4)
    c408:	00001506 	br	c460 <_malloc_r+0x118>
    c40c:	18800115 	stw	r2,4(r3)
    c410:	00001306 	br	c460 <_malloc_r+0x118>
    c414:	8007883a 	mov	r3,r16
    c418:	84000117 	ldw	r16,4(r16)
    c41c:	003fe406 	br	c3b0 <_gp+0xffff6094>
    c420:	880b883a 	mov	r5,r17
    c424:	9009883a 	mov	r4,r18
    c428:	000c5e00 	call	c5e0 <_sbrk_r>
    c42c:	04ffffc4 	movi	r19,-1
    c430:	14ffd526 	beq	r2,r19,c388 <_gp+0xffff606c>
    c434:	140000c4 	addi	r16,r2,3
    c438:	00ffff04 	movi	r3,-4
    c43c:	80e0703a 	and	r16,r16,r3
    c440:	1400021e 	bne	r2,r16,c44c <_malloc_r+0x104>
    c444:	84400015 	stw	r17,0(r16)
    c448:	00000506 	br	c460 <_malloc_r+0x118>
    c44c:	808bc83a 	sub	r5,r16,r2
    c450:	9009883a 	mov	r4,r18
    c454:	000c5e00 	call	c5e0 <_sbrk_r>
    c458:	14fffa1e 	bne	r2,r19,c444 <_gp+0xffff6128>
    c45c:	003fca06 	br	c388 <_gp+0xffff606c>
    c460:	810002c4 	addi	r4,r16,11
    c464:	00bffe04 	movi	r2,-8
    c468:	80c00104 	addi	r3,r16,4
    c46c:	2084703a 	and	r2,r4,r2
    c470:	10c7c83a 	sub	r3,r2,r3
    c474:	18000326 	beq	r3,zero,c484 <_malloc_r+0x13c>
    c478:	80e1883a 	add	r16,r16,r3
    c47c:	00c7c83a 	sub	r3,zero,r3
    c480:	80c00015 	stw	r3,0(r16)
    c484:	dfc00417 	ldw	ra,16(sp)
    c488:	dcc00317 	ldw	r19,12(sp)
    c48c:	dc800217 	ldw	r18,8(sp)
    c490:	dc400117 	ldw	r17,4(sp)
    c494:	dc000017 	ldw	r16,0(sp)
    c498:	dec00504 	addi	sp,sp,20
    c49c:	f800283a 	ret

0000c4a0 <_printf_r>:
    c4a0:	defffd04 	addi	sp,sp,-12
    c4a4:	dfc00015 	stw	ra,0(sp)
    c4a8:	d9800115 	stw	r6,4(sp)
    c4ac:	d9c00215 	stw	r7,8(sp)
    c4b0:	20c00217 	ldw	r3,8(r4)
    c4b4:	01800074 	movhi	r6,1
    c4b8:	31b4f604 	addi	r6,r6,-11304
    c4bc:	19800115 	stw	r6,4(r3)
    c4c0:	280d883a 	mov	r6,r5
    c4c4:	21400217 	ldw	r5,8(r4)
    c4c8:	d9c00104 	addi	r7,sp,4
    c4cc:	000cda00 	call	cda0 <___vfprintf_internal_r>
    c4d0:	dfc00017 	ldw	ra,0(sp)
    c4d4:	dec00304 	addi	sp,sp,12
    c4d8:	f800283a 	ret

0000c4dc <printf>:
    c4dc:	defffc04 	addi	sp,sp,-16
    c4e0:	dfc00015 	stw	ra,0(sp)
    c4e4:	d9400115 	stw	r5,4(sp)
    c4e8:	d9800215 	stw	r6,8(sp)
    c4ec:	d9c00315 	stw	r7,12(sp)
    c4f0:	00800074 	movhi	r2,1
    c4f4:	10b8c904 	addi	r2,r2,-7388
    c4f8:	10800017 	ldw	r2,0(r2)
    c4fc:	01400074 	movhi	r5,1
    c500:	2974f604 	addi	r5,r5,-11304
    c504:	10c00217 	ldw	r3,8(r2)
    c508:	d9800104 	addi	r6,sp,4
    c50c:	19400115 	stw	r5,4(r3)
    c510:	200b883a 	mov	r5,r4
    c514:	11000217 	ldw	r4,8(r2)
    c518:	000d2cc0 	call	d2cc <__vfprintf_internal>
    c51c:	dfc00017 	ldw	ra,0(sp)
    c520:	dec00404 	addi	sp,sp,16
    c524:	f800283a 	ret

0000c528 <_putchar_r>:
    c528:	21800217 	ldw	r6,8(r4)
    c52c:	000d5ec1 	jmpi	d5ec <_putc_r>

0000c530 <putchar>:
    c530:	00800074 	movhi	r2,1
    c534:	10b8c904 	addi	r2,r2,-7388
    c538:	10800017 	ldw	r2,0(r2)
    c53c:	200b883a 	mov	r5,r4
    c540:	11800217 	ldw	r6,8(r2)
    c544:	1009883a 	mov	r4,r2
    c548:	000d5ec1 	jmpi	d5ec <_putc_r>

0000c54c <_puts_r>:
    c54c:	defffd04 	addi	sp,sp,-12
    c550:	dc000015 	stw	r16,0(sp)
    c554:	2021883a 	mov	r16,r4
    c558:	2809883a 	mov	r4,r5
    c55c:	dfc00215 	stw	ra,8(sp)
    c560:	dc400115 	stw	r17,4(sp)
    c564:	2823883a 	mov	r17,r5
    c568:	000c7640 	call	c764 <strlen>
    c56c:	81400217 	ldw	r5,8(r16)
    c570:	01000074 	movhi	r4,1
    c574:	2134f604 	addi	r4,r4,-11304
    c578:	29000115 	stw	r4,4(r5)
    c57c:	100f883a 	mov	r7,r2
    c580:	880d883a 	mov	r6,r17
    c584:	8009883a 	mov	r4,r16
    c588:	000d3d80 	call	d3d8 <__sfvwrite_small_dev>
    c58c:	00ffffc4 	movi	r3,-1
    c590:	10c00926 	beq	r2,r3,c5b8 <_puts_r+0x6c>
    c594:	81400217 	ldw	r5,8(r16)
    c598:	01800074 	movhi	r6,1
    c59c:	01c00044 	movi	r7,1
    c5a0:	28800117 	ldw	r2,4(r5)
    c5a4:	31b69b04 	addi	r6,r6,-9620
    c5a8:	8009883a 	mov	r4,r16
    c5ac:	103ee83a 	callr	r2
    c5b0:	10bfffe0 	cmpeqi	r2,r2,-1
    c5b4:	0085c83a 	sub	r2,zero,r2
    c5b8:	dfc00217 	ldw	ra,8(sp)
    c5bc:	dc400117 	ldw	r17,4(sp)
    c5c0:	dc000017 	ldw	r16,0(sp)
    c5c4:	dec00304 	addi	sp,sp,12
    c5c8:	f800283a 	ret

0000c5cc <puts>:
    c5cc:	00800074 	movhi	r2,1
    c5d0:	10b8c904 	addi	r2,r2,-7388
    c5d4:	200b883a 	mov	r5,r4
    c5d8:	11000017 	ldw	r4,0(r2)
    c5dc:	000c54c1 	jmpi	c54c <_puts_r>

0000c5e0 <_sbrk_r>:
    c5e0:	defffd04 	addi	sp,sp,-12
    c5e4:	dc000015 	stw	r16,0(sp)
    c5e8:	04000074 	movhi	r16,1
    c5ec:	dc400115 	stw	r17,4(sp)
    c5f0:	84391104 	addi	r16,r16,-7100
    c5f4:	2023883a 	mov	r17,r4
    c5f8:	2809883a 	mov	r4,r5
    c5fc:	dfc00215 	stw	ra,8(sp)
    c600:	80000015 	stw	zero,0(r16)
    c604:	000d7a80 	call	d7a8 <sbrk>
    c608:	00ffffc4 	movi	r3,-1
    c60c:	10c0031e 	bne	r2,r3,c61c <_sbrk_r+0x3c>
    c610:	80c00017 	ldw	r3,0(r16)
    c614:	18000126 	beq	r3,zero,c61c <_sbrk_r+0x3c>
    c618:	88c00015 	stw	r3,0(r17)
    c61c:	dfc00217 	ldw	ra,8(sp)
    c620:	dc400117 	ldw	r17,4(sp)
    c624:	dc000017 	ldw	r16,0(sp)
    c628:	dec00304 	addi	sp,sp,12
    c62c:	f800283a 	ret

0000c630 <_sprintf_r>:
    c630:	defff704 	addi	sp,sp,-36
    c634:	dfc00715 	stw	ra,28(sp)
    c638:	d9c00815 	stw	r7,32(sp)
    c63c:	00808204 	movi	r2,520
    c640:	d880000d 	sth	r2,0(sp)
    c644:	00a00034 	movhi	r2,32768
    c648:	10bfffc4 	addi	r2,r2,-1
    c64c:	d8800515 	stw	r2,20(sp)
    c650:	d8800315 	stw	r2,12(sp)
    c654:	00bfffc4 	movi	r2,-1
    c658:	d880008d 	sth	r2,2(sp)
    c65c:	00800074 	movhi	r2,1
    c660:	d9400415 	stw	r5,16(sp)
    c664:	d9400215 	stw	r5,8(sp)
    c668:	10b52404 	addi	r2,r2,-11120
    c66c:	d9c00804 	addi	r7,sp,32
    c670:	d80b883a 	mov	r5,sp
    c674:	d8800115 	stw	r2,4(sp)
    c678:	d8000615 	stw	zero,24(sp)
    c67c:	000c7ec0 	call	c7ec <___svfprintf_internal_r>
    c680:	d8c00417 	ldw	r3,16(sp)
    c684:	18000005 	stb	zero,0(r3)
    c688:	dfc00717 	ldw	ra,28(sp)
    c68c:	dec00904 	addi	sp,sp,36
    c690:	f800283a 	ret

0000c694 <sprintf>:
    c694:	defff604 	addi	sp,sp,-40
    c698:	dfc00715 	stw	ra,28(sp)
    c69c:	d9800815 	stw	r6,32(sp)
    c6a0:	d9c00915 	stw	r7,36(sp)
    c6a4:	00808204 	movi	r2,520
    c6a8:	d880000d 	sth	r2,0(sp)
    c6ac:	00a00034 	movhi	r2,32768
    c6b0:	10bfffc4 	addi	r2,r2,-1
    c6b4:	d8800515 	stw	r2,20(sp)
    c6b8:	d8800315 	stw	r2,12(sp)
    c6bc:	00bfffc4 	movi	r2,-1
    c6c0:	d880008d 	sth	r2,2(sp)
    c6c4:	00800074 	movhi	r2,1
    c6c8:	10b52404 	addi	r2,r2,-11120
    c6cc:	d8800115 	stw	r2,4(sp)
    c6d0:	00800074 	movhi	r2,1
    c6d4:	10b8c904 	addi	r2,r2,-7388
    c6d8:	d9000415 	stw	r4,16(sp)
    c6dc:	d9000215 	stw	r4,8(sp)
    c6e0:	11000017 	ldw	r4,0(r2)
    c6e4:	280d883a 	mov	r6,r5
    c6e8:	d9c00804 	addi	r7,sp,32
    c6ec:	d80b883a 	mov	r5,sp
    c6f0:	d8000615 	stw	zero,24(sp)
    c6f4:	000c7ec0 	call	c7ec <___svfprintf_internal_r>
    c6f8:	d8c00417 	ldw	r3,16(sp)
    c6fc:	18000005 	stb	zero,0(r3)
    c700:	dfc00717 	ldw	ra,28(sp)
    c704:	dec00a04 	addi	sp,sp,40
    c708:	f800283a 	ret

0000c70c <strcasecmp>:
    c70c:	00800074 	movhi	r2,1
    c710:	10b8c704 	addi	r2,r2,-7396
    c714:	11c00017 	ldw	r7,0(r2)
    c718:	02000044 	movi	r8,1
    c71c:	20800003 	ldbu	r2,0(r4)
    c720:	3887883a 	add	r3,r7,r2
    c724:	18c00043 	ldbu	r3,1(r3)
    c728:	18c000cc 	andi	r3,r3,3
    c72c:	1a00011e 	bne	r3,r8,c734 <strcasecmp+0x28>
    c730:	10800804 	addi	r2,r2,32
    c734:	28c00003 	ldbu	r3,0(r5)
    c738:	38cd883a 	add	r6,r7,r3
    c73c:	31800043 	ldbu	r6,1(r6)
    c740:	318000cc 	andi	r6,r6,3
    c744:	3200011e 	bne	r6,r8,c74c <strcasecmp+0x40>
    c748:	18c00804 	addi	r3,r3,32
    c74c:	10c5c83a 	sub	r2,r2,r3
    c750:	1000031e 	bne	r2,zero,c760 <strcasecmp+0x54>
    c754:	21000044 	addi	r4,r4,1
    c758:	29400044 	addi	r5,r5,1
    c75c:	183fef1e 	bne	r3,zero,c71c <_gp+0xffff6400>
    c760:	f800283a 	ret

0000c764 <strlen>:
    c764:	2005883a 	mov	r2,r4
    c768:	10c00007 	ldb	r3,0(r2)
    c76c:	18000226 	beq	r3,zero,c778 <strlen+0x14>
    c770:	10800044 	addi	r2,r2,1
    c774:	003ffc06 	br	c768 <_gp+0xffff644c>
    c778:	1105c83a 	sub	r2,r2,r4
    c77c:	f800283a 	ret

0000c780 <print_repeat>:
    c780:	defffb04 	addi	sp,sp,-20
    c784:	dc800315 	stw	r18,12(sp)
    c788:	dc400215 	stw	r17,8(sp)
    c78c:	dc000115 	stw	r16,4(sp)
    c790:	dfc00415 	stw	ra,16(sp)
    c794:	2025883a 	mov	r18,r4
    c798:	2823883a 	mov	r17,r5
    c79c:	d9800005 	stb	r6,0(sp)
    c7a0:	3821883a 	mov	r16,r7
    c7a4:	04000a0e 	bge	zero,r16,c7d0 <print_repeat+0x50>
    c7a8:	88800117 	ldw	r2,4(r17)
    c7ac:	01c00044 	movi	r7,1
    c7b0:	d80d883a 	mov	r6,sp
    c7b4:	880b883a 	mov	r5,r17
    c7b8:	9009883a 	mov	r4,r18
    c7bc:	103ee83a 	callr	r2
    c7c0:	843fffc4 	addi	r16,r16,-1
    c7c4:	103ff726 	beq	r2,zero,c7a4 <_gp+0xffff6488>
    c7c8:	00bfffc4 	movi	r2,-1
    c7cc:	00000106 	br	c7d4 <print_repeat+0x54>
    c7d0:	0005883a 	mov	r2,zero
    c7d4:	dfc00417 	ldw	ra,16(sp)
    c7d8:	dc800317 	ldw	r18,12(sp)
    c7dc:	dc400217 	ldw	r17,8(sp)
    c7e0:	dc000117 	ldw	r16,4(sp)
    c7e4:	dec00504 	addi	sp,sp,20
    c7e8:	f800283a 	ret

0000c7ec <___svfprintf_internal_r>:
    c7ec:	deffe504 	addi	sp,sp,-108
    c7f0:	d8c00804 	addi	r3,sp,32
    c7f4:	ddc01815 	stw	r23,96(sp)
    c7f8:	dd801715 	stw	r22,92(sp)
    c7fc:	dd401615 	stw	r21,88(sp)
    c800:	dd001515 	stw	r20,84(sp)
    c804:	dcc01415 	stw	r19,80(sp)
    c808:	dc801315 	stw	r18,76(sp)
    c80c:	dc401215 	stw	r17,72(sp)
    c810:	dc001115 	stw	r16,68(sp)
    c814:	dfc01a15 	stw	ra,104(sp)
    c818:	df001915 	stw	fp,100(sp)
    c81c:	2029883a 	mov	r20,r4
    c820:	2823883a 	mov	r17,r5
    c824:	382d883a 	mov	r22,r7
    c828:	d9800f15 	stw	r6,60(sp)
    c82c:	0021883a 	mov	r16,zero
    c830:	d8000e15 	stw	zero,56(sp)
    c834:	d8000a15 	stw	zero,40(sp)
    c838:	002b883a 	mov	r21,zero
    c83c:	0027883a 	mov	r19,zero
    c840:	0025883a 	mov	r18,zero
    c844:	d8000c15 	stw	zero,48(sp)
    c848:	d8000b15 	stw	zero,44(sp)
    c84c:	002f883a 	mov	r23,zero
    c850:	d8c00915 	stw	r3,36(sp)
    c854:	d8c00f17 	ldw	r3,60(sp)
    c858:	19000003 	ldbu	r4,0(r3)
    c85c:	20803fcc 	andi	r2,r4,255
    c860:	1080201c 	xori	r2,r2,128
    c864:	10bfe004 	addi	r2,r2,-128
    c868:	10011e26 	beq	r2,zero,cce4 <___svfprintf_internal_r+0x4f8>
    c86c:	00c00044 	movi	r3,1
    c870:	b8c01426 	beq	r23,r3,c8c4 <___svfprintf_internal_r+0xd8>
    c874:	1dc00216 	blt	r3,r23,c880 <___svfprintf_internal_r+0x94>
    c878:	b8000626 	beq	r23,zero,c894 <___svfprintf_internal_r+0xa8>
    c87c:	00011506 	br	ccd4 <___svfprintf_internal_r+0x4e8>
    c880:	01400084 	movi	r5,2
    c884:	b9401d26 	beq	r23,r5,c8fc <___svfprintf_internal_r+0x110>
    c888:	014000c4 	movi	r5,3
    c88c:	b9402b26 	beq	r23,r5,c93c <___svfprintf_internal_r+0x150>
    c890:	00011006 	br	ccd4 <___svfprintf_internal_r+0x4e8>
    c894:	01400944 	movi	r5,37
    c898:	1140fc26 	beq	r2,r5,cc8c <___svfprintf_internal_r+0x4a0>
    c89c:	88800117 	ldw	r2,4(r17)
    c8a0:	d9000005 	stb	r4,0(sp)
    c8a4:	01c00044 	movi	r7,1
    c8a8:	d80d883a 	mov	r6,sp
    c8ac:	880b883a 	mov	r5,r17
    c8b0:	a009883a 	mov	r4,r20
    c8b4:	103ee83a 	callr	r2
    c8b8:	1000d81e 	bne	r2,zero,cc1c <___svfprintf_internal_r+0x430>
    c8bc:	84000044 	addi	r16,r16,1
    c8c0:	00010406 	br	ccd4 <___svfprintf_internal_r+0x4e8>
    c8c4:	01400c04 	movi	r5,48
    c8c8:	1140fa26 	beq	r2,r5,ccb4 <___svfprintf_internal_r+0x4c8>
    c8cc:	01400944 	movi	r5,37
    c8d0:	11400a1e 	bne	r2,r5,c8fc <___svfprintf_internal_r+0x110>
    c8d4:	d8800005 	stb	r2,0(sp)
    c8d8:	88800117 	ldw	r2,4(r17)
    c8dc:	b80f883a 	mov	r7,r23
    c8e0:	d80d883a 	mov	r6,sp
    c8e4:	880b883a 	mov	r5,r17
    c8e8:	a009883a 	mov	r4,r20
    c8ec:	103ee83a 	callr	r2
    c8f0:	1000ca1e 	bne	r2,zero,cc1c <___svfprintf_internal_r+0x430>
    c8f4:	84000044 	addi	r16,r16,1
    c8f8:	0000f506 	br	ccd0 <___svfprintf_internal_r+0x4e4>
    c8fc:	25fff404 	addi	r23,r4,-48
    c900:	bdc03fcc 	andi	r23,r23,255
    c904:	00c00244 	movi	r3,9
    c908:	1dc00936 	bltu	r3,r23,c930 <___svfprintf_internal_r+0x144>
    c90c:	00bfffc4 	movi	r2,-1
    c910:	90800426 	beq	r18,r2,c924 <___svfprintf_internal_r+0x138>
    c914:	01400284 	movi	r5,10
    c918:	9009883a 	mov	r4,r18
    c91c:	000ace40 	call	ace4 <__mulsi3>
    c920:	00000106 	br	c928 <___svfprintf_internal_r+0x13c>
    c924:	0005883a 	mov	r2,zero
    c928:	b8a5883a 	add	r18,r23,r2
    c92c:	0000e206 	br	ccb8 <___svfprintf_internal_r+0x4cc>
    c930:	01400b84 	movi	r5,46
    c934:	1140e426 	beq	r2,r5,ccc8 <___svfprintf_internal_r+0x4dc>
    c938:	05c00084 	movi	r23,2
    c93c:	213ff404 	addi	r4,r4,-48
    c940:	27003fcc 	andi	fp,r4,255
    c944:	00c00244 	movi	r3,9
    c948:	1f000936 	bltu	r3,fp,c970 <___svfprintf_internal_r+0x184>
    c94c:	00bfffc4 	movi	r2,-1
    c950:	98800426 	beq	r19,r2,c964 <___svfprintf_internal_r+0x178>
    c954:	01400284 	movi	r5,10
    c958:	9809883a 	mov	r4,r19
    c95c:	000ace40 	call	ace4 <__mulsi3>
    c960:	00000106 	br	c968 <___svfprintf_internal_r+0x17c>
    c964:	0005883a 	mov	r2,zero
    c968:	e0a7883a 	add	r19,fp,r2
    c96c:	0000d906 	br	ccd4 <___svfprintf_internal_r+0x4e8>
    c970:	00c01b04 	movi	r3,108
    c974:	10c0d226 	beq	r2,r3,ccc0 <___svfprintf_internal_r+0x4d4>
    c978:	013fffc4 	movi	r4,-1
    c97c:	99000226 	beq	r19,r4,c988 <___svfprintf_internal_r+0x19c>
    c980:	d8000b15 	stw	zero,44(sp)
    c984:	00000106 	br	c98c <___svfprintf_internal_r+0x1a0>
    c988:	04c00044 	movi	r19,1
    c98c:	01001a44 	movi	r4,105
    c990:	11001626 	beq	r2,r4,c9ec <___svfprintf_internal_r+0x200>
    c994:	20800916 	blt	r4,r2,c9bc <___svfprintf_internal_r+0x1d0>
    c998:	010018c4 	movi	r4,99
    c99c:	11008826 	beq	r2,r4,cbc0 <___svfprintf_internal_r+0x3d4>
    c9a0:	01001904 	movi	r4,100
    c9a4:	11001126 	beq	r2,r4,c9ec <___svfprintf_internal_r+0x200>
    c9a8:	01001604 	movi	r4,88
    c9ac:	1100c81e 	bne	r2,r4,ccd0 <___svfprintf_internal_r+0x4e4>
    c9b0:	00c00044 	movi	r3,1
    c9b4:	d8c00e15 	stw	r3,56(sp)
    c9b8:	00001506 	br	ca10 <___svfprintf_internal_r+0x224>
    c9bc:	01001cc4 	movi	r4,115
    c9c0:	11009826 	beq	r2,r4,cc24 <___svfprintf_internal_r+0x438>
    c9c4:	20800416 	blt	r4,r2,c9d8 <___svfprintf_internal_r+0x1ec>
    c9c8:	01001bc4 	movi	r4,111
    c9cc:	1100c01e 	bne	r2,r4,ccd0 <___svfprintf_internal_r+0x4e4>
    c9d0:	05400204 	movi	r21,8
    c9d4:	00000f06 	br	ca14 <___svfprintf_internal_r+0x228>
    c9d8:	01001d44 	movi	r4,117
    c9dc:	11000d26 	beq	r2,r4,ca14 <___svfprintf_internal_r+0x228>
    c9e0:	01001e04 	movi	r4,120
    c9e4:	11000a26 	beq	r2,r4,ca10 <___svfprintf_internal_r+0x224>
    c9e8:	0000b906 	br	ccd0 <___svfprintf_internal_r+0x4e4>
    c9ec:	d8c00a17 	ldw	r3,40(sp)
    c9f0:	b7000104 	addi	fp,r22,4
    c9f4:	18000726 	beq	r3,zero,ca14 <___svfprintf_internal_r+0x228>
    c9f8:	df000d15 	stw	fp,52(sp)
    c9fc:	b5c00017 	ldw	r23,0(r22)
    ca00:	b800080e 	bge	r23,zero,ca24 <___svfprintf_internal_r+0x238>
    ca04:	05efc83a 	sub	r23,zero,r23
    ca08:	02400044 	movi	r9,1
    ca0c:	00000606 	br	ca28 <___svfprintf_internal_r+0x23c>
    ca10:	05400404 	movi	r21,16
    ca14:	b0c00104 	addi	r3,r22,4
    ca18:	d8c00d15 	stw	r3,52(sp)
    ca1c:	b5c00017 	ldw	r23,0(r22)
    ca20:	d8000a15 	stw	zero,40(sp)
    ca24:	0013883a 	mov	r9,zero
    ca28:	d839883a 	mov	fp,sp
    ca2c:	b8001726 	beq	r23,zero,ca8c <___svfprintf_internal_r+0x2a0>
    ca30:	a80b883a 	mov	r5,r21
    ca34:	b809883a 	mov	r4,r23
    ca38:	da401015 	stw	r9,64(sp)
    ca3c:	000ac280 	call	ac28 <__udivsi3>
    ca40:	a80b883a 	mov	r5,r21
    ca44:	1009883a 	mov	r4,r2
    ca48:	102d883a 	mov	r22,r2
    ca4c:	000ace40 	call	ace4 <__mulsi3>
    ca50:	b885c83a 	sub	r2,r23,r2
    ca54:	00c00244 	movi	r3,9
    ca58:	da401017 	ldw	r9,64(sp)
    ca5c:	18800216 	blt	r3,r2,ca68 <___svfprintf_internal_r+0x27c>
    ca60:	10800c04 	addi	r2,r2,48
    ca64:	00000506 	br	ca7c <___svfprintf_internal_r+0x290>
    ca68:	d8c00e17 	ldw	r3,56(sp)
    ca6c:	18000226 	beq	r3,zero,ca78 <___svfprintf_internal_r+0x28c>
    ca70:	10800dc4 	addi	r2,r2,55
    ca74:	00000106 	br	ca7c <___svfprintf_internal_r+0x290>
    ca78:	108015c4 	addi	r2,r2,87
    ca7c:	e0800005 	stb	r2,0(fp)
    ca80:	b02f883a 	mov	r23,r22
    ca84:	e7000044 	addi	fp,fp,1
    ca88:	003fe806 	br	ca2c <_gp+0xffff6710>
    ca8c:	e6efc83a 	sub	r23,fp,sp
    ca90:	9dc5c83a 	sub	r2,r19,r23
    ca94:	0080090e 	bge	zero,r2,cabc <___svfprintf_internal_r+0x2d0>
    ca98:	e085883a 	add	r2,fp,r2
    ca9c:	01400c04 	movi	r5,48
    caa0:	d8c00917 	ldw	r3,36(sp)
    caa4:	e009883a 	mov	r4,fp
    caa8:	e0c0032e 	bgeu	fp,r3,cab8 <___svfprintf_internal_r+0x2cc>
    caac:	e7000044 	addi	fp,fp,1
    cab0:	21400005 	stb	r5,0(r4)
    cab4:	e0bffa1e 	bne	fp,r2,caa0 <_gp+0xffff6784>
    cab8:	e6efc83a 	sub	r23,fp,sp
    cabc:	d8c00b17 	ldw	r3,44(sp)
    cac0:	4dd1883a 	add	r8,r9,r23
    cac4:	922dc83a 	sub	r22,r18,r8
    cac8:	18001626 	beq	r3,zero,cb24 <___svfprintf_internal_r+0x338>
    cacc:	48000a26 	beq	r9,zero,caf8 <___svfprintf_internal_r+0x30c>
    cad0:	00800b44 	movi	r2,45
    cad4:	d8800805 	stb	r2,32(sp)
    cad8:	88800117 	ldw	r2,4(r17)
    cadc:	01c00044 	movi	r7,1
    cae0:	d9800804 	addi	r6,sp,32
    cae4:	880b883a 	mov	r5,r17
    cae8:	a009883a 	mov	r4,r20
    caec:	103ee83a 	callr	r2
    caf0:	10004a1e 	bne	r2,zero,cc1c <___svfprintf_internal_r+0x430>
    caf4:	84000044 	addi	r16,r16,1
    caf8:	0580070e 	bge	zero,r22,cb18 <___svfprintf_internal_r+0x32c>
    cafc:	b00f883a 	mov	r7,r22
    cb00:	01800c04 	movi	r6,48
    cb04:	880b883a 	mov	r5,r17
    cb08:	a009883a 	mov	r4,r20
    cb0c:	000c7800 	call	c780 <print_repeat>
    cb10:	1000421e 	bne	r2,zero,cc1c <___svfprintf_internal_r+0x430>
    cb14:	85a1883a 	add	r16,r16,r22
    cb18:	e02d883a 	mov	r22,fp
    cb1c:	bf2fc83a 	sub	r23,r23,fp
    cb20:	00002006 	br	cba4 <___svfprintf_internal_r+0x3b8>
    cb24:	0580090e 	bge	zero,r22,cb4c <___svfprintf_internal_r+0x360>
    cb28:	b00f883a 	mov	r7,r22
    cb2c:	01800804 	movi	r6,32
    cb30:	880b883a 	mov	r5,r17
    cb34:	a009883a 	mov	r4,r20
    cb38:	da401015 	stw	r9,64(sp)
    cb3c:	000c7800 	call	c780 <print_repeat>
    cb40:	da401017 	ldw	r9,64(sp)
    cb44:	1000351e 	bne	r2,zero,cc1c <___svfprintf_internal_r+0x430>
    cb48:	85a1883a 	add	r16,r16,r22
    cb4c:	483ff226 	beq	r9,zero,cb18 <_gp+0xffff67fc>
    cb50:	00800b44 	movi	r2,45
    cb54:	d8800805 	stb	r2,32(sp)
    cb58:	88800117 	ldw	r2,4(r17)
    cb5c:	01c00044 	movi	r7,1
    cb60:	d9800804 	addi	r6,sp,32
    cb64:	880b883a 	mov	r5,r17
    cb68:	a009883a 	mov	r4,r20
    cb6c:	103ee83a 	callr	r2
    cb70:	10002a1e 	bne	r2,zero,cc1c <___svfprintf_internal_r+0x430>
    cb74:	84000044 	addi	r16,r16,1
    cb78:	003fe706 	br	cb18 <_gp+0xffff67fc>
    cb7c:	b5bfffc4 	addi	r22,r22,-1
    cb80:	b0800003 	ldbu	r2,0(r22)
    cb84:	01c00044 	movi	r7,1
    cb88:	d9800804 	addi	r6,sp,32
    cb8c:	d8800805 	stb	r2,32(sp)
    cb90:	88800117 	ldw	r2,4(r17)
    cb94:	880b883a 	mov	r5,r17
    cb98:	a009883a 	mov	r4,r20
    cb9c:	103ee83a 	callr	r2
    cba0:	10001e1e 	bne	r2,zero,cc1c <___svfprintf_internal_r+0x430>
    cba4:	8585c83a 	sub	r2,r16,r22
    cba8:	b5c9883a 	add	r4,r22,r23
    cbac:	e085883a 	add	r2,fp,r2
    cbb0:	013ff216 	blt	zero,r4,cb7c <_gp+0xffff6860>
    cbb4:	1021883a 	mov	r16,r2
    cbb8:	dd800d17 	ldw	r22,52(sp)
    cbbc:	00004406 	br	ccd0 <___svfprintf_internal_r+0x4e4>
    cbc0:	00800044 	movi	r2,1
    cbc4:	1480080e 	bge	r2,r18,cbe8 <___svfprintf_internal_r+0x3fc>
    cbc8:	95ffffc4 	addi	r23,r18,-1
    cbcc:	b80f883a 	mov	r7,r23
    cbd0:	01800804 	movi	r6,32
    cbd4:	880b883a 	mov	r5,r17
    cbd8:	a009883a 	mov	r4,r20
    cbdc:	000c7800 	call	c780 <print_repeat>
    cbe0:	10000e1e 	bne	r2,zero,cc1c <___svfprintf_internal_r+0x430>
    cbe4:	85e1883a 	add	r16,r16,r23
    cbe8:	b0800017 	ldw	r2,0(r22)
    cbec:	01c00044 	movi	r7,1
    cbf0:	d80d883a 	mov	r6,sp
    cbf4:	d8800005 	stb	r2,0(sp)
    cbf8:	88800117 	ldw	r2,4(r17)
    cbfc:	880b883a 	mov	r5,r17
    cc00:	a009883a 	mov	r4,r20
    cc04:	b5c00104 	addi	r23,r22,4
    cc08:	103ee83a 	callr	r2
    cc0c:	1000031e 	bne	r2,zero,cc1c <___svfprintf_internal_r+0x430>
    cc10:	84000044 	addi	r16,r16,1
    cc14:	b82d883a 	mov	r22,r23
    cc18:	00002d06 	br	ccd0 <___svfprintf_internal_r+0x4e4>
    cc1c:	00bfffc4 	movi	r2,-1
    cc20:	00003106 	br	cce8 <___svfprintf_internal_r+0x4fc>
    cc24:	b5c00017 	ldw	r23,0(r22)
    cc28:	b7000104 	addi	fp,r22,4
    cc2c:	b809883a 	mov	r4,r23
    cc30:	000c7640 	call	c764 <strlen>
    cc34:	9091c83a 	sub	r8,r18,r2
    cc38:	102d883a 	mov	r22,r2
    cc3c:	0200090e 	bge	zero,r8,cc64 <___svfprintf_internal_r+0x478>
    cc40:	400f883a 	mov	r7,r8
    cc44:	01800804 	movi	r6,32
    cc48:	880b883a 	mov	r5,r17
    cc4c:	a009883a 	mov	r4,r20
    cc50:	da001015 	stw	r8,64(sp)
    cc54:	000c7800 	call	c780 <print_repeat>
    cc58:	da001017 	ldw	r8,64(sp)
    cc5c:	103fef1e 	bne	r2,zero,cc1c <_gp+0xffff6900>
    cc60:	8221883a 	add	r16,r16,r8
    cc64:	88800117 	ldw	r2,4(r17)
    cc68:	b00f883a 	mov	r7,r22
    cc6c:	b80d883a 	mov	r6,r23
    cc70:	880b883a 	mov	r5,r17
    cc74:	a009883a 	mov	r4,r20
    cc78:	103ee83a 	callr	r2
    cc7c:	103fe71e 	bne	r2,zero,cc1c <_gp+0xffff6900>
    cc80:	85a1883a 	add	r16,r16,r22
    cc84:	e02d883a 	mov	r22,fp
    cc88:	00001106 	br	ccd0 <___svfprintf_internal_r+0x4e4>
    cc8c:	00c00044 	movi	r3,1
    cc90:	04ffffc4 	movi	r19,-1
    cc94:	d8000e15 	stw	zero,56(sp)
    cc98:	d8c00a15 	stw	r3,40(sp)
    cc9c:	05400284 	movi	r21,10
    cca0:	9825883a 	mov	r18,r19
    cca4:	d8000c15 	stw	zero,48(sp)
    cca8:	d8000b15 	stw	zero,44(sp)
    ccac:	182f883a 	mov	r23,r3
    ccb0:	00000806 	br	ccd4 <___svfprintf_internal_r+0x4e8>
    ccb4:	ddc00b15 	stw	r23,44(sp)
    ccb8:	05c00084 	movi	r23,2
    ccbc:	00000506 	br	ccd4 <___svfprintf_internal_r+0x4e8>
    ccc0:	00c00044 	movi	r3,1
    ccc4:	d8c00c15 	stw	r3,48(sp)
    ccc8:	05c000c4 	movi	r23,3
    cccc:	00000106 	br	ccd4 <___svfprintf_internal_r+0x4e8>
    ccd0:	002f883a 	mov	r23,zero
    ccd4:	d8c00f17 	ldw	r3,60(sp)
    ccd8:	18c00044 	addi	r3,r3,1
    ccdc:	d8c00f15 	stw	r3,60(sp)
    cce0:	003edc06 	br	c854 <_gp+0xffff6538>
    cce4:	8005883a 	mov	r2,r16
    cce8:	dfc01a17 	ldw	ra,104(sp)
    ccec:	df001917 	ldw	fp,100(sp)
    ccf0:	ddc01817 	ldw	r23,96(sp)
    ccf4:	dd801717 	ldw	r22,92(sp)
    ccf8:	dd401617 	ldw	r21,88(sp)
    ccfc:	dd001517 	ldw	r20,84(sp)
    cd00:	dcc01417 	ldw	r19,80(sp)
    cd04:	dc801317 	ldw	r18,76(sp)
    cd08:	dc401217 	ldw	r17,72(sp)
    cd0c:	dc001117 	ldw	r16,68(sp)
    cd10:	dec01b04 	addi	sp,sp,108
    cd14:	f800283a 	ret

0000cd18 <__vfprintf_internal_unused>:
    cd18:	00800074 	movhi	r2,1
    cd1c:	10b8c904 	addi	r2,r2,-7388
    cd20:	300f883a 	mov	r7,r6
    cd24:	280d883a 	mov	r6,r5
    cd28:	200b883a 	mov	r5,r4
    cd2c:	11000017 	ldw	r4,0(r2)
    cd30:	000c7ec1 	jmpi	c7ec <___svfprintf_internal_r>

0000cd34 <print_repeat>:
    cd34:	defffb04 	addi	sp,sp,-20
    cd38:	dc800315 	stw	r18,12(sp)
    cd3c:	dc400215 	stw	r17,8(sp)
    cd40:	dc000115 	stw	r16,4(sp)
    cd44:	dfc00415 	stw	ra,16(sp)
    cd48:	2025883a 	mov	r18,r4
    cd4c:	2823883a 	mov	r17,r5
    cd50:	d9800005 	stb	r6,0(sp)
    cd54:	3821883a 	mov	r16,r7
    cd58:	04000a0e 	bge	zero,r16,cd84 <print_repeat+0x50>
    cd5c:	88800117 	ldw	r2,4(r17)
    cd60:	01c00044 	movi	r7,1
    cd64:	d80d883a 	mov	r6,sp
    cd68:	880b883a 	mov	r5,r17
    cd6c:	9009883a 	mov	r4,r18
    cd70:	103ee83a 	callr	r2
    cd74:	843fffc4 	addi	r16,r16,-1
    cd78:	103ff726 	beq	r2,zero,cd58 <_gp+0xffff6a3c>
    cd7c:	00bfffc4 	movi	r2,-1
    cd80:	00000106 	br	cd88 <print_repeat+0x54>
    cd84:	0005883a 	mov	r2,zero
    cd88:	dfc00417 	ldw	ra,16(sp)
    cd8c:	dc800317 	ldw	r18,12(sp)
    cd90:	dc400217 	ldw	r17,8(sp)
    cd94:	dc000117 	ldw	r16,4(sp)
    cd98:	dec00504 	addi	sp,sp,20
    cd9c:	f800283a 	ret

0000cda0 <___vfprintf_internal_r>:
    cda0:	deffe504 	addi	sp,sp,-108
    cda4:	d8c00804 	addi	r3,sp,32
    cda8:	ddc01815 	stw	r23,96(sp)
    cdac:	dd801715 	stw	r22,92(sp)
    cdb0:	dd401615 	stw	r21,88(sp)
    cdb4:	dd001515 	stw	r20,84(sp)
    cdb8:	dcc01415 	stw	r19,80(sp)
    cdbc:	dc801315 	stw	r18,76(sp)
    cdc0:	dc401215 	stw	r17,72(sp)
    cdc4:	dc001115 	stw	r16,68(sp)
    cdc8:	dfc01a15 	stw	ra,104(sp)
    cdcc:	df001915 	stw	fp,100(sp)
    cdd0:	2029883a 	mov	r20,r4
    cdd4:	2823883a 	mov	r17,r5
    cdd8:	382d883a 	mov	r22,r7
    cddc:	d9800f15 	stw	r6,60(sp)
    cde0:	0021883a 	mov	r16,zero
    cde4:	d8000e15 	stw	zero,56(sp)
    cde8:	d8000a15 	stw	zero,40(sp)
    cdec:	002b883a 	mov	r21,zero
    cdf0:	0027883a 	mov	r19,zero
    cdf4:	0025883a 	mov	r18,zero
    cdf8:	d8000c15 	stw	zero,48(sp)
    cdfc:	d8000b15 	stw	zero,44(sp)
    ce00:	002f883a 	mov	r23,zero
    ce04:	d8c00915 	stw	r3,36(sp)
    ce08:	d8c00f17 	ldw	r3,60(sp)
    ce0c:	19000003 	ldbu	r4,0(r3)
    ce10:	20803fcc 	andi	r2,r4,255
    ce14:	1080201c 	xori	r2,r2,128
    ce18:	10bfe004 	addi	r2,r2,-128
    ce1c:	10011e26 	beq	r2,zero,d298 <___vfprintf_internal_r+0x4f8>
    ce20:	00c00044 	movi	r3,1
    ce24:	b8c01426 	beq	r23,r3,ce78 <___vfprintf_internal_r+0xd8>
    ce28:	1dc00216 	blt	r3,r23,ce34 <___vfprintf_internal_r+0x94>
    ce2c:	b8000626 	beq	r23,zero,ce48 <___vfprintf_internal_r+0xa8>
    ce30:	00011506 	br	d288 <___vfprintf_internal_r+0x4e8>
    ce34:	01400084 	movi	r5,2
    ce38:	b9401d26 	beq	r23,r5,ceb0 <___vfprintf_internal_r+0x110>
    ce3c:	014000c4 	movi	r5,3
    ce40:	b9402b26 	beq	r23,r5,cef0 <___vfprintf_internal_r+0x150>
    ce44:	00011006 	br	d288 <___vfprintf_internal_r+0x4e8>
    ce48:	01400944 	movi	r5,37
    ce4c:	1140fc26 	beq	r2,r5,d240 <___vfprintf_internal_r+0x4a0>
    ce50:	88800117 	ldw	r2,4(r17)
    ce54:	d9000005 	stb	r4,0(sp)
    ce58:	01c00044 	movi	r7,1
    ce5c:	d80d883a 	mov	r6,sp
    ce60:	880b883a 	mov	r5,r17
    ce64:	a009883a 	mov	r4,r20
    ce68:	103ee83a 	callr	r2
    ce6c:	1000d81e 	bne	r2,zero,d1d0 <___vfprintf_internal_r+0x430>
    ce70:	84000044 	addi	r16,r16,1
    ce74:	00010406 	br	d288 <___vfprintf_internal_r+0x4e8>
    ce78:	01400c04 	movi	r5,48
    ce7c:	1140fa26 	beq	r2,r5,d268 <___vfprintf_internal_r+0x4c8>
    ce80:	01400944 	movi	r5,37
    ce84:	11400a1e 	bne	r2,r5,ceb0 <___vfprintf_internal_r+0x110>
    ce88:	d8800005 	stb	r2,0(sp)
    ce8c:	88800117 	ldw	r2,4(r17)
    ce90:	b80f883a 	mov	r7,r23
    ce94:	d80d883a 	mov	r6,sp
    ce98:	880b883a 	mov	r5,r17
    ce9c:	a009883a 	mov	r4,r20
    cea0:	103ee83a 	callr	r2
    cea4:	1000ca1e 	bne	r2,zero,d1d0 <___vfprintf_internal_r+0x430>
    cea8:	84000044 	addi	r16,r16,1
    ceac:	0000f506 	br	d284 <___vfprintf_internal_r+0x4e4>
    ceb0:	25fff404 	addi	r23,r4,-48
    ceb4:	bdc03fcc 	andi	r23,r23,255
    ceb8:	00c00244 	movi	r3,9
    cebc:	1dc00936 	bltu	r3,r23,cee4 <___vfprintf_internal_r+0x144>
    cec0:	00bfffc4 	movi	r2,-1
    cec4:	90800426 	beq	r18,r2,ced8 <___vfprintf_internal_r+0x138>
    cec8:	01400284 	movi	r5,10
    cecc:	9009883a 	mov	r4,r18
    ced0:	000ace40 	call	ace4 <__mulsi3>
    ced4:	00000106 	br	cedc <___vfprintf_internal_r+0x13c>
    ced8:	0005883a 	mov	r2,zero
    cedc:	b8a5883a 	add	r18,r23,r2
    cee0:	0000e206 	br	d26c <___vfprintf_internal_r+0x4cc>
    cee4:	01400b84 	movi	r5,46
    cee8:	1140e426 	beq	r2,r5,d27c <___vfprintf_internal_r+0x4dc>
    ceec:	05c00084 	movi	r23,2
    cef0:	213ff404 	addi	r4,r4,-48
    cef4:	27003fcc 	andi	fp,r4,255
    cef8:	00c00244 	movi	r3,9
    cefc:	1f000936 	bltu	r3,fp,cf24 <___vfprintf_internal_r+0x184>
    cf00:	00bfffc4 	movi	r2,-1
    cf04:	98800426 	beq	r19,r2,cf18 <___vfprintf_internal_r+0x178>
    cf08:	01400284 	movi	r5,10
    cf0c:	9809883a 	mov	r4,r19
    cf10:	000ace40 	call	ace4 <__mulsi3>
    cf14:	00000106 	br	cf1c <___vfprintf_internal_r+0x17c>
    cf18:	0005883a 	mov	r2,zero
    cf1c:	e0a7883a 	add	r19,fp,r2
    cf20:	0000d906 	br	d288 <___vfprintf_internal_r+0x4e8>
    cf24:	00c01b04 	movi	r3,108
    cf28:	10c0d226 	beq	r2,r3,d274 <___vfprintf_internal_r+0x4d4>
    cf2c:	013fffc4 	movi	r4,-1
    cf30:	99000226 	beq	r19,r4,cf3c <___vfprintf_internal_r+0x19c>
    cf34:	d8000b15 	stw	zero,44(sp)
    cf38:	00000106 	br	cf40 <___vfprintf_internal_r+0x1a0>
    cf3c:	04c00044 	movi	r19,1
    cf40:	01001a44 	movi	r4,105
    cf44:	11001626 	beq	r2,r4,cfa0 <___vfprintf_internal_r+0x200>
    cf48:	20800916 	blt	r4,r2,cf70 <___vfprintf_internal_r+0x1d0>
    cf4c:	010018c4 	movi	r4,99
    cf50:	11008826 	beq	r2,r4,d174 <___vfprintf_internal_r+0x3d4>
    cf54:	01001904 	movi	r4,100
    cf58:	11001126 	beq	r2,r4,cfa0 <___vfprintf_internal_r+0x200>
    cf5c:	01001604 	movi	r4,88
    cf60:	1100c81e 	bne	r2,r4,d284 <___vfprintf_internal_r+0x4e4>
    cf64:	00c00044 	movi	r3,1
    cf68:	d8c00e15 	stw	r3,56(sp)
    cf6c:	00001506 	br	cfc4 <___vfprintf_internal_r+0x224>
    cf70:	01001cc4 	movi	r4,115
    cf74:	11009826 	beq	r2,r4,d1d8 <___vfprintf_internal_r+0x438>
    cf78:	20800416 	blt	r4,r2,cf8c <___vfprintf_internal_r+0x1ec>
    cf7c:	01001bc4 	movi	r4,111
    cf80:	1100c01e 	bne	r2,r4,d284 <___vfprintf_internal_r+0x4e4>
    cf84:	05400204 	movi	r21,8
    cf88:	00000f06 	br	cfc8 <___vfprintf_internal_r+0x228>
    cf8c:	01001d44 	movi	r4,117
    cf90:	11000d26 	beq	r2,r4,cfc8 <___vfprintf_internal_r+0x228>
    cf94:	01001e04 	movi	r4,120
    cf98:	11000a26 	beq	r2,r4,cfc4 <___vfprintf_internal_r+0x224>
    cf9c:	0000b906 	br	d284 <___vfprintf_internal_r+0x4e4>
    cfa0:	d8c00a17 	ldw	r3,40(sp)
    cfa4:	b7000104 	addi	fp,r22,4
    cfa8:	18000726 	beq	r3,zero,cfc8 <___vfprintf_internal_r+0x228>
    cfac:	df000d15 	stw	fp,52(sp)
    cfb0:	b5c00017 	ldw	r23,0(r22)
    cfb4:	b800080e 	bge	r23,zero,cfd8 <___vfprintf_internal_r+0x238>
    cfb8:	05efc83a 	sub	r23,zero,r23
    cfbc:	02400044 	movi	r9,1
    cfc0:	00000606 	br	cfdc <___vfprintf_internal_r+0x23c>
    cfc4:	05400404 	movi	r21,16
    cfc8:	b0c00104 	addi	r3,r22,4
    cfcc:	d8c00d15 	stw	r3,52(sp)
    cfd0:	b5c00017 	ldw	r23,0(r22)
    cfd4:	d8000a15 	stw	zero,40(sp)
    cfd8:	0013883a 	mov	r9,zero
    cfdc:	d839883a 	mov	fp,sp
    cfe0:	b8001726 	beq	r23,zero,d040 <___vfprintf_internal_r+0x2a0>
    cfe4:	a80b883a 	mov	r5,r21
    cfe8:	b809883a 	mov	r4,r23
    cfec:	da401015 	stw	r9,64(sp)
    cff0:	000ac280 	call	ac28 <__udivsi3>
    cff4:	a80b883a 	mov	r5,r21
    cff8:	1009883a 	mov	r4,r2
    cffc:	102d883a 	mov	r22,r2
    d000:	000ace40 	call	ace4 <__mulsi3>
    d004:	b885c83a 	sub	r2,r23,r2
    d008:	00c00244 	movi	r3,9
    d00c:	da401017 	ldw	r9,64(sp)
    d010:	18800216 	blt	r3,r2,d01c <___vfprintf_internal_r+0x27c>
    d014:	10800c04 	addi	r2,r2,48
    d018:	00000506 	br	d030 <___vfprintf_internal_r+0x290>
    d01c:	d8c00e17 	ldw	r3,56(sp)
    d020:	18000226 	beq	r3,zero,d02c <___vfprintf_internal_r+0x28c>
    d024:	10800dc4 	addi	r2,r2,55
    d028:	00000106 	br	d030 <___vfprintf_internal_r+0x290>
    d02c:	108015c4 	addi	r2,r2,87
    d030:	e0800005 	stb	r2,0(fp)
    d034:	b02f883a 	mov	r23,r22
    d038:	e7000044 	addi	fp,fp,1
    d03c:	003fe806 	br	cfe0 <_gp+0xffff6cc4>
    d040:	e6efc83a 	sub	r23,fp,sp
    d044:	9dc5c83a 	sub	r2,r19,r23
    d048:	0080090e 	bge	zero,r2,d070 <___vfprintf_internal_r+0x2d0>
    d04c:	e085883a 	add	r2,fp,r2
    d050:	01400c04 	movi	r5,48
    d054:	d8c00917 	ldw	r3,36(sp)
    d058:	e009883a 	mov	r4,fp
    d05c:	e0c0032e 	bgeu	fp,r3,d06c <___vfprintf_internal_r+0x2cc>
    d060:	e7000044 	addi	fp,fp,1
    d064:	21400005 	stb	r5,0(r4)
    d068:	e0bffa1e 	bne	fp,r2,d054 <_gp+0xffff6d38>
    d06c:	e6efc83a 	sub	r23,fp,sp
    d070:	d8c00b17 	ldw	r3,44(sp)
    d074:	4dd1883a 	add	r8,r9,r23
    d078:	922dc83a 	sub	r22,r18,r8
    d07c:	18001626 	beq	r3,zero,d0d8 <___vfprintf_internal_r+0x338>
    d080:	48000a26 	beq	r9,zero,d0ac <___vfprintf_internal_r+0x30c>
    d084:	00800b44 	movi	r2,45
    d088:	d8800805 	stb	r2,32(sp)
    d08c:	88800117 	ldw	r2,4(r17)
    d090:	01c00044 	movi	r7,1
    d094:	d9800804 	addi	r6,sp,32
    d098:	880b883a 	mov	r5,r17
    d09c:	a009883a 	mov	r4,r20
    d0a0:	103ee83a 	callr	r2
    d0a4:	10004a1e 	bne	r2,zero,d1d0 <___vfprintf_internal_r+0x430>
    d0a8:	84000044 	addi	r16,r16,1
    d0ac:	0580070e 	bge	zero,r22,d0cc <___vfprintf_internal_r+0x32c>
    d0b0:	b00f883a 	mov	r7,r22
    d0b4:	01800c04 	movi	r6,48
    d0b8:	880b883a 	mov	r5,r17
    d0bc:	a009883a 	mov	r4,r20
    d0c0:	000cd340 	call	cd34 <print_repeat>
    d0c4:	1000421e 	bne	r2,zero,d1d0 <___vfprintf_internal_r+0x430>
    d0c8:	85a1883a 	add	r16,r16,r22
    d0cc:	e02d883a 	mov	r22,fp
    d0d0:	bf2fc83a 	sub	r23,r23,fp
    d0d4:	00002006 	br	d158 <___vfprintf_internal_r+0x3b8>
    d0d8:	0580090e 	bge	zero,r22,d100 <___vfprintf_internal_r+0x360>
    d0dc:	b00f883a 	mov	r7,r22
    d0e0:	01800804 	movi	r6,32
    d0e4:	880b883a 	mov	r5,r17
    d0e8:	a009883a 	mov	r4,r20
    d0ec:	da401015 	stw	r9,64(sp)
    d0f0:	000cd340 	call	cd34 <print_repeat>
    d0f4:	da401017 	ldw	r9,64(sp)
    d0f8:	1000351e 	bne	r2,zero,d1d0 <___vfprintf_internal_r+0x430>
    d0fc:	85a1883a 	add	r16,r16,r22
    d100:	483ff226 	beq	r9,zero,d0cc <_gp+0xffff6db0>
    d104:	00800b44 	movi	r2,45
    d108:	d8800805 	stb	r2,32(sp)
    d10c:	88800117 	ldw	r2,4(r17)
    d110:	01c00044 	movi	r7,1
    d114:	d9800804 	addi	r6,sp,32
    d118:	880b883a 	mov	r5,r17
    d11c:	a009883a 	mov	r4,r20
    d120:	103ee83a 	callr	r2
    d124:	10002a1e 	bne	r2,zero,d1d0 <___vfprintf_internal_r+0x430>
    d128:	84000044 	addi	r16,r16,1
    d12c:	003fe706 	br	d0cc <_gp+0xffff6db0>
    d130:	b5bfffc4 	addi	r22,r22,-1
    d134:	b0800003 	ldbu	r2,0(r22)
    d138:	01c00044 	movi	r7,1
    d13c:	d9800804 	addi	r6,sp,32
    d140:	d8800805 	stb	r2,32(sp)
    d144:	88800117 	ldw	r2,4(r17)
    d148:	880b883a 	mov	r5,r17
    d14c:	a009883a 	mov	r4,r20
    d150:	103ee83a 	callr	r2
    d154:	10001e1e 	bne	r2,zero,d1d0 <___vfprintf_internal_r+0x430>
    d158:	8585c83a 	sub	r2,r16,r22
    d15c:	b5c9883a 	add	r4,r22,r23
    d160:	e085883a 	add	r2,fp,r2
    d164:	013ff216 	blt	zero,r4,d130 <_gp+0xffff6e14>
    d168:	1021883a 	mov	r16,r2
    d16c:	dd800d17 	ldw	r22,52(sp)
    d170:	00004406 	br	d284 <___vfprintf_internal_r+0x4e4>
    d174:	00800044 	movi	r2,1
    d178:	1480080e 	bge	r2,r18,d19c <___vfprintf_internal_r+0x3fc>
    d17c:	95ffffc4 	addi	r23,r18,-1
    d180:	b80f883a 	mov	r7,r23
    d184:	01800804 	movi	r6,32
    d188:	880b883a 	mov	r5,r17
    d18c:	a009883a 	mov	r4,r20
    d190:	000cd340 	call	cd34 <print_repeat>
    d194:	10000e1e 	bne	r2,zero,d1d0 <___vfprintf_internal_r+0x430>
    d198:	85e1883a 	add	r16,r16,r23
    d19c:	b0800017 	ldw	r2,0(r22)
    d1a0:	01c00044 	movi	r7,1
    d1a4:	d80d883a 	mov	r6,sp
    d1a8:	d8800005 	stb	r2,0(sp)
    d1ac:	88800117 	ldw	r2,4(r17)
    d1b0:	880b883a 	mov	r5,r17
    d1b4:	a009883a 	mov	r4,r20
    d1b8:	b5c00104 	addi	r23,r22,4
    d1bc:	103ee83a 	callr	r2
    d1c0:	1000031e 	bne	r2,zero,d1d0 <___vfprintf_internal_r+0x430>
    d1c4:	84000044 	addi	r16,r16,1
    d1c8:	b82d883a 	mov	r22,r23
    d1cc:	00002d06 	br	d284 <___vfprintf_internal_r+0x4e4>
    d1d0:	00bfffc4 	movi	r2,-1
    d1d4:	00003106 	br	d29c <___vfprintf_internal_r+0x4fc>
    d1d8:	b5c00017 	ldw	r23,0(r22)
    d1dc:	b7000104 	addi	fp,r22,4
    d1e0:	b809883a 	mov	r4,r23
    d1e4:	000c7640 	call	c764 <strlen>
    d1e8:	9091c83a 	sub	r8,r18,r2
    d1ec:	102d883a 	mov	r22,r2
    d1f0:	0200090e 	bge	zero,r8,d218 <___vfprintf_internal_r+0x478>
    d1f4:	400f883a 	mov	r7,r8
    d1f8:	01800804 	movi	r6,32
    d1fc:	880b883a 	mov	r5,r17
    d200:	a009883a 	mov	r4,r20
    d204:	da001015 	stw	r8,64(sp)
    d208:	000cd340 	call	cd34 <print_repeat>
    d20c:	da001017 	ldw	r8,64(sp)
    d210:	103fef1e 	bne	r2,zero,d1d0 <_gp+0xffff6eb4>
    d214:	8221883a 	add	r16,r16,r8
    d218:	88800117 	ldw	r2,4(r17)
    d21c:	b00f883a 	mov	r7,r22
    d220:	b80d883a 	mov	r6,r23
    d224:	880b883a 	mov	r5,r17
    d228:	a009883a 	mov	r4,r20
    d22c:	103ee83a 	callr	r2
    d230:	103fe71e 	bne	r2,zero,d1d0 <_gp+0xffff6eb4>
    d234:	85a1883a 	add	r16,r16,r22
    d238:	e02d883a 	mov	r22,fp
    d23c:	00001106 	br	d284 <___vfprintf_internal_r+0x4e4>
    d240:	00c00044 	movi	r3,1
    d244:	04ffffc4 	movi	r19,-1
    d248:	d8000e15 	stw	zero,56(sp)
    d24c:	d8c00a15 	stw	r3,40(sp)
    d250:	05400284 	movi	r21,10
    d254:	9825883a 	mov	r18,r19
    d258:	d8000c15 	stw	zero,48(sp)
    d25c:	d8000b15 	stw	zero,44(sp)
    d260:	182f883a 	mov	r23,r3
    d264:	00000806 	br	d288 <___vfprintf_internal_r+0x4e8>
    d268:	ddc00b15 	stw	r23,44(sp)
    d26c:	05c00084 	movi	r23,2
    d270:	00000506 	br	d288 <___vfprintf_internal_r+0x4e8>
    d274:	00c00044 	movi	r3,1
    d278:	d8c00c15 	stw	r3,48(sp)
    d27c:	05c000c4 	movi	r23,3
    d280:	00000106 	br	d288 <___vfprintf_internal_r+0x4e8>
    d284:	002f883a 	mov	r23,zero
    d288:	d8c00f17 	ldw	r3,60(sp)
    d28c:	18c00044 	addi	r3,r3,1
    d290:	d8c00f15 	stw	r3,60(sp)
    d294:	003edc06 	br	ce08 <_gp+0xffff6aec>
    d298:	8005883a 	mov	r2,r16
    d29c:	dfc01a17 	ldw	ra,104(sp)
    d2a0:	df001917 	ldw	fp,100(sp)
    d2a4:	ddc01817 	ldw	r23,96(sp)
    d2a8:	dd801717 	ldw	r22,92(sp)
    d2ac:	dd401617 	ldw	r21,88(sp)
    d2b0:	dd001517 	ldw	r20,84(sp)
    d2b4:	dcc01417 	ldw	r19,80(sp)
    d2b8:	dc801317 	ldw	r18,76(sp)
    d2bc:	dc401217 	ldw	r17,72(sp)
    d2c0:	dc001117 	ldw	r16,68(sp)
    d2c4:	dec01b04 	addi	sp,sp,108
    d2c8:	f800283a 	ret

0000d2cc <__vfprintf_internal>:
    d2cc:	00800074 	movhi	r2,1
    d2d0:	10b8c904 	addi	r2,r2,-7388
    d2d4:	300f883a 	mov	r7,r6
    d2d8:	280d883a 	mov	r6,r5
    d2dc:	200b883a 	mov	r5,r4
    d2e0:	11000017 	ldw	r4,0(r2)
    d2e4:	000cda01 	jmpi	cda0 <___vfprintf_internal_r>

0000d2e8 <_vsnprintf_r>:
    d2e8:	3000040e 	bge	r6,zero,d2fc <_vsnprintf_r+0x14>
    d2ec:	008022c4 	movi	r2,139
    d2f0:	20800015 	stw	r2,0(r4)
    d2f4:	00bfffc4 	movi	r2,-1
    d2f8:	f800283a 	ret
    d2fc:	defff604 	addi	sp,sp,-40
    d300:	00c08204 	movi	r3,520
    d304:	dfc00915 	stw	ra,36(sp)
    d308:	dc400815 	stw	r17,32(sp)
    d30c:	dc000715 	stw	r16,28(sp)
    d310:	d8c0000d 	sth	r3,0(sp)
    d314:	d9400415 	stw	r5,16(sp)
    d318:	d9400215 	stw	r5,8(sp)
    d31c:	3005883a 	mov	r2,r6
    d320:	30000226 	beq	r6,zero,d32c <_vsnprintf_r+0x44>
    d324:	30ffffc4 	addi	r3,r6,-1
    d328:	00000106 	br	d330 <_vsnprintf_r+0x48>
    d32c:	0007883a 	mov	r3,zero
    d330:	1021883a 	mov	r16,r2
    d334:	00bfffc4 	movi	r2,-1
    d338:	d880008d 	sth	r2,2(sp)
    d33c:	00800074 	movhi	r2,1
    d340:	10b52404 	addi	r2,r2,-11120
    d344:	d8800115 	stw	r2,4(sp)
    d348:	00800074 	movhi	r2,1
    d34c:	10b8c904 	addi	r2,r2,-7388
    d350:	380d883a 	mov	r6,r7
    d354:	2023883a 	mov	r17,r4
    d358:	d9c00a17 	ldw	r7,40(sp)
    d35c:	11000017 	ldw	r4,0(r2)
    d360:	d80b883a 	mov	r5,sp
    d364:	d8c00515 	stw	r3,20(sp)
    d368:	d8c00315 	stw	r3,12(sp)
    d36c:	d8000615 	stw	zero,24(sp)
    d370:	000c7ec0 	call	c7ec <___svfprintf_internal_r>
    d374:	00ffffc4 	movi	r3,-1
    d378:	10c0020e 	bge	r2,r3,d384 <_vsnprintf_r+0x9c>
    d37c:	00c022c4 	movi	r3,139
    d380:	88c00015 	stw	r3,0(r17)
    d384:	80000226 	beq	r16,zero,d390 <_vsnprintf_r+0xa8>
    d388:	d8c00417 	ldw	r3,16(sp)
    d38c:	18000005 	stb	zero,0(r3)
    d390:	dfc00917 	ldw	ra,36(sp)
    d394:	dc400817 	ldw	r17,32(sp)
    d398:	dc000717 	ldw	r16,28(sp)
    d39c:	dec00a04 	addi	sp,sp,40
    d3a0:	f800283a 	ret

0000d3a4 <vsnprintf>:
    d3a4:	defffe04 	addi	sp,sp,-8
    d3a8:	00800074 	movhi	r2,1
    d3ac:	d9c00015 	stw	r7,0(sp)
    d3b0:	10b8c904 	addi	r2,r2,-7388
    d3b4:	300f883a 	mov	r7,r6
    d3b8:	280d883a 	mov	r6,r5
    d3bc:	200b883a 	mov	r5,r4
    d3c0:	11000017 	ldw	r4,0(r2)
    d3c4:	dfc00115 	stw	ra,4(sp)
    d3c8:	000d2e80 	call	d2e8 <_vsnprintf_r>
    d3cc:	dfc00117 	ldw	ra,4(sp)
    d3d0:	dec00204 	addi	sp,sp,8
    d3d4:	f800283a 	ret

0000d3d8 <__sfvwrite_small_dev>:
    d3d8:	2880000b 	ldhu	r2,0(r5)
    d3dc:	1080020c 	andi	r2,r2,8
    d3e0:	10002126 	beq	r2,zero,d468 <__sfvwrite_small_dev+0x90>
    d3e4:	2880008f 	ldh	r2,2(r5)
    d3e8:	defffa04 	addi	sp,sp,-24
    d3ec:	dc000015 	stw	r16,0(sp)
    d3f0:	dfc00515 	stw	ra,20(sp)
    d3f4:	dd000415 	stw	r20,16(sp)
    d3f8:	dcc00315 	stw	r19,12(sp)
    d3fc:	dc800215 	stw	r18,8(sp)
    d400:	dc400115 	stw	r17,4(sp)
    d404:	2821883a 	mov	r16,r5
    d408:	10001216 	blt	r2,zero,d454 <__sfvwrite_small_dev+0x7c>
    d40c:	2027883a 	mov	r19,r4
    d410:	3025883a 	mov	r18,r6
    d414:	3823883a 	mov	r17,r7
    d418:	05010004 	movi	r20,1024
    d41c:	04400b0e 	bge	zero,r17,d44c <__sfvwrite_small_dev+0x74>
    d420:	880f883a 	mov	r7,r17
    d424:	a440010e 	bge	r20,r17,d42c <__sfvwrite_small_dev+0x54>
    d428:	01c10004 	movi	r7,1024
    d42c:	8140008f 	ldh	r5,2(r16)
    d430:	900d883a 	mov	r6,r18
    d434:	9809883a 	mov	r4,r19
    d438:	000d6440 	call	d644 <_write_r>
    d43c:	0080050e 	bge	zero,r2,d454 <__sfvwrite_small_dev+0x7c>
    d440:	88a3c83a 	sub	r17,r17,r2
    d444:	90a5883a 	add	r18,r18,r2
    d448:	003ff406 	br	d41c <_gp+0xffff7100>
    d44c:	0005883a 	mov	r2,zero
    d450:	00000706 	br	d470 <__sfvwrite_small_dev+0x98>
    d454:	8080000b 	ldhu	r2,0(r16)
    d458:	10801014 	ori	r2,r2,64
    d45c:	8080000d 	sth	r2,0(r16)
    d460:	00bfffc4 	movi	r2,-1
    d464:	00000206 	br	d470 <__sfvwrite_small_dev+0x98>
    d468:	00bfffc4 	movi	r2,-1
    d46c:	f800283a 	ret
    d470:	dfc00517 	ldw	ra,20(sp)
    d474:	dd000417 	ldw	r20,16(sp)
    d478:	dcc00317 	ldw	r19,12(sp)
    d47c:	dc800217 	ldw	r18,8(sp)
    d480:	dc400117 	ldw	r17,4(sp)
    d484:	dc000017 	ldw	r16,0(sp)
    d488:	dec00604 	addi	sp,sp,24
    d48c:	f800283a 	ret

0000d490 <__sfvwrite_small_str>:
    d490:	2880000b 	ldhu	r2,0(r5)
    d494:	10c0020c 	andi	r3,r2,8
    d498:	18002026 	beq	r3,zero,d51c <__sfvwrite_small_str+0x8c>
    d49c:	28c0008f 	ldh	r3,2(r5)
    d4a0:	defffd04 	addi	sp,sp,-12
    d4a4:	dc000015 	stw	r16,0(sp)
    d4a8:	dfc00215 	stw	ra,8(sp)
    d4ac:	dc400115 	stw	r17,4(sp)
    d4b0:	2821883a 	mov	r16,r5
    d4b4:	1800150e 	bge	r3,zero,d50c <__sfvwrite_small_str+0x7c>
    d4b8:	10c0800c 	andi	r3,r2,512
    d4bc:	18001326 	beq	r3,zero,d50c <__sfvwrite_small_str+0x7c>
    d4c0:	2c400517 	ldw	r17,20(r5)
    d4c4:	89c0030e 	bge	r17,r7,d4d4 <__sfvwrite_small_str+0x44>
    d4c8:	10c0200c 	andi	r3,r2,128
    d4cc:	18000326 	beq	r3,zero,d4dc <__sfvwrite_small_str+0x4c>
    d4d0:	00000e06 	br	d50c <__sfvwrite_small_str+0x7c>
    d4d4:	3c40010e 	bge	r7,r17,d4dc <__sfvwrite_small_str+0x4c>
    d4d8:	3823883a 	mov	r17,r7
    d4dc:	81000417 	ldw	r4,16(r16)
    d4e0:	300b883a 	mov	r5,r6
    d4e4:	880d883a 	mov	r6,r17
    d4e8:	000d5380 	call	d538 <memmove>
    d4ec:	80800517 	ldw	r2,20(r16)
    d4f0:	1445c83a 	sub	r2,r2,r17
    d4f4:	80800515 	stw	r2,20(r16)
    d4f8:	80800417 	ldw	r2,16(r16)
    d4fc:	1463883a 	add	r17,r2,r17
    d500:	84400415 	stw	r17,16(r16)
    d504:	0005883a 	mov	r2,zero
    d508:	00000606 	br	d524 <__sfvwrite_small_str+0x94>
    d50c:	10801014 	ori	r2,r2,64
    d510:	8080000d 	sth	r2,0(r16)
    d514:	00bfffc4 	movi	r2,-1
    d518:	00000206 	br	d524 <__sfvwrite_small_str+0x94>
    d51c:	00bfffc4 	movi	r2,-1
    d520:	f800283a 	ret
    d524:	dfc00217 	ldw	ra,8(sp)
    d528:	dc400117 	ldw	r17,4(sp)
    d52c:	dc000017 	ldw	r16,0(sp)
    d530:	dec00304 	addi	sp,sp,12
    d534:	f800283a 	ret

0000d538 <memmove>:
    d538:	2005883a 	mov	r2,r4
    d53c:	218f883a 	add	r7,r4,r6
    d540:	29000236 	bltu	r5,r4,d54c <memmove+0x14>
    d544:	1007883a 	mov	r3,r2
    d548:	00000c06 	br	d57c <memmove+0x44>
    d54c:	2987883a 	add	r3,r5,r6
    d550:	20fffc2e 	bgeu	r4,r3,d544 <_gp+0xffff7228>
    d554:	380b883a 	mov	r5,r7
    d558:	30cdc83a 	sub	r6,r6,r3
    d55c:	1989883a 	add	r4,r3,r6
    d560:	20000526 	beq	r4,zero,d578 <memmove+0x40>
    d564:	18ffffc4 	addi	r3,r3,-1
    d568:	19000003 	ldbu	r4,0(r3)
    d56c:	297fffc4 	addi	r5,r5,-1
    d570:	29000005 	stb	r4,0(r5)
    d574:	003ff906 	br	d55c <_gp+0xffff7240>
    d578:	f800283a 	ret
    d57c:	19c00526 	beq	r3,r7,d594 <memmove+0x5c>
    d580:	29000003 	ldbu	r4,0(r5)
    d584:	18c00044 	addi	r3,r3,1
    d588:	29400044 	addi	r5,r5,1
    d58c:	193fffc5 	stb	r4,-1(r3)
    d590:	003ffa06 	br	d57c <_gp+0xffff7260>
    d594:	f800283a 	ret

0000d598 <putc>:
    d598:	defffd04 	addi	sp,sp,-12
    d59c:	00800074 	movhi	r2,1
    d5a0:	dc000115 	stw	r16,4(sp)
    d5a4:	dfc00215 	stw	ra,8(sp)
    d5a8:	10b4f604 	addi	r2,r2,-11304
    d5ac:	28800115 	stw	r2,4(r5)
    d5b0:	00800074 	movhi	r2,1
    d5b4:	10b8c904 	addi	r2,r2,-7388
    d5b8:	d9000005 	stb	r4,0(sp)
    d5bc:	2021883a 	mov	r16,r4
    d5c0:	11000017 	ldw	r4,0(r2)
    d5c4:	01c00044 	movi	r7,1
    d5c8:	d80d883a 	mov	r6,sp
    d5cc:	000d3d80 	call	d3d8 <__sfvwrite_small_dev>
    d5d0:	00ffffc4 	movi	r3,-1
    d5d4:	10c00126 	beq	r2,r3,d5dc <putc+0x44>
    d5d8:	8005883a 	mov	r2,r16
    d5dc:	dfc00217 	ldw	ra,8(sp)
    d5e0:	dc000117 	ldw	r16,4(sp)
    d5e4:	dec00304 	addi	sp,sp,12
    d5e8:	f800283a 	ret

0000d5ec <_putc_r>:
    d5ec:	defffd04 	addi	sp,sp,-12
    d5f0:	00800074 	movhi	r2,1
    d5f4:	dc000115 	stw	r16,4(sp)
    d5f8:	dfc00215 	stw	ra,8(sp)
    d5fc:	10b4f604 	addi	r2,r2,-11304
    d600:	30800115 	stw	r2,4(r6)
    d604:	00800074 	movhi	r2,1
    d608:	10b8c904 	addi	r2,r2,-7388
    d60c:	11000017 	ldw	r4,0(r2)
    d610:	2821883a 	mov	r16,r5
    d614:	01c00044 	movi	r7,1
    d618:	300b883a 	mov	r5,r6
    d61c:	d80d883a 	mov	r6,sp
    d620:	dc000005 	stb	r16,0(sp)
    d624:	000d3d80 	call	d3d8 <__sfvwrite_small_dev>
    d628:	00ffffc4 	movi	r3,-1
    d62c:	10c00126 	beq	r2,r3,d634 <_putc_r+0x48>
    d630:	8005883a 	mov	r2,r16
    d634:	dfc00217 	ldw	ra,8(sp)
    d638:	dc000117 	ldw	r16,4(sp)
    d63c:	dec00304 	addi	sp,sp,12
    d640:	f800283a 	ret

0000d644 <_write_r>:
    d644:	defffd04 	addi	sp,sp,-12
    d648:	dc000015 	stw	r16,0(sp)
    d64c:	04000074 	movhi	r16,1
    d650:	dc400115 	stw	r17,4(sp)
    d654:	84391104 	addi	r16,r16,-7100
    d658:	2023883a 	mov	r17,r4
    d65c:	2809883a 	mov	r4,r5
    d660:	300b883a 	mov	r5,r6
    d664:	380d883a 	mov	r6,r7
    d668:	dfc00215 	stw	ra,8(sp)
    d66c:	80000015 	stw	zero,0(r16)
    d670:	000d8e40 	call	d8e4 <write>
    d674:	00ffffc4 	movi	r3,-1
    d678:	10c0031e 	bne	r2,r3,d688 <_write_r+0x44>
    d67c:	80c00017 	ldw	r3,0(r16)
    d680:	18000126 	beq	r3,zero,d688 <_write_r+0x44>
    d684:	88c00015 	stw	r3,0(r17)
    d688:	dfc00217 	ldw	ra,8(sp)
    d68c:	dc400117 	ldw	r17,4(sp)
    d690:	dc000017 	ldw	r16,0(sp)
    d694:	dec00304 	addi	sp,sp,12
    d698:	f800283a 	ret

0000d69c <alt_load>:
 * there is no bootloader, so this application is responsible for loading to
 * RAM any sections that are required.
 */  

void alt_load (void)
{
    d69c:	deffff04 	addi	sp,sp,-4
    d6a0:	01000074 	movhi	r4,1
    d6a4:	01400074 	movhi	r5,1
    d6a8:	dfc00015 	stw	ra,0(sp)
    d6ac:	21388f04 	addi	r4,r4,-7620
    d6b0:	2978cf04 	addi	r5,r5,-7364

static void ALT_INLINE alt_load_section (alt_u32* from, 
                                         alt_u32* to, 
                                         alt_u32* end)
{
  if (to != from)
    d6b4:	2140061e 	bne	r4,r5,d6d0 <alt_load+0x34>
    d6b8:	01000074 	movhi	r4,1
    d6bc:	01400074 	movhi	r5,1
    d6c0:	21200804 	addi	r4,r4,-32736
    d6c4:	29600804 	addi	r5,r5,-32736
    d6c8:	2140121e 	bne	r4,r5,d714 <alt_load+0x78>
    d6cc:	00000b06 	br	d6fc <alt_load+0x60>
    d6d0:	00c00074 	movhi	r3,1
    d6d4:	18f8cf04 	addi	r3,r3,-7364
    d6d8:	1907c83a 	sub	r3,r3,r4
    d6dc:	0005883a 	mov	r2,zero
  {
    while( to != end )
    d6e0:	10fff526 	beq	r2,r3,d6b8 <_gp+0xffff739c>
    {
      *to++ = *from++;
    d6e4:	114f883a 	add	r7,r2,r5
    d6e8:	39c00017 	ldw	r7,0(r7)
    d6ec:	110d883a 	add	r6,r2,r4
    d6f0:	10800104 	addi	r2,r2,4
    d6f4:	31c00015 	stw	r7,0(r6)
    d6f8:	003ff906 	br	d6e0 <_gp+0xffff73c4>
    d6fc:	01000074 	movhi	r4,1
    d700:	01400074 	movhi	r5,1
    d704:	21368d04 	addi	r4,r4,-9676
    d708:	29768d04 	addi	r5,r5,-9676

static void ALT_INLINE alt_load_section (alt_u32* from, 
                                         alt_u32* to, 
                                         alt_u32* end)
{
  if (to != from)
    d70c:	2140101e 	bne	r4,r5,d750 <alt_load+0xb4>
    d710:	00000b06 	br	d740 <alt_load+0xa4>
    d714:	00c00074 	movhi	r3,1
    d718:	18e00804 	addi	r3,r3,-32736
    d71c:	1907c83a 	sub	r3,r3,r4
    d720:	0005883a 	mov	r2,zero
  {
    while( to != end )
    d724:	10fff526 	beq	r2,r3,d6fc <_gp+0xffff73e0>
    {
      *to++ = *from++;
    d728:	114f883a 	add	r7,r2,r5
    d72c:	39c00017 	ldw	r7,0(r7)
    d730:	110d883a 	add	r6,r2,r4
    d734:	10800104 	addi	r2,r2,4
    d738:	31c00015 	stw	r7,0(r6)
    d73c:	003ff906 	br	d724 <_gp+0xffff7408>
  
  /*
   * Now ensure that the caches are in synch.
   */
  
  alt_dcache_flush_all();
    d740:	000da240 	call	da24 <alt_dcache_flush_all>
  alt_icache_flush_all();
}
    d744:	dfc00017 	ldw	ra,0(sp)
    d748:	dec00104 	addi	sp,sp,4
  /*
   * Now ensure that the caches are in synch.
   */
  
  alt_dcache_flush_all();
  alt_icache_flush_all();
    d74c:	000da281 	jmpi	da28 <alt_icache_flush_all>
    d750:	00c00074 	movhi	r3,1
    d754:	18f88f04 	addi	r3,r3,-7620
    d758:	1907c83a 	sub	r3,r3,r4

static void ALT_INLINE alt_load_section (alt_u32* from, 
                                         alt_u32* to, 
                                         alt_u32* end)
{
  if (to != from)
    d75c:	0005883a 	mov	r2,zero
  {
    while( to != end )
    d760:	18bff726 	beq	r3,r2,d740 <_gp+0xffff7424>
    {
      *to++ = *from++;
    d764:	114f883a 	add	r7,r2,r5
    d768:	39c00017 	ldw	r7,0(r7)
    d76c:	110d883a 	add	r6,r2,r4
    d770:	10800104 	addi	r2,r2,4
    d774:	31c00015 	stw	r7,0(r6)
    d778:	003ff906 	br	d760 <_gp+0xffff7444>

0000d77c <alt_main>:
 * devices/filesystems/components in the system; and call the entry point for
 * the users application, i.e. main().
 */

void alt_main (void)
{
    d77c:	deffff04 	addi	sp,sp,-4
#endif

  /* ALT LOG - please see HAL/sys/alt_log_printf.h for details */
  ALT_LOG_PRINT_BOOT("[alt_main.c] Entering alt_main, calling alt_irq_init.\r\n");
  /* Initialize the interrupt controller. */
  alt_irq_init (NULL);
    d780:	0009883a 	mov	r4,zero
 * devices/filesystems/components in the system; and call the entry point for
 * the users application, i.e. main().
 */

void alt_main (void)
{
    d784:	dfc00015 	stw	ra,0(sp)
#endif

  /* ALT LOG - please see HAL/sys/alt_log_printf.h for details */
  ALT_LOG_PRINT_BOOT("[alt_main.c] Entering alt_main, calling alt_irq_init.\r\n");
  /* Initialize the interrupt controller. */
  alt_irq_init (NULL);
    d788:	000d9440 	call	d944 <alt_irq_init>
  ALT_LOG_PRINT_BOOT("[alt_main.c] Done OS Init, calling alt_sem_create.\r\n");
  ALT_SEM_CREATE (&alt_fd_list_lock, 1);

  /* Initialize the device drivers/software components. */
  ALT_LOG_PRINT_BOOT("[alt_main.c] Calling alt_sys_init.\r\n");
  alt_sys_init();
    d78c:	000d9640 	call	d964 <alt_sys_init>
   */

  ALT_LOG_PRINT_BOOT("[alt_main.c] Calling main.\r\n");

#ifdef ALT_NO_EXIT
  main (alt_argc, alt_argv, alt_envp);
    d790:	d1a04b17 	ldw	r6,-32468(gp)
    d794:	d1604c17 	ldw	r5,-32464(gp)
    d798:	d1204d17 	ldw	r4,-32460(gp)
  close(STDOUT_FILENO);
  exit (result);
#endif

  ALT_LOG_PRINT_BOOT("[alt_main.c] After main - we should not be here?.\r\n");
}
    d79c:	dfc00017 	ldw	ra,0(sp)
    d7a0:	dec00104 	addi	sp,sp,4
   */

  ALT_LOG_PRINT_BOOT("[alt_main.c] Calling main.\r\n");

#ifdef ALT_NO_EXIT
  main (alt_argc, alt_argv, alt_envp);
    d7a4:	00082181 	jmpi	8218 <main>

0000d7a8 <sbrk>:
static ALT_INLINE alt_irq_context ALT_ALWAYS_INLINE 
       alt_irq_disable_all (void)
{
  alt_irq_context context;

  NIOS2_READ_STATUS (context);
    d7a8:	000b303a 	rdctl	r5,status

  NIOS2_WRITE_STATUS (context & ~NIOS2_STATUS_PIE_MSK);
    d7ac:	00bfff84 	movi	r2,-2
    d7b0:	2884703a 	and	r2,r5,r2
    d7b4:	1001703a 	wrctl	status,r2
  char *prev_heap_end; 

  context = alt_irq_disable_all();

  /* Always return data aligned on a word boundary */
  heap_end = (char *)(((unsigned int)heap_end + 3) & ~3);
    d7b8:	d0a00317 	ldw	r2,-32756(gp)
    d7bc:	00ffff04 	movi	r3,-4
    d7c0:	108000c4 	addi	r2,r2,3
    d7c4:	10c4703a 	and	r2,r2,r3
  if (((heap_end + incr) - __alt_heap_start) > ALT_MAX_HEAP_BYTES) {
    alt_irq_enable_all(context);
    return (caddr_t)-1;
  }
#else
  if ((heap_end + incr) > __alt_heap_limit) {
    d7c8:	00c00074 	movhi	r3,1
  char *prev_heap_end; 

  context = alt_irq_disable_all();

  /* Always return data aligned on a word boundary */
  heap_end = (char *)(((unsigned int)heap_end + 3) & ~3);
    d7cc:	d0a00315 	stw	r2,-32756(gp)
  if (((heap_end + incr) - __alt_heap_start) > ALT_MAX_HEAP_BYTES) {
    alt_irq_enable_all(context);
    return (caddr_t)-1;
  }
#else
  if ((heap_end + incr) > __alt_heap_limit) {
    d7d0:	1109883a 	add	r4,r2,r4
    d7d4:	18c00004 	addi	r3,r3,0
    d7d8:	1900032e 	bgeu	r3,r4,d7e8 <sbrk+0x40>
  status &= ~NIOS2_STATUS_PIE_MSK;
  status |= (context & NIOS2_STATUS_PIE_MSK);
  
  NIOS2_WRITE_STATUS (status);
#else
  NIOS2_WRITE_STATUS (context);
    d7dc:	2801703a 	wrctl	status,r5
    alt_irq_enable_all(context);
    return (caddr_t)-1;
    d7e0:	00bfffc4 	movi	r2,-1
    d7e4:	f800283a 	ret
  }
#endif

  prev_heap_end = heap_end; 
  heap_end += incr; 
    d7e8:	d1200315 	stw	r4,-32756(gp)
    d7ec:	2801703a 	wrctl	status,r5
#endif

  alt_irq_enable_all(context);

  return (caddr_t) prev_heap_end; 
} 
    d7f0:	f800283a 	ret

0000d7f4 <alt_alarm_stop>:
static ALT_INLINE alt_irq_context ALT_ALWAYS_INLINE 
       alt_irq_disable_all (void)
{
  alt_irq_context context;

  NIOS2_READ_STATUS (context);
    d7f4:	0007303a 	rdctl	r3,status

  NIOS2_WRITE_STATUS (context & ~NIOS2_STATUS_PIE_MSK);
    d7f8:	00bfff84 	movi	r2,-2
    d7fc:	1884703a 	and	r2,r3,r2
    d800:	1001703a 	wrctl	status,r2
 * input argument is the element to remove.
 */
     
static ALT_INLINE void ALT_ALWAYS_INLINE alt_llist_remove(alt_llist* entry)
{
  entry->next->previous = entry->previous;
    d804:	21400117 	ldw	r5,4(r4)
    d808:	20800017 	ldw	r2,0(r4)
    d80c:	11400115 	stw	r5,4(r2)
  entry->previous->next = entry->next;
    d810:	21400117 	ldw	r5,4(r4)
    d814:	28800015 	stw	r2,0(r5)
  /* 
   * Set the entry to point to itself, so that any further calls to
   * alt_llist_remove() are harmless.
   */

  entry->previous = entry;
    d818:	21000115 	stw	r4,4(r4)
  entry->next     = entry;
    d81c:	21000015 	stw	r4,0(r4)
  status &= ~NIOS2_STATUS_PIE_MSK;
  status |= (context & NIOS2_STATUS_PIE_MSK);
  
  NIOS2_WRITE_STATUS (status);
#else
  NIOS2_WRITE_STATUS (context);
    d820:	1801703a 	wrctl	status,r3
    d824:	f800283a 	ret

0000d828 <alt_tick>:

  alt_u32    next_callback;

  /* update the tick counter */

  _alt_nticks++;
    d828:	d0a04e17 	ldw	r2,-32456(gp)
 * 
 * alt_tick() is expected to run at interrupt level.
 */

void alt_tick (void)
{
    d82c:	defffb04 	addi	sp,sp,-20
    d830:	dc000015 	stw	r16,0(sp)
  alt_alarm* next;
  alt_alarm* alarm = (alt_alarm*) alt_alarm_list.next;
    d834:	d4200417 	ldw	r16,-32752(gp)

  alt_u32    next_callback;

  /* update the tick counter */

  _alt_nticks++;
    d838:	10800044 	addi	r2,r2,1
 * 
 * alt_tick() is expected to run at interrupt level.
 */

void alt_tick (void)
{
    d83c:	dc800215 	stw	r18,8(sp)
    d840:	dc400115 	stw	r17,4(sp)
    d844:	dfc00415 	stw	ra,16(sp)
    d848:	dcc00315 	stw	r19,12(sp)

  alt_u32    next_callback;

  /* update the tick counter */

  _alt_nticks++;
    d84c:	d0a04e15 	stw	r2,-32456(gp)

  /* process the registered callbacks */

  while (alarm != (alt_alarm*) &alt_alarm_list)
    d850:	d4600404 	addi	r17,gp,-32752
         * flag. This will prevent the subsequent tick event from causing
         * an alarm too early.
         */
        if(alarm->time < _alt_nticks)
        {
          alarm->rollover = 1;
    d854:	04800044 	movi	r18,1

  _alt_nticks++;

  /* process the registered callbacks */

  while (alarm != (alt_alarm*) &alt_alarm_list)
    d858:	84401a26 	beq	r16,r17,d8c4 <alt_tick+0x9c>
    /* 
     * Upon the tick-counter rolling over it is safe to clear the 
     * roll-over flag; once the flag is cleared this (or subsequnt)
     * tick events are enabled to generate an alarm event. 
     */
    if ((alarm->rollover) && (_alt_nticks == 0))
    d85c:	80800403 	ldbu	r2,16(r16)

  /* process the registered callbacks */

  while (alarm != (alt_alarm*) &alt_alarm_list)
  {
    next = (alt_alarm*) alarm->llist.next;
    d860:	84c00017 	ldw	r19,0(r16)
    /* 
     * Upon the tick-counter rolling over it is safe to clear the 
     * roll-over flag; once the flag is cleared this (or subsequnt)
     * tick events are enabled to generate an alarm event. 
     */
    if ((alarm->rollover) && (_alt_nticks == 0))
    d864:	10000326 	beq	r2,zero,d874 <alt_tick+0x4c>
    d868:	d0a04e17 	ldw	r2,-32456(gp)
    d86c:	1000011e 	bne	r2,zero,d874 <alt_tick+0x4c>
    {
      alarm->rollover = 0;
    d870:	80000405 	stb	zero,16(r16)
    }
    
    /* if the alarm period has expired, make the callback */    
    if ((alarm->time <= _alt_nticks) && (alarm->rollover == 0))
    d874:	d0e04e17 	ldw	r3,-32456(gp)
    d878:	80800217 	ldw	r2,8(r16)
    d87c:	18800f36 	bltu	r3,r2,d8bc <alt_tick+0x94>
    d880:	80800403 	ldbu	r2,16(r16)
    d884:	10000d1e 	bne	r2,zero,d8bc <alt_tick+0x94>
    {
      next_callback = alarm->callback (alarm->context);
    d888:	80800317 	ldw	r2,12(r16)
    d88c:	81000517 	ldw	r4,20(r16)
    d890:	103ee83a 	callr	r2

      /* deactivate the alarm if the return value is zero */

      if (next_callback == 0)
    d894:	1000031e 	bne	r2,zero,d8a4 <alt_tick+0x7c>
      {
        alt_alarm_stop (alarm);
    d898:	8009883a 	mov	r4,r16
    d89c:	000d7f40 	call	d7f4 <alt_alarm_stop>
    d8a0:	00000606 	br	d8bc <alt_tick+0x94>
      }
      else
      {
        alarm->time += next_callback;
    d8a4:	80c00217 	ldw	r3,8(r16)
    d8a8:	10c5883a 	add	r2,r2,r3
        /* 
         * If the desired alarm time causes a roll-over, set the rollover
         * flag. This will prevent the subsequent tick event from causing
         * an alarm too early.
         */
        if(alarm->time < _alt_nticks)
    d8ac:	d0e04e17 	ldw	r3,-32456(gp)
      {
        alt_alarm_stop (alarm);
      }
      else
      {
        alarm->time += next_callback;
    d8b0:	80800215 	stw	r2,8(r16)
        /* 
         * If the desired alarm time causes a roll-over, set the rollover
         * flag. This will prevent the subsequent tick event from causing
         * an alarm too early.
         */
        if(alarm->time < _alt_nticks)
    d8b4:	10c0012e 	bgeu	r2,r3,d8bc <alt_tick+0x94>
        {
          alarm->rollover = 1;
    d8b8:	84800405 	stb	r18,16(r16)
 * 
 * alt_tick() is expected to run at interrupt level.
 */

void alt_tick (void)
{
    d8bc:	9821883a 	mov	r16,r19
    d8c0:	003fe506 	br	d858 <_gp+0xffff753c>
  /* 
   * Update the operating system specific timer facilities.
   */

  ALT_OS_TIME_TICK();
}
    d8c4:	dfc00417 	ldw	ra,16(sp)
    d8c8:	dcc00317 	ldw	r19,12(sp)
    d8cc:	dc800217 	ldw	r18,8(sp)
    d8d0:	dc400117 	ldw	r17,4(sp)
    d8d4:	dc000017 	ldw	r16,0(sp)
    d8d8:	dec00504 	addi	sp,sp,20
    d8dc:	f800283a 	ret

0000d8e0 <usleep>:
int ALT_USLEEP (useconds_t us)
#else
unsigned int ALT_USLEEP (unsigned int us)
#endif
{
  return alt_busy_sleep(us);
    d8e0:	000d99c1 	jmpi	d99c <alt_busy_sleep>

0000d8e4 <write>:
#if !defined(ALT_STDOUT_PRESENT) && !defined(ALT_STDERR_PRESENT)
    /* Generate a link time warning, should this function ever be called. */
    ALT_STUB_WARNING(write);
#endif

    switch (file) {
    d8e4:	00800044 	movi	r2,1
    d8e8:	20800226 	beq	r4,r2,d8f4 <write+0x10>
    d8ec:	00800084 	movi	r2,2
    d8f0:	2080041e 	bne	r4,r2,d904 <write+0x20>
    case 1: /* stdout file descriptor */
        return ALT_DRIVER_WRITE(ALT_STDOUT_DEV, ptr, len, 0);
#endif /* ALT_STDOUT_PRESENT */
#ifdef ALT_STDERR_PRESENT
    case 2: /* stderr file descriptor */
        return ALT_DRIVER_WRITE(ALT_STDERR_DEV, ptr, len, 0);
    d8f4:	01000074 	movhi	r4,1
    d8f8:	000f883a 	mov	r7,zero
    d8fc:	2138cd04 	addi	r4,r4,-7372
    d900:	000d9681 	jmpi	d968 <altera_avalon_jtag_uart_write>

extern int errno;

static ALT_INLINE int* alt_get_errno(void)
{
  return ((alt_errno) ? alt_errno() : &errno);
    d904:	d0a00717 	ldw	r2,-32740(gp)
    d908:	10000926 	beq	r2,zero,d930 <write+0x4c>
 * Provide minimal version that just writes to the stdout/stderr devices
 * when provided.
 */

int ALT_WRITE (int file, const void *ptr, size_t len)
{
    d90c:	deffff04 	addi	sp,sp,-4
    d910:	dfc00015 	stw	ra,0(sp)
    d914:	103ee83a 	callr	r2
#ifdef ALT_STDERR_PRESENT
    case 2: /* stderr file descriptor */
        return ALT_DRIVER_WRITE(ALT_STDERR_DEV, ptr, len, 0);
#endif /* ALT_STDERR_PRESENT */
    default:
        ALT_ERRNO = EBADFD;
    d918:	00c01444 	movi	r3,81
    d91c:	10c00015 	stw	r3,0(r2)
        return -1;
    }
}
    d920:	00bfffc4 	movi	r2,-1
    d924:	dfc00017 	ldw	ra,0(sp)
    d928:	dec00104 	addi	sp,sp,4
    d92c:	f800283a 	ret
    d930:	d0a04a04 	addi	r2,gp,-32472
#ifdef ALT_STDERR_PRESENT
    case 2: /* stderr file descriptor */
        return ALT_DRIVER_WRITE(ALT_STDERR_DEV, ptr, len, 0);
#endif /* ALT_STDERR_PRESENT */
    default:
        ALT_ERRNO = EBADFD;
    d934:	00c01444 	movi	r3,81
    d938:	10c00015 	stw	r3,0(r2)
        return -1;
    }
}
    d93c:	00bfffc4 	movi	r2,-1
    d940:	f800283a 	ret

0000d944 <alt_irq_init>:
 * The "base" parameter is ignored and only
 * present for backwards-compatibility.
 */

void alt_irq_init ( const void* base )
{
    d944:	deffff04 	addi	sp,sp,-4
    d948:	dfc00015 	stw	ra,0(sp)
    ALTERA_NIOS2_GEN2_IRQ_INIT ( NIOS2_GEN2_0, nios2_gen2_0);
    d94c:	000da2c0 	call	da2c <altera_nios2_gen2_irq_init>
 * alt_irq_cpu_enable_interrupts() enables the CPU to start taking interrupts.
 */
static ALT_INLINE void ALT_ALWAYS_INLINE 
       alt_irq_cpu_enable_interrupts (void)
{
    NIOS2_WRITE_STATUS(NIOS2_STATUS_PIE_MSK
    d950:	00800044 	movi	r2,1
    d954:	1001703a 	wrctl	status,r2
    alt_irq_cpu_enable_interrupts();
}
    d958:	dfc00017 	ldw	ra,0(sp)
    d95c:	dec00104 	addi	sp,sp,4
    d960:	f800283a 	ret

0000d964 <alt_sys_init>:
 * Initialize the non-interrupt controller devices.
 * Called after alt_irq_init().
 */

void alt_sys_init( void )
{
    d964:	f800283a 	ret

0000d968 <altera_avalon_jtag_uart_write>:
 */

int altera_avalon_jtag_uart_write(altera_avalon_jtag_uart_state* sp, 
  const char * ptr, int count, int flags)
{
  unsigned int base = sp->base;
    d968:	21000017 	ldw	r4,0(r4)
 * one FIFOs worth of data.  But you said you didn't want to use interrupts :-)
 */

int altera_avalon_jtag_uart_write(altera_avalon_jtag_uart_state* sp, 
  const char * ptr, int count, int flags)
{
    d96c:	3005883a 	mov	r2,r6
  unsigned int base = sp->base;

  const char * end = ptr + count;
    d970:	298d883a 	add	r6,r5,r6

  while (ptr < end)
    if ((IORD_ALTERA_AVALON_JTAG_UART_CONTROL(base) & ALTERA_AVALON_JTAG_UART_CONTROL_WSPACE_MSK) != 0)
    d974:	21c00104 	addi	r7,r4,4
{
  unsigned int base = sp->base;

  const char * end = ptr + count;

  while (ptr < end)
    d978:	2980072e 	bgeu	r5,r6,d998 <altera_avalon_jtag_uart_write+0x30>
    if ((IORD_ALTERA_AVALON_JTAG_UART_CONTROL(base) & ALTERA_AVALON_JTAG_UART_CONTROL_WSPACE_MSK) != 0)
    d97c:	38c00037 	ldwio	r3,0(r7)
    d980:	18ffffec 	andhi	r3,r3,65535
    d984:	183ffc26 	beq	r3,zero,d978 <_gp+0xffff765c>
      IOWR_ALTERA_AVALON_JTAG_UART_DATA(base, *ptr++);
    d988:	28c00007 	ldb	r3,0(r5)
    d98c:	20c00035 	stwio	r3,0(r4)
    d990:	29400044 	addi	r5,r5,1
    d994:	003ff806 	br	d978 <_gp+0xffff765c>

  return count;
}
    d998:	f800283a 	ret

0000d99c <alt_busy_sleep>:
  {
    cycles_per_loop = 3;
  }
  

  big_loops = us / (INT_MAX/
    d99c:	0141c734 	movhi	r5,1820
#include "alt_types.h"

#include "priv/alt_busy_sleep.h"

unsigned int alt_busy_sleep (unsigned int us)
{
    d9a0:	defffe04 	addi	sp,sp,-8
  {
    cycles_per_loop = 3;
  }
  

  big_loops = us / (INT_MAX/
    d9a4:	295c71c4 	addi	r5,r5,29127
#include "alt_types.h"

#include "priv/alt_busy_sleep.h"

unsigned int alt_busy_sleep (unsigned int us)
{
    d9a8:	dc000015 	stw	r16,0(sp)
    d9ac:	dfc00115 	stw	ra,4(sp)
    d9b0:	2021883a 	mov	r16,r4
  {
    cycles_per_loop = 3;
  }
  

  big_loops = us / (INT_MAX/
    d9b4:	000ac280 	call	ac28 <__udivsi3>
  (ALT_CPU_FREQ/(cycles_per_loop * 1000000)));

  if (big_loops)
    d9b8:	10001026 	beq	r2,zero,d9fc <alt_busy_sleep+0x60>
      /*
      * Do NOT Try to single step the asm statement below 
      * (single step will never return)
      * Step out of this function or set a breakpoint after the asm statements
      */
      __asm__ volatile (
    d9bc:	01600034 	movhi	r5,32768
        "\n1:"
        "\n\t.pushsection .debug_alt_sim_info"
        "\n\t.int 4, 0, 0b, 1b"
        "\n\t.popsection"
        :: "r" (INT_MAX));
      us -= (INT_MAX/(ALT_CPU_FREQ/
    d9c0:	013e3934 	movhi	r4,63716
    d9c4:	0007883a 	mov	r3,zero
      /*
      * Do NOT Try to single step the asm statement below 
      * (single step will never return)
      * Step out of this function or set a breakpoint after the asm statements
      */
      __asm__ volatile (
    d9c8:	297fffc4 	addi	r5,r5,-1
        "\n1:"
        "\n\t.pushsection .debug_alt_sim_info"
        "\n\t.int 4, 0, 0b, 1b"
        "\n\t.popsection"
        :: "r" (INT_MAX));
      us -= (INT_MAX/(ALT_CPU_FREQ/
    d9cc:	21238e44 	addi	r4,r4,-29127
      /*
      * Do NOT Try to single step the asm statement below 
      * (single step will never return)
      * Step out of this function or set a breakpoint after the asm statements
      */
      __asm__ volatile (
    d9d0:	297fffc4 	addi	r5,r5,-1
    d9d4:	283ffe1e 	bne	r5,zero,d9d0 <_gp+0xffff76b4>
  big_loops = us / (INT_MAX/
  (ALT_CPU_FREQ/(cycles_per_loop * 1000000)));

  if (big_loops)
  {
    for(i=0;i<big_loops;i++)
    d9d8:	18c00044 	addi	r3,r3,1
        "\n1:"
        "\n\t.pushsection .debug_alt_sim_info"
        "\n\t.int 4, 0, 0b, 1b"
        "\n\t.popsection"
        :: "r" (INT_MAX));
      us -= (INT_MAX/(ALT_CPU_FREQ/
    d9dc:	8121883a 	add	r16,r16,r4
  big_loops = us / (INT_MAX/
  (ALT_CPU_FREQ/(cycles_per_loop * 1000000)));

  if (big_loops)
  {
    for(i=0;i<big_loops;i++)
    d9e0:	18bffb16 	blt	r3,r2,d9d0 <_gp+0xffff76b4>
    /*
    * Do NOT Try to single step the asm statement below 
    * (single step will never return)
    * Step out of this function or set a breakpoint after the asm statements
    */
    __asm__ volatile (
    d9e4:	01400484 	movi	r5,18
    d9e8:	8009883a 	mov	r4,r16
    d9ec:	000ace40 	call	ace4 <__mulsi3>
    d9f0:	10bfffc4 	addi	r2,r2,-1
    d9f4:	103ffe1e 	bne	r2,zero,d9f0 <_gp+0xffff76d4>
    d9f8:	00000506 	br	da10 <alt_busy_sleep+0x74>
    /*
    * Do NOT Try to single step the asm statement below 
    * (single step will never return)
    * Step out of this function or set a breakpoint after the asm statements
    */
    __asm__ volatile (
    d9fc:	01400484 	movi	r5,18
    da00:	8009883a 	mov	r4,r16
    da04:	000ace40 	call	ace4 <__mulsi3>
    da08:	10bfffc4 	addi	r2,r2,-1
    da0c:	00bffe16 	blt	zero,r2,da08 <_gp+0xffff76ec>
      "\n\t.popsection"
      :: "r" (us*(ALT_CPU_FREQ/(cycles_per_loop * 1000000))));
  }
#endif /* #ifndef ALT_SIM_OPTIMIZE */
  return 0;
}
    da10:	0005883a 	mov	r2,zero
    da14:	dfc00117 	ldw	ra,4(sp)
    da18:	dc000017 	ldw	r16,0(sp)
    da1c:	dec00204 	addi	sp,sp,8
    da20:	f800283a 	ret

0000da24 <alt_dcache_flush_all>:
/*
 * alt_dcache_flush_all() is called to flush the entire data cache.
 */

void alt_dcache_flush_all (void)
{
    da24:	f800283a 	ret

0000da28 <alt_icache_flush_all>:
/*
 * alt_icache_flush_all() is called to flush the entire instruction cache.
 */

void alt_icache_flush_all (void)
{
    da28:	f800283a 	ret

0000da2c <altera_nios2_gen2_irq_init>:
 * To initialize the internal interrupt controller, just clear the IENABLE
 * register so that all possible IRQs are disabled.
 */
void altera_nios2_gen2_irq_init(void) 
{
    NIOS2_WRITE_IENABLE(0);
    da2c:	000170fa 	wrctl	ienable,zero
    da30:	f800283a 	ret
